ARM GAS  C:\msys64\tmp\ccivjpdh.s 			page 1


   1              		.cpu cortex-m7
   2              		.arch armv7e-m
   3              		.fpu fpv5-sp-d16
   4              		.eabi_attribute 27, 1
   5              		.eabi_attribute 28, 1
   6              		.eabi_attribute 20, 1
   7              		.eabi_attribute 21, 1
   8              		.eabi_attribute 23, 3
   9              		.eabi_attribute 24, 1
  10              		.eabi_attribute 25, 1
  11              		.eabi_attribute 26, 1
  12              		.eabi_attribute 30, 6
  13              		.eabi_attribute 34, 1
  14              		.eabi_attribute 18, 4
  15              		.file	"ethernet.c"
  16              		.text
  17              		.global	ethbroadcast
  18              		.section	.rodata.ethbroadcast,"a"
  19              		.align	2
  22              	ethbroadcast:
  23 0000 FFFFFFFF 		.ascii	"\377\377\377\377\377\377"
  23      FFFF
  24              		.global	ethzero
  25              		.section	.rodata.ethzero,"a"
  26              		.align	2
  29              	ethzero:
  30 0000 00000000 		.space	6
  30      0000
  31              		.section	.text.ethernet_input,"ax",%progbits
  32              		.align	1
  33              		.global	ethernet_input
  34              		.syntax unified
  35              		.thumb
  36              		.thumb_func
  38              	ethernet_input:
  39              		@ args = 0, pretend = 0, frame = 24
  40              		@ frame_needed = 1, uses_anonymous_args = 0
  41 0000 80B5     		push	{r7, lr}
  42 0002 86B0     		sub	sp, sp, #24
  43 0004 00AF     		add	r7, sp, #0
  44 0006 7860     		str	r0, [r7, #4]
  45 0008 3960     		str	r1, [r7]
  46 000a 0E23     		movs	r3, #14
  47 000c FB82     		strh	r3, [r7, #22]	@ movhi
  48 000e 7B68     		ldr	r3, [r7, #4]
  49 0010 5B89     		ldrh	r3, [r3, #10]
  50 0012 0E2B     		cmp	r3, #14
  51 0014 6ED9     		bls	.L16
  52 0016 7B68     		ldr	r3, [r7, #4]
  53 0018 DB7B     		ldrb	r3, [r3, #15]	@ zero_extendqisi2
  54 001a 002B     		cmp	r3, #0
  55 001c 06D1     		bne	.L4
  56 001e 3B68     		ldr	r3, [r7]
  57 0020 93F83030 		ldrb	r3, [r3, #48]	@ zero_extendqisi2
  58 0024 0133     		adds	r3, r3, #1
  59 0026 DAB2     		uxtb	r2, r3
  60 0028 7B68     		ldr	r3, [r7, #4]
ARM GAS  C:\msys64\tmp\ccivjpdh.s 			page 2


  61 002a DA73     		strb	r2, [r3, #15]
  62              	.L4:
  63 002c 7B68     		ldr	r3, [r7, #4]
  64 002e 5B68     		ldr	r3, [r3, #4]
  65 0030 3B61     		str	r3, [r7, #16]
  66 0032 3B69     		ldr	r3, [r7, #16]
  67 0034 1A7B     		ldrb	r2, [r3, #12]	@ zero_extendqisi2
  68 0036 5B7B     		ldrb	r3, [r3, #13]	@ zero_extendqisi2
  69 0038 1B02     		lsls	r3, r3, #8
  70 003a 1343     		orrs	r3, r3, r2
  71 003c FB81     		strh	r3, [r7, #14]	@ movhi
  72 003e 3B69     		ldr	r3, [r7, #16]
  73 0040 1B78     		ldrb	r3, [r3]	@ zero_extendqisi2
  74 0042 03F00103 		and	r3, r3, #1
  75 0046 002B     		cmp	r3, #0
  76 0048 23D0     		beq	.L5
  77 004a 3B69     		ldr	r3, [r7, #16]
  78 004c 1B78     		ldrb	r3, [r3]	@ zero_extendqisi2
  79 004e 012B     		cmp	r3, #1
  80 0050 0FD1     		bne	.L6
  81 0052 3B69     		ldr	r3, [r7, #16]
  82 0054 5B78     		ldrb	r3, [r3, #1]	@ zero_extendqisi2
  83 0056 002B     		cmp	r3, #0
  84 0058 1BD1     		bne	.L5
  85 005a 3B69     		ldr	r3, [r7, #16]
  86 005c 9B78     		ldrb	r3, [r3, #2]	@ zero_extendqisi2
  87 005e 5E2B     		cmp	r3, #94
  88 0060 17D1     		bne	.L5
  89 0062 7B68     		ldr	r3, [r7, #4]
  90 0064 5B7B     		ldrb	r3, [r3, #13]	@ zero_extendqisi2
  91 0066 43F01003 		orr	r3, r3, #16
  92 006a DAB2     		uxtb	r2, r3
  93 006c 7B68     		ldr	r3, [r7, #4]
  94 006e 5A73     		strb	r2, [r3, #13]
  95 0070 0FE0     		b	.L5
  96              	.L6:
  97 0072 3B69     		ldr	r3, [r7, #16]
  98 0074 0622     		movs	r2, #6
  99 0076 2849     		ldr	r1, .L21
 100 0078 1846     		mov	r0, r3
 101 007a FFF7FEFF 		bl	memcmp
 102 007e 0346     		mov	r3, r0
 103 0080 002B     		cmp	r3, #0
 104 0082 06D1     		bne	.L5
 105 0084 7B68     		ldr	r3, [r7, #4]
 106 0086 5B7B     		ldrb	r3, [r3, #13]	@ zero_extendqisi2
 107 0088 43F00803 		orr	r3, r3, #8
 108 008c DAB2     		uxtb	r2, r3
 109 008e 7B68     		ldr	r3, [r7, #4]
 110 0090 5A73     		strb	r2, [r3, #13]
 111              	.L5:
 112 0092 FB89     		ldrh	r3, [r7, #14]
 113 0094 082B     		cmp	r3, #8
 114 0096 03D0     		beq	.L7
 115 0098 B3F5C16F 		cmp	r3, #1544
 116 009c 14D0     		beq	.L8
 117 009e 32E0     		b	.L3
ARM GAS  C:\msys64\tmp\ccivjpdh.s 			page 3


 118              	.L7:
 119 00a0 3B68     		ldr	r3, [r7]
 120 00a2 93F82D30 		ldrb	r3, [r3, #45]	@ zero_extendqisi2
 121 00a6 03F00803 		and	r3, r3, #8
 122 00aa 002B     		cmp	r3, #0
 123 00ac 24D0     		beq	.L17
 124 00ae FB8A     		ldrh	r3, [r7, #22]
 125 00b0 1946     		mov	r1, r3
 126 00b2 7868     		ldr	r0, [r7, #4]
 127 00b4 FFF7FEFF 		bl	pbuf_remove_header
 128 00b8 0346     		mov	r3, r0
 129 00ba 002B     		cmp	r3, #0
 130 00bc 1ED1     		bne	.L18
 131 00be 3968     		ldr	r1, [r7]
 132 00c0 7868     		ldr	r0, [r7, #4]
 133 00c2 FFF7FEFF 		bl	ip4_input
 134 00c6 13E0     		b	.L12
 135              	.L8:
 136 00c8 3B68     		ldr	r3, [r7]
 137 00ca 93F82D30 		ldrb	r3, [r3, #45]	@ zero_extendqisi2
 138 00ce 03F00803 		and	r3, r3, #8
 139 00d2 002B     		cmp	r3, #0
 140 00d4 14D0     		beq	.L19
 141 00d6 FB8A     		ldrh	r3, [r7, #22]
 142 00d8 1946     		mov	r1, r3
 143 00da 7868     		ldr	r0, [r7, #4]
 144 00dc FFF7FEFF 		bl	pbuf_remove_header
 145 00e0 0346     		mov	r3, r0
 146 00e2 002B     		cmp	r3, #0
 147 00e4 0ED1     		bne	.L20
 148 00e6 3968     		ldr	r1, [r7]
 149 00e8 7868     		ldr	r0, [r7, #4]
 150 00ea FFF7FEFF 		bl	etharp_input
 151 00ee 00BF     		nop
 152              	.L12:
 153 00f0 0023     		movs	r3, #0
 154 00f2 0CE0     		b	.L15
 155              	.L16:
 156 00f4 00BF     		nop
 157 00f6 06E0     		b	.L3
 158              	.L17:
 159 00f8 00BF     		nop
 160 00fa 04E0     		b	.L3
 161              	.L18:
 162 00fc 00BF     		nop
 163 00fe 02E0     		b	.L3
 164              	.L19:
 165 0100 00BF     		nop
 166 0102 00E0     		b	.L3
 167              	.L20:
 168 0104 00BF     		nop
 169              	.L3:
 170 0106 7868     		ldr	r0, [r7, #4]
 171 0108 FFF7FEFF 		bl	pbuf_free
 172 010c 0023     		movs	r3, #0
 173              	.L15:
 174 010e 1846     		mov	r0, r3
ARM GAS  C:\msys64\tmp\ccivjpdh.s 			page 4


 175 0110 1837     		adds	r7, r7, #24
 176 0112 BD46     		mov	sp, r7
 177              		@ sp needed
 178 0114 80BD     		pop	{r7, pc}
 179              	.L22:
 180 0116 00BF     		.align	2
 181              	.L21:
 182 0118 00000000 		.word	ethbroadcast
 184              		.section	.rodata
 185              		.align	2
 186              	.LC0:
 187 0000 4D696464 		.ascii	"Middlewares/stm32f746_lwip_withos_porting/LWIP/src/"
 187      6C657761 
 187      7265732F 
 187      73746D33 
 187      32663734 
 188 0033 6E657469 		.ascii	"netif/ethernet.c\000"
 188      662F6574 
 188      6865726E 
 188      65742E63 
 188      00
 189              		.align	2
 190              	.LC1:
 191 0044 6E657469 		.ascii	"netif->hwaddr_len must be 6 for ethernet_output!\000"
 191      662D3E68 
 191      77616464 
 191      725F6C65 
 191      6E206D75 
 192 0075 000000   		.align	2
 193              	.LC2:
 194 0078 41737365 		.ascii	"Assertion \"%s\" failed at line %d in %s\012\000"
 194      7274696F 
 194      6E202225 
 194      73222066 
 194      61696C65 
 195              		.section	.text.ethernet_output,"ax",%progbits
 196              		.align	1
 197              		.global	ethernet_output
 198              		.syntax unified
 199              		.thumb
 200              		.thumb_func
 202              	ethernet_output:
 203              		@ args = 4, pretend = 0, frame = 24
 204              		@ frame_needed = 1, uses_anonymous_args = 0
 205 0000 80B5     		push	{r7, lr}
 206 0002 86B0     		sub	sp, sp, #24
 207 0004 00AF     		add	r7, sp, #0
 208 0006 F860     		str	r0, [r7, #12]
 209 0008 B960     		str	r1, [r7, #8]
 210 000a 7A60     		str	r2, [r7, #4]
 211 000c 3B60     		str	r3, [r7]
 212 000e 3B8C     		ldrh	r3, [r7, #32]
 213 0010 1846     		mov	r0, r3
 214 0012 FFF7FEFF 		bl	lwip_htons
 215 0016 0346     		mov	r3, r0
 216 0018 FB82     		strh	r3, [r7, #22]	@ movhi
 217 001a 0E21     		movs	r1, #14
ARM GAS  C:\msys64\tmp\ccivjpdh.s 			page 5


 218 001c B868     		ldr	r0, [r7, #8]
 219 001e FFF7FEFF 		bl	pbuf_add_header
 220 0022 0346     		mov	r3, r0
 221 0024 002B     		cmp	r3, #0
 222 0026 25D1     		bne	.L29
 223 0028 BB68     		ldr	r3, [r7, #8]
 224 002a 5B68     		ldr	r3, [r3, #4]
 225 002c 3B61     		str	r3, [r7, #16]
 226 002e 3B69     		ldr	r3, [r7, #16]
 227 0030 FA8A     		ldrh	r2, [r7, #22]	@ movhi
 228 0032 9A81     		strh	r2, [r3, #12]	@ unaligned
 229 0034 3B69     		ldr	r3, [r7, #16]
 230 0036 0622     		movs	r2, #6
 231 0038 3968     		ldr	r1, [r7]
 232 003a 1846     		mov	r0, r3
 233 003c FFF7FEFF 		bl	memcpy
 234 0040 3B69     		ldr	r3, [r7, #16]
 235 0042 0633     		adds	r3, r3, #6
 236 0044 0622     		movs	r2, #6
 237 0046 7968     		ldr	r1, [r7, #4]
 238 0048 1846     		mov	r0, r3
 239 004a FFF7FEFF 		bl	memcpy
 240 004e FB68     		ldr	r3, [r7, #12]
 241 0050 93F82C30 		ldrb	r3, [r3, #44]	@ zero_extendqisi2
 242 0054 062B     		cmp	r3, #6
 243 0056 06D0     		beq	.L26
 244 0058 0A4B     		ldr	r3, .L30
 245 005a 4FF49972 		mov	r2, #306
 246 005e 0A49     		ldr	r1, .L30+4
 247 0060 0A48     		ldr	r0, .L30+8
 248 0062 FFF7FEFF 		bl	printf
 249              	.L26:
 250 0066 FB68     		ldr	r3, [r7, #12]
 251 0068 9B69     		ldr	r3, [r3, #24]
 252 006a B968     		ldr	r1, [r7, #8]
 253 006c F868     		ldr	r0, [r7, #12]
 254 006e 9847     		blx	r3
 255 0070 0346     		mov	r3, r0
 256 0072 02E0     		b	.L27
 257              	.L29:
 258 0074 00BF     		nop
 259              	.L25:
 260 0076 6FF00103 		mvn	r3, #1
 261              	.L27:
 262 007a 1846     		mov	r0, r3
 263 007c 1837     		adds	r7, r7, #24
 264 007e BD46     		mov	sp, r7
 265              		@ sp needed
 266 0080 80BD     		pop	{r7, pc}
 267              	.L31:
 268 0082 00BF     		.align	2
 269              	.L30:
 270 0084 00000000 		.word	.LC0
 271 0088 44000000 		.word	.LC1
 272 008c 78000000 		.word	.LC2
 274              		.ident	"GCC: (GNU) 13.3.0"
ARM GAS  C:\msys64\tmp\ccivjpdh.s 			page 6


DEFINED SYMBOLS
                            *ABS*:00000000 ethernet.c
C:\msys64\tmp\ccivjpdh.s:22     .rodata.ethbroadcast:00000000 ethbroadcast
C:\msys64\tmp\ccivjpdh.s:19     .rodata.ethbroadcast:00000000 $d
C:\msys64\tmp\ccivjpdh.s:29     .rodata.ethzero:00000000 ethzero
C:\msys64\tmp\ccivjpdh.s:26     .rodata.ethzero:00000000 $d
C:\msys64\tmp\ccivjpdh.s:32     .text.ethernet_input:00000000 $t
C:\msys64\tmp\ccivjpdh.s:38     .text.ethernet_input:00000000 ethernet_input
C:\msys64\tmp\ccivjpdh.s:182    .text.ethernet_input:00000118 $d
C:\msys64\tmp\ccivjpdh.s:185    .rodata:00000000 $d
C:\msys64\tmp\ccivjpdh.s:196    .text.ethernet_output:00000000 $t
C:\msys64\tmp\ccivjpdh.s:202    .text.ethernet_output:00000000 ethernet_output
C:\msys64\tmp\ccivjpdh.s:270    .text.ethernet_output:00000084 $d

UNDEFINED SYMBOLS
memcmp
pbuf_remove_header
ip4_input
etharp_input
pbuf_free
lwip_htons
pbuf_add_header
memcpy
printf
