ARM GAS  C:\msys64\tmp\ccRt9OJA.s 			page 1


   1              		.cpu cortex-m7
   2              		.arch armv7e-m
   3              		.fpu fpv5-sp-d16
   4              		.eabi_attribute 27, 1
   5              		.eabi_attribute 28, 1
   6              		.eabi_attribute 20, 1
   7              		.eabi_attribute 21, 1
   8              		.eabi_attribute 23, 3
   9              		.eabi_attribute 24, 1
  10              		.eabi_attribute 25, 1
  11              		.eabi_attribute 26, 1
  12              		.eabi_attribute 30, 6
  13              		.eabi_attribute 34, 1
  14              		.eabi_attribute 18, 4
  15              		.file	"tcpip.c"
  16              		.text
  17              		.section	.bss.tcpip_init_done,"aw",%nobits
  18              		.align	2
  21              	tcpip_init_done:
  22 0000 00000000 		.space	4
  23              		.section	.bss.tcpip_init_done_arg,"aw",%nobits
  24              		.align	2
  27              	tcpip_init_done_arg:
  28 0000 00000000 		.space	4
  29              		.section	.bss.tcpip_mbox,"aw",%nobits
  30              		.align	2
  33              	tcpip_mbox:
  34 0000 00000000 		.space	4
  35              		.section	.text.tcpip_timeouts_mbox_fetch,"ax",%progbits
  36              		.align	1
  37              		.syntax unified
  38              		.thumb
  39              		.thumb_func
  41              	tcpip_timeouts_mbox_fetch:
  42              		@ args = 0, pretend = 0, frame = 16
  43              		@ frame_needed = 1, uses_anonymous_args = 0
  44 0000 80B5     		push	{r7, lr}
  45 0002 84B0     		sub	sp, sp, #16
  46 0004 00AF     		add	r7, sp, #0
  47 0006 7860     		str	r0, [r7, #4]
  48 0008 3960     		str	r1, [r7]
  49              	.L3:
  50              	.L2:
  51 000a FFF7FEFF 		bl	sys_timeouts_sleeptime
  52 000e F860     		str	r0, [r7, #12]
  53 0010 FB68     		ldr	r3, [r7, #12]
  54 0012 B3F1FF3F 		cmp	r3, #-1
  55 0016 05D1     		bne	.L4
  56 0018 0022     		movs	r2, #0
  57 001a 3968     		ldr	r1, [r7]
  58 001c 7868     		ldr	r0, [r7, #4]
  59 001e FFF7FEFF 		bl	sys_arch_mbox_fetch
  60 0022 12E0     		b	.L1
  61              	.L4:
  62 0024 FB68     		ldr	r3, [r7, #12]
  63 0026 002B     		cmp	r3, #0
  64 0028 02D1     		bne	.L6
ARM GAS  C:\msys64\tmp\ccRt9OJA.s 			page 2


  65 002a FFF7FEFF 		bl	sys_check_timeouts
  66 002e ECE7     		b	.L2
  67              	.L6:
  68 0030 FA68     		ldr	r2, [r7, #12]
  69 0032 3968     		ldr	r1, [r7]
  70 0034 7868     		ldr	r0, [r7, #4]
  71 0036 FFF7FEFF 		bl	sys_arch_mbox_fetch
  72 003a B860     		str	r0, [r7, #8]
  73 003c BB68     		ldr	r3, [r7, #8]
  74 003e B3F1FF3F 		cmp	r3, #-1
  75 0042 02D1     		bne	.L1
  76 0044 FFF7FEFF 		bl	sys_check_timeouts
  77 0048 DFE7     		b	.L2
  78              	.L1:
  79 004a 1037     		adds	r7, r7, #16
  80 004c BD46     		mov	sp, r7
  81              		@ sp needed
  82 004e 80BD     		pop	{r7, pc}
  84              		.section	.rodata
  85              		.align	2
  86              	.LC0:
  87 0000 4D696464 		.ascii	"Middlewares/stm32f746_lwip_withos_porting/LWIP/src/"
  87      6C657761 
  87      7265732F 
  87      73746D33 
  87      32663734 
  88 0033 6170692F 		.ascii	"api/tcpip.c\000"
  88      74637069 
  88      702E6300 
  89 003f 00       		.align	2
  90              	.LC1:
  91 0040 74637069 		.ascii	"tcpip_thread: invalid message\000"
  91      705F7468 
  91      72656164 
  91      3A20696E 
  91      76616C69 
  92 005e 0000     		.align	2
  93              	.LC2:
  94 0060 41737365 		.ascii	"Assertion \"%s\" failed at line %d in %s\012\000"
  94      7274696F 
  94      6E202225 
  94      73222066 
  94      61696C65 
  95              		.section	.text.tcpip_thread,"ax",%progbits
  96              		.align	1
  97              		.syntax unified
  98              		.thumb
  99              		.thumb_func
 101              	tcpip_thread:
 102              		@ args = 0, pretend = 0, frame = 16
 103              		@ frame_needed = 1, uses_anonymous_args = 0
 104 0000 80B5     		push	{r7, lr}
 105 0002 84B0     		sub	sp, sp, #16
 106 0004 00AF     		add	r7, sp, #0
 107 0006 7860     		str	r0, [r7, #4]
 108 0008 0F4B     		ldr	r3, .L12
 109 000a 1B68     		ldr	r3, [r3]
ARM GAS  C:\msys64\tmp\ccRt9OJA.s 			page 3


 110 000c 002B     		cmp	r3, #0
 111 000e 05D0     		beq	.L11
 112 0010 0D4B     		ldr	r3, .L12
 113 0012 1B68     		ldr	r3, [r3]
 114 0014 0D4A     		ldr	r2, .L12+4
 115 0016 1268     		ldr	r2, [r2]
 116 0018 1046     		mov	r0, r2
 117 001a 9847     		blx	r3
 118              	.L11:
 119 001c 07F10C03 		add	r3, r7, #12
 120 0020 1946     		mov	r1, r3
 121 0022 0B48     		ldr	r0, .L12+8
 122 0024 FFF7FEFF 		bl	tcpip_timeouts_mbox_fetch
 123 0028 FB68     		ldr	r3, [r7, #12]
 124 002a 002B     		cmp	r3, #0
 125 002c 06D1     		bne	.L9
 126 002e 094B     		ldr	r3, .L12+12
 127 0030 9122     		movs	r2, #145
 128 0032 0949     		ldr	r1, .L12+16
 129 0034 0948     		ldr	r0, .L12+20
 130 0036 FFF7FEFF 		bl	printf
 131 003a 03E0     		b	.L10
 132              	.L9:
 133 003c FB68     		ldr	r3, [r7, #12]
 134 003e 1846     		mov	r0, r3
 135 0040 FFF7FEFF 		bl	tcpip_thread_handle_msg
 136              	.L10:
 137 0044 EAE7     		b	.L11
 138              	.L13:
 139 0046 00BF     		.align	2
 140              	.L12:
 141 0048 00000000 		.word	tcpip_init_done
 142 004c 00000000 		.word	tcpip_init_done_arg
 143 0050 00000000 		.word	tcpip_mbox
 144 0054 00000000 		.word	.LC0
 145 0058 40000000 		.word	.LC1
 146 005c 60000000 		.word	.LC2
 148              		.section	.text.tcpip_thread_handle_msg,"ax",%progbits
 149              		.align	1
 150              		.syntax unified
 151              		.thumb
 152              		.thumb_func
 154              	tcpip_thread_handle_msg:
 155              		@ args = 0, pretend = 0, frame = 8
 156              		@ frame_needed = 1, uses_anonymous_args = 0
 157 0000 90B5     		push	{r4, r7, lr}
 158 0002 83B0     		sub	sp, sp, #12
 159 0004 00AF     		add	r7, sp, #0
 160 0006 7860     		str	r0, [r7, #4]
 161 0008 7B68     		ldr	r3, [r7, #4]
 162 000a 1B78     		ldrb	r3, [r3]	@ zero_extendqisi2
 163 000c 042B     		cmp	r3, #4
 164 000e 4BD8     		bhi	.L24
 165 0010 01A2     		adr	r2, .L17
 166 0012 52F823F0 		ldr	pc, [r2, r3, lsl #2]
 167 0016 00BF     		.p2align 2
 168              	.L17:
ARM GAS  C:\msys64\tmp\ccRt9OJA.s 			page 4


 169 0018 2D000000 		.word	.L21+1
 170 001c 3B000000 		.word	.L20+1
 171 0020 5B000000 		.word	.L19+1
 172 0024 85000000 		.word	.L18+1
 173 0028 9B000000 		.word	.L16+1
 174              		.p2align 1
 175              	.L21:
 176 002c 7B68     		ldr	r3, [r7, #4]
 177 002e 5B68     		ldr	r3, [r3, #4]
 178 0030 7A68     		ldr	r2, [r7, #4]
 179 0032 9268     		ldr	r2, [r2, #8]
 180 0034 1046     		mov	r0, r2
 181 0036 9847     		blx	r3
 182 0038 3DE0     		b	.L22
 183              	.L20:
 184 003a 7B68     		ldr	r3, [r7, #4]
 185 003c 5B68     		ldr	r3, [r3, #4]
 186 003e 7A68     		ldr	r2, [r7, #4]
 187 0040 9168     		ldr	r1, [r2, #8]
 188 0042 7A68     		ldr	r2, [r7, #4]
 189 0044 9468     		ldr	r4, [r2, #8]
 190 0046 0846     		mov	r0, r1
 191 0048 9847     		blx	r3
 192 004a 0346     		mov	r3, r0
 193 004c 2370     		strb	r3, [r4]
 194 004e 7B68     		ldr	r3, [r7, #4]
 195 0050 DB68     		ldr	r3, [r3, #12]
 196 0052 1846     		mov	r0, r3
 197 0054 FFF7FEFF 		bl	sys_sem_signal
 198 0058 2DE0     		b	.L22
 199              	.L19:
 200 005a 7B68     		ldr	r3, [r7, #4]
 201 005c DB68     		ldr	r3, [r3, #12]
 202 005e 7A68     		ldr	r2, [r7, #4]
 203 0060 5068     		ldr	r0, [r2, #4]
 204 0062 7A68     		ldr	r2, [r7, #4]
 205 0064 9268     		ldr	r2, [r2, #8]
 206 0066 1146     		mov	r1, r2
 207 0068 9847     		blx	r3
 208 006a 0346     		mov	r3, r0
 209 006c 002B     		cmp	r3, #0
 210 006e 04D0     		beq	.L23
 211 0070 7B68     		ldr	r3, [r7, #4]
 212 0072 5B68     		ldr	r3, [r3, #4]
 213 0074 1846     		mov	r0, r3
 214 0076 FFF7FEFF 		bl	pbuf_free
 215              	.L23:
 216 007a 7968     		ldr	r1, [r7, #4]
 217 007c 0320     		movs	r0, #3
 218 007e FFF7FEFF 		bl	memp_free
 219 0082 18E0     		b	.L22
 220              	.L18:
 221 0084 7B68     		ldr	r3, [r7, #4]
 222 0086 5B68     		ldr	r3, [r3, #4]
 223 0088 7A68     		ldr	r2, [r7, #4]
 224 008a 9268     		ldr	r2, [r2, #8]
 225 008c 1046     		mov	r0, r2
ARM GAS  C:\msys64\tmp\ccRt9OJA.s 			page 5


 226 008e 9847     		blx	r3
 227 0090 7968     		ldr	r1, [r7, #4]
 228 0092 0220     		movs	r0, #2
 229 0094 FFF7FEFF 		bl	memp_free
 230 0098 0DE0     		b	.L22
 231              	.L16:
 232 009a 7B68     		ldr	r3, [r7, #4]
 233 009c 5B68     		ldr	r3, [r3, #4]
 234 009e 7A68     		ldr	r2, [r7, #4]
 235 00a0 9268     		ldr	r2, [r2, #8]
 236 00a2 1046     		mov	r0, r2
 237 00a4 9847     		blx	r3
 238 00a6 06E0     		b	.L22
 239              	.L24:
 240 00a8 054B     		ldr	r3, .L25
 241 00aa CF22     		movs	r2, #207
 242 00ac 0549     		ldr	r1, .L25+4
 243 00ae 0648     		ldr	r0, .L25+8
 244 00b0 FFF7FEFF 		bl	printf
 245 00b4 00BF     		nop
 246              	.L22:
 247 00b6 00BF     		nop
 248 00b8 0C37     		adds	r7, r7, #12
 249 00ba BD46     		mov	sp, r7
 250              		@ sp needed
 251 00bc 90BD     		pop	{r4, r7, pc}
 252              	.L26:
 253 00be 00BF     		.align	2
 254              	.L25:
 255 00c0 00000000 		.word	.LC0
 256 00c4 40000000 		.word	.LC1
 257 00c8 60000000 		.word	.LC2
 259              		.section	.rodata
 260              		.align	2
 261              	.LC3:
 262 0088 496E7661 		.ascii	"Invalid mbox\000"
 262      6C696420 
 262      6D626F78 
 262      00
 263              		.section	.text.tcpip_inpkt,"ax",%progbits
 264              		.align	1
 265              		.global	tcpip_inpkt
 266              		.syntax unified
 267              		.thumb
 268              		.thumb_func
 270              	tcpip_inpkt:
 271              		@ args = 0, pretend = 0, frame = 24
 272              		@ frame_needed = 1, uses_anonymous_args = 0
 273 0000 80B5     		push	{r7, lr}
 274 0002 86B0     		sub	sp, sp, #24
 275 0004 00AF     		add	r7, sp, #0
 276 0006 F860     		str	r0, [r7, #12]
 277 0008 B960     		str	r1, [r7, #8]
 278 000a 7A60     		str	r2, [r7, #4]
 279 000c 194B     		ldr	r3, .L32
 280 000e 1B68     		ldr	r3, [r3]
 281 0010 002B     		cmp	r3, #0
ARM GAS  C:\msys64\tmp\ccRt9OJA.s 			page 6


 282 0012 05D1     		bne	.L28
 283 0014 184B     		ldr	r3, .L32+4
 284 0016 FC22     		movs	r2, #252
 285 0018 1849     		ldr	r1, .L32+8
 286 001a 1948     		ldr	r0, .L32+12
 287 001c FFF7FEFF 		bl	printf
 288              	.L28:
 289 0020 0320     		movs	r0, #3
 290 0022 FFF7FEFF 		bl	memp_malloc
 291 0026 7861     		str	r0, [r7, #20]
 292 0028 7B69     		ldr	r3, [r7, #20]
 293 002a 002B     		cmp	r3, #0
 294 002c 02D1     		bne	.L29
 295 002e 4FF0FF33 		mov	r3, #-1
 296 0032 1AE0     		b	.L30
 297              	.L29:
 298 0034 7B69     		ldr	r3, [r7, #20]
 299 0036 0222     		movs	r2, #2
 300 0038 1A70     		strb	r2, [r3]
 301 003a 7B69     		ldr	r3, [r7, #20]
 302 003c FA68     		ldr	r2, [r7, #12]
 303 003e 5A60     		str	r2, [r3, #4]
 304 0040 7B69     		ldr	r3, [r7, #20]
 305 0042 BA68     		ldr	r2, [r7, #8]
 306 0044 9A60     		str	r2, [r3, #8]
 307 0046 7B69     		ldr	r3, [r7, #20]
 308 0048 7A68     		ldr	r2, [r7, #4]
 309 004a DA60     		str	r2, [r3, #12]
 310 004c 7969     		ldr	r1, [r7, #20]
 311 004e 0948     		ldr	r0, .L32
 312 0050 FFF7FEFF 		bl	sys_mbox_trypost
 313 0054 0346     		mov	r3, r0
 314 0056 002B     		cmp	r3, #0
 315 0058 06D0     		beq	.L31
 316 005a 7969     		ldr	r1, [r7, #20]
 317 005c 0320     		movs	r0, #3
 318 005e FFF7FEFF 		bl	memp_free
 319 0062 4FF0FF33 		mov	r3, #-1
 320 0066 00E0     		b	.L30
 321              	.L31:
 322 0068 0023     		movs	r3, #0
 323              	.L30:
 324 006a 1846     		mov	r0, r3
 325 006c 1837     		adds	r7, r7, #24
 326 006e BD46     		mov	sp, r7
 327              		@ sp needed
 328 0070 80BD     		pop	{r7, pc}
 329              	.L33:
 330 0072 00BF     		.align	2
 331              	.L32:
 332 0074 00000000 		.word	tcpip_mbox
 333 0078 00000000 		.word	.LC0
 334 007c 88000000 		.word	.LC3
 335 0080 60000000 		.word	.LC2
 337              		.section	.text.tcpip_input,"ax",%progbits
 338              		.align	1
 339              		.global	tcpip_input
ARM GAS  C:\msys64\tmp\ccRt9OJA.s 			page 7


 340              		.syntax unified
 341              		.thumb
 342              		.thumb_func
 344              	tcpip_input:
 345              		@ args = 0, pretend = 0, frame = 8
 346              		@ frame_needed = 1, uses_anonymous_args = 0
 347 0000 80B5     		push	{r7, lr}
 348 0002 82B0     		sub	sp, sp, #8
 349 0004 00AF     		add	r7, sp, #0
 350 0006 7860     		str	r0, [r7, #4]
 351 0008 3960     		str	r1, [r7]
 352 000a 3B68     		ldr	r3, [r7]
 353 000c 93F82D30 		ldrb	r3, [r3, #45]	@ zero_extendqisi2
 354 0010 03F01803 		and	r3, r3, #24
 355 0014 002B     		cmp	r3, #0
 356 0016 06D0     		beq	.L35
 357 0018 084A     		ldr	r2, .L37
 358 001a 3968     		ldr	r1, [r7]
 359 001c 7868     		ldr	r0, [r7, #4]
 360 001e FFF7FEFF 		bl	tcpip_inpkt
 361 0022 0346     		mov	r3, r0
 362 0024 05E0     		b	.L36
 363              	.L35:
 364 0026 064A     		ldr	r2, .L37+4
 365 0028 3968     		ldr	r1, [r7]
 366 002a 7868     		ldr	r0, [r7, #4]
 367 002c FFF7FEFF 		bl	tcpip_inpkt
 368 0030 0346     		mov	r3, r0
 369              	.L36:
 370 0032 1846     		mov	r0, r3
 371 0034 0837     		adds	r7, r7, #8
 372 0036 BD46     		mov	sp, r7
 373              		@ sp needed
 374 0038 80BD     		pop	{r7, pc}
 375              	.L38:
 376 003a 00BF     		.align	2
 377              	.L37:
 378 003c 00000000 		.word	ethernet_input
 379 0040 00000000 		.word	ip4_input
 381              		.section	.text.tcpip_callback,"ax",%progbits
 382              		.align	1
 383              		.global	tcpip_callback
 384              		.syntax unified
 385              		.thumb
 386              		.thumb_func
 388              	tcpip_callback:
 389              		@ args = 0, pretend = 0, frame = 16
 390              		@ frame_needed = 1, uses_anonymous_args = 0
 391 0000 80B5     		push	{r7, lr}
 392 0002 84B0     		sub	sp, sp, #16
 393 0004 00AF     		add	r7, sp, #0
 394 0006 7860     		str	r0, [r7, #4]
 395 0008 3960     		str	r1, [r7]
 396 000a 134B     		ldr	r3, .L43
 397 000c 1B68     		ldr	r3, [r3]
 398 000e 002B     		cmp	r3, #0
 399 0010 06D1     		bne	.L40
ARM GAS  C:\msys64\tmp\ccRt9OJA.s 			page 8


 400 0012 124B     		ldr	r3, .L43+4
 401 0014 40F23912 		movw	r2, #313
 402 0018 1149     		ldr	r1, .L43+8
 403 001a 1248     		ldr	r0, .L43+12
 404 001c FFF7FEFF 		bl	printf
 405              	.L40:
 406 0020 0220     		movs	r0, #2
 407 0022 FFF7FEFF 		bl	memp_malloc
 408 0026 F860     		str	r0, [r7, #12]
 409 0028 FB68     		ldr	r3, [r7, #12]
 410 002a 002B     		cmp	r3, #0
 411 002c 02D1     		bne	.L41
 412 002e 4FF0FF33 		mov	r3, #-1
 413 0032 0DE0     		b	.L42
 414              	.L41:
 415 0034 FB68     		ldr	r3, [r7, #12]
 416 0036 0322     		movs	r2, #3
 417 0038 1A70     		strb	r2, [r3]
 418 003a FB68     		ldr	r3, [r7, #12]
 419 003c 7A68     		ldr	r2, [r7, #4]
 420 003e 5A60     		str	r2, [r3, #4]
 421 0040 FB68     		ldr	r3, [r7, #12]
 422 0042 3A68     		ldr	r2, [r7]
 423 0044 9A60     		str	r2, [r3, #8]
 424 0046 F968     		ldr	r1, [r7, #12]
 425 0048 0348     		ldr	r0, .L43
 426 004a FFF7FEFF 		bl	sys_mbox_post
 427 004e 0023     		movs	r3, #0
 428              	.L42:
 429 0050 1846     		mov	r0, r3
 430 0052 1037     		adds	r7, r7, #16
 431 0054 BD46     		mov	sp, r7
 432              		@ sp needed
 433 0056 80BD     		pop	{r7, pc}
 434              	.L44:
 435              		.align	2
 436              	.L43:
 437 0058 00000000 		.word	tcpip_mbox
 438 005c 00000000 		.word	.LC0
 439 0060 88000000 		.word	.LC3
 440 0064 60000000 		.word	.LC2
 442              		.section	.text.tcpip_try_callback,"ax",%progbits
 443              		.align	1
 444              		.global	tcpip_try_callback
 445              		.syntax unified
 446              		.thumb
 447              		.thumb_func
 449              	tcpip_try_callback:
 450              		@ args = 0, pretend = 0, frame = 16
 451              		@ frame_needed = 1, uses_anonymous_args = 0
 452 0000 80B5     		push	{r7, lr}
 453 0002 84B0     		sub	sp, sp, #16
 454 0004 00AF     		add	r7, sp, #0
 455 0006 7860     		str	r0, [r7, #4]
 456 0008 3960     		str	r1, [r7]
 457 000a 184B     		ldr	r3, .L50
 458 000c 1B68     		ldr	r3, [r3]
ARM GAS  C:\msys64\tmp\ccRt9OJA.s 			page 9


 459 000e 002B     		cmp	r3, #0
 460 0010 06D1     		bne	.L46
 461 0012 174B     		ldr	r3, .L50+4
 462 0014 40F25D12 		movw	r2, #349
 463 0018 1649     		ldr	r1, .L50+8
 464 001a 1748     		ldr	r0, .L50+12
 465 001c FFF7FEFF 		bl	printf
 466              	.L46:
 467 0020 0220     		movs	r0, #2
 468 0022 FFF7FEFF 		bl	memp_malloc
 469 0026 F860     		str	r0, [r7, #12]
 470 0028 FB68     		ldr	r3, [r7, #12]
 471 002a 002B     		cmp	r3, #0
 472 002c 02D1     		bne	.L47
 473 002e 4FF0FF33 		mov	r3, #-1
 474 0032 17E0     		b	.L48
 475              	.L47:
 476 0034 FB68     		ldr	r3, [r7, #12]
 477 0036 0322     		movs	r2, #3
 478 0038 1A70     		strb	r2, [r3]
 479 003a FB68     		ldr	r3, [r7, #12]
 480 003c 7A68     		ldr	r2, [r7, #4]
 481 003e 5A60     		str	r2, [r3, #4]
 482 0040 FB68     		ldr	r3, [r7, #12]
 483 0042 3A68     		ldr	r2, [r7]
 484 0044 9A60     		str	r2, [r3, #8]
 485 0046 F968     		ldr	r1, [r7, #12]
 486 0048 0848     		ldr	r0, .L50
 487 004a FFF7FEFF 		bl	sys_mbox_trypost
 488 004e 0346     		mov	r3, r0
 489 0050 002B     		cmp	r3, #0
 490 0052 06D0     		beq	.L49
 491 0054 F968     		ldr	r1, [r7, #12]
 492 0056 0220     		movs	r0, #2
 493 0058 FFF7FEFF 		bl	memp_free
 494 005c 4FF0FF33 		mov	r3, #-1
 495 0060 00E0     		b	.L48
 496              	.L49:
 497 0062 0023     		movs	r3, #0
 498              	.L48:
 499 0064 1846     		mov	r0, r3
 500 0066 1037     		adds	r7, r7, #16
 501 0068 BD46     		mov	sp, r7
 502              		@ sp needed
 503 006a 80BD     		pop	{r7, pc}
 504              	.L51:
 505              		.align	2
 506              	.L50:
 507 006c 00000000 		.word	tcpip_mbox
 508 0070 00000000 		.word	.LC0
 509 0074 88000000 		.word	.LC3
 510 0078 60000000 		.word	.LC2
 512              		.section	.rodata
 513 0095 000000   		.align	2
 514              	.LC4:
 515 0098 73656D61 		.ascii	"semaphore not initialized\000"
 515      70686F72 
ARM GAS  C:\msys64\tmp\ccRt9OJA.s 			page 10


 515      65206E6F 
 515      7420696E 
 515      69746961 
 516              		.section	.text.tcpip_send_msg_wait_sem,"ax",%progbits
 517              		.align	1
 518              		.global	tcpip_send_msg_wait_sem
 519              		.syntax unified
 520              		.thumb
 521              		.thumb_func
 523              	tcpip_send_msg_wait_sem:
 524              		@ args = 0, pretend = 0, frame = 32
 525              		@ frame_needed = 1, uses_anonymous_args = 0
 526 0000 80B5     		push	{r7, lr}
 527 0002 88B0     		sub	sp, sp, #32
 528 0004 00AF     		add	r7, sp, #0
 529 0006 F860     		str	r0, [r7, #12]
 530 0008 B960     		str	r1, [r7, #8]
 531 000a 7A60     		str	r2, [r7, #4]
 532 000c 7B68     		ldr	r3, [r7, #4]
 533 000e 002B     		cmp	r3, #0
 534 0010 03D0     		beq	.L53
 535 0012 7B68     		ldr	r3, [r7, #4]
 536 0014 1B68     		ldr	r3, [r3]
 537 0016 002B     		cmp	r3, #0
 538 0018 06D1     		bne	.L54
 539              	.L53:
 540 001a 134B     		ldr	r3, .L57
 541 001c 4FF4E072 		mov	r2, #448
 542 0020 1249     		ldr	r1, .L57+4
 543 0022 1348     		ldr	r0, .L57+8
 544 0024 FFF7FEFF 		bl	printf
 545              	.L54:
 546 0028 124B     		ldr	r3, .L57+12
 547 002a 1B68     		ldr	r3, [r3]
 548 002c 002B     		cmp	r3, #0
 549 002e 06D1     		bne	.L55
 550 0030 0D4B     		ldr	r3, .L57
 551 0032 40F2C112 		movw	r2, #449
 552 0036 1049     		ldr	r1, .L57+16
 553 0038 0D48     		ldr	r0, .L57+8
 554 003a FFF7FEFF 		bl	printf
 555              	.L55:
 556 003e 0023     		movs	r3, #0
 557 0040 3B74     		strb	r3, [r7, #16]
 558 0042 FB68     		ldr	r3, [r7, #12]
 559 0044 7B61     		str	r3, [r7, #20]
 560 0046 BB68     		ldr	r3, [r7, #8]
 561 0048 BB61     		str	r3, [r7, #24]
 562 004a 07F11003 		add	r3, r7, #16
 563 004e 1946     		mov	r1, r3
 564 0050 0848     		ldr	r0, .L57+12
 565 0052 FFF7FEFF 		bl	sys_mbox_post
 566 0056 0021     		movs	r1, #0
 567 0058 7868     		ldr	r0, [r7, #4]
 568 005a FFF7FEFF 		bl	sys_arch_sem_wait
 569 005e 0023     		movs	r3, #0
 570 0060 1846     		mov	r0, r3
ARM GAS  C:\msys64\tmp\ccRt9OJA.s 			page 11


 571 0062 2037     		adds	r7, r7, #32
 572 0064 BD46     		mov	sp, r7
 573              		@ sp needed
 574 0066 80BD     		pop	{r7, pc}
 575              	.L58:
 576              		.align	2
 577              	.L57:
 578 0068 00000000 		.word	.LC0
 579 006c 98000000 		.word	.LC4
 580 0070 60000000 		.word	.LC2
 581 0074 00000000 		.word	tcpip_mbox
 582 0078 88000000 		.word	.LC3
 584              		.section	.text.tcpip_api_call,"ax",%progbits
 585              		.align	1
 586              		.global	tcpip_api_call
 587              		.syntax unified
 588              		.thumb
 589              		.thumb_func
 591              	tcpip_api_call:
 592              		@ args = 0, pretend = 0, frame = 32
 593              		@ frame_needed = 1, uses_anonymous_args = 0
 594 0000 80B5     		push	{r7, lr}
 595 0002 88B0     		sub	sp, sp, #32
 596 0004 00AF     		add	r7, sp, #0
 597 0006 7860     		str	r0, [r7, #4]
 598 0008 3960     		str	r1, [r7]
 599 000a 3B68     		ldr	r3, [r7]
 600 000c 0433     		adds	r3, r3, #4
 601 000e 0021     		movs	r1, #0
 602 0010 1846     		mov	r0, r3
 603 0012 FFF7FEFF 		bl	sys_sem_new
 604 0016 0346     		mov	r3, r0
 605 0018 FB77     		strb	r3, [r7, #31]
 606 001a 97F91F30 		ldrsb	r3, [r7, #31]
 607 001e 002B     		cmp	r3, #0
 608 0020 02D0     		beq	.L60
 609 0022 97F91F30 		ldrsb	r3, [r7, #31]
 610 0026 26E0     		b	.L63
 611              	.L60:
 612 0028 154B     		ldr	r3, .L64
 613 002a 1B68     		ldr	r3, [r3]
 614 002c 002B     		cmp	r3, #0
 615 002e 06D1     		bne	.L62
 616 0030 144B     		ldr	r3, .L64+4
 617 0032 40F2EB12 		movw	r2, #491
 618 0036 1449     		ldr	r1, .L64+8
 619 0038 1448     		ldr	r0, .L64+12
 620 003a FFF7FEFF 		bl	printf
 621              	.L62:
 622 003e 0123     		movs	r3, #1
 623 0040 3B73     		strb	r3, [r7, #12]
 624 0042 3B68     		ldr	r3, [r7]
 625 0044 7B61     		str	r3, [r7, #20]
 626 0046 7B68     		ldr	r3, [r7, #4]
 627 0048 3B61     		str	r3, [r7, #16]
 628 004a 3B68     		ldr	r3, [r7]
 629 004c 0433     		adds	r3, r3, #4
ARM GAS  C:\msys64\tmp\ccRt9OJA.s 			page 12


 630 004e BB61     		str	r3, [r7, #24]
 631 0050 07F10C03 		add	r3, r7, #12
 632 0054 1946     		mov	r1, r3
 633 0056 0A48     		ldr	r0, .L64
 634 0058 FFF7FEFF 		bl	sys_mbox_post
 635 005c BB69     		ldr	r3, [r7, #24]
 636 005e 0021     		movs	r1, #0
 637 0060 1846     		mov	r0, r3
 638 0062 FFF7FEFF 		bl	sys_arch_sem_wait
 639 0066 3B68     		ldr	r3, [r7]
 640 0068 0433     		adds	r3, r3, #4
 641 006a 1846     		mov	r0, r3
 642 006c FFF7FEFF 		bl	sys_sem_free
 643 0070 3B68     		ldr	r3, [r7]
 644 0072 93F90030 		ldrsb	r3, [r3]
 645              	.L63:
 646 0076 1846     		mov	r0, r3
 647 0078 2037     		adds	r7, r7, #32
 648 007a BD46     		mov	sp, r7
 649              		@ sp needed
 650 007c 80BD     		pop	{r7, pc}
 651              	.L65:
 652 007e 00BF     		.align	2
 653              	.L64:
 654 0080 00000000 		.word	tcpip_mbox
 655 0084 00000000 		.word	.LC0
 656 0088 88000000 		.word	.LC3
 657 008c 60000000 		.word	.LC2
 659              		.section	.text.tcpip_callbackmsg_new,"ax",%progbits
 660              		.align	1
 661              		.global	tcpip_callbackmsg_new
 662              		.syntax unified
 663              		.thumb
 664              		.thumb_func
 666              	tcpip_callbackmsg_new:
 667              		@ args = 0, pretend = 0, frame = 16
 668              		@ frame_needed = 1, uses_anonymous_args = 0
 669 0000 80B5     		push	{r7, lr}
 670 0002 84B0     		sub	sp, sp, #16
 671 0004 00AF     		add	r7, sp, #0
 672 0006 7860     		str	r0, [r7, #4]
 673 0008 3960     		str	r1, [r7]
 674 000a 0220     		movs	r0, #2
 675 000c FFF7FEFF 		bl	memp_malloc
 676 0010 F860     		str	r0, [r7, #12]
 677 0012 FB68     		ldr	r3, [r7, #12]
 678 0014 002B     		cmp	r3, #0
 679 0016 01D1     		bne	.L67
 680 0018 0023     		movs	r3, #0
 681 001a 09E0     		b	.L68
 682              	.L67:
 683 001c FB68     		ldr	r3, [r7, #12]
 684 001e 0422     		movs	r2, #4
 685 0020 1A70     		strb	r2, [r3]
 686 0022 FB68     		ldr	r3, [r7, #12]
 687 0024 7A68     		ldr	r2, [r7, #4]
 688 0026 5A60     		str	r2, [r3, #4]
ARM GAS  C:\msys64\tmp\ccRt9OJA.s 			page 13


 689 0028 FB68     		ldr	r3, [r7, #12]
 690 002a 3A68     		ldr	r2, [r7]
 691 002c 9A60     		str	r2, [r3, #8]
 692 002e FB68     		ldr	r3, [r7, #12]
 693              	.L68:
 694 0030 1846     		mov	r0, r3
 695 0032 1037     		adds	r7, r7, #16
 696 0034 BD46     		mov	sp, r7
 697              		@ sp needed
 698 0036 80BD     		pop	{r7, pc}
 700              		.section	.text.tcpip_callbackmsg_delete,"ax",%progbits
 701              		.align	1
 702              		.global	tcpip_callbackmsg_delete
 703              		.syntax unified
 704              		.thumb
 705              		.thumb_func
 707              	tcpip_callbackmsg_delete:
 708              		@ args = 0, pretend = 0, frame = 8
 709              		@ frame_needed = 1, uses_anonymous_args = 0
 710 0000 80B5     		push	{r7, lr}
 711 0002 82B0     		sub	sp, sp, #8
 712 0004 00AF     		add	r7, sp, #0
 713 0006 7860     		str	r0, [r7, #4]
 714 0008 7968     		ldr	r1, [r7, #4]
 715 000a 0220     		movs	r0, #2
 716 000c FFF7FEFF 		bl	memp_free
 717 0010 00BF     		nop
 718 0012 0837     		adds	r7, r7, #8
 719 0014 BD46     		mov	sp, r7
 720              		@ sp needed
 721 0016 80BD     		pop	{r7, pc}
 723              		.section	.text.tcpip_callbackmsg_trycallback,"ax",%progbits
 724              		.align	1
 725              		.global	tcpip_callbackmsg_trycallback
 726              		.syntax unified
 727              		.thumb
 728              		.thumb_func
 730              	tcpip_callbackmsg_trycallback:
 731              		@ args = 0, pretend = 0, frame = 8
 732              		@ frame_needed = 1, uses_anonymous_args = 0
 733 0000 80B5     		push	{r7, lr}
 734 0002 82B0     		sub	sp, sp, #8
 735 0004 00AF     		add	r7, sp, #0
 736 0006 7860     		str	r0, [r7, #4]
 737 0008 094B     		ldr	r3, .L73
 738 000a 1B68     		ldr	r3, [r3]
 739 000c 002B     		cmp	r3, #0
 740 000e 06D1     		bne	.L71
 741 0010 084B     		ldr	r3, .L73+4
 742 0012 40F23922 		movw	r2, #569
 743 0016 0849     		ldr	r1, .L73+8
 744 0018 0848     		ldr	r0, .L73+12
 745 001a FFF7FEFF 		bl	printf
 746              	.L71:
 747 001e 7968     		ldr	r1, [r7, #4]
 748 0020 0348     		ldr	r0, .L73
 749 0022 FFF7FEFF 		bl	sys_mbox_trypost
ARM GAS  C:\msys64\tmp\ccRt9OJA.s 			page 14


 750 0026 0346     		mov	r3, r0
 751 0028 1846     		mov	r0, r3
 752 002a 0837     		adds	r7, r7, #8
 753 002c BD46     		mov	sp, r7
 754              		@ sp needed
 755 002e 80BD     		pop	{r7, pc}
 756              	.L74:
 757              		.align	2
 758              	.L73:
 759 0030 00000000 		.word	tcpip_mbox
 760 0034 00000000 		.word	.LC0
 761 0038 88000000 		.word	.LC3
 762 003c 60000000 		.word	.LC2
 764              		.section	.text.tcpip_callbackmsg_trycallback_fromisr,"ax",%progbits
 765              		.align	1
 766              		.global	tcpip_callbackmsg_trycallback_fromisr
 767              		.syntax unified
 768              		.thumb
 769              		.thumb_func
 771              	tcpip_callbackmsg_trycallback_fromisr:
 772              		@ args = 0, pretend = 0, frame = 8
 773              		@ frame_needed = 1, uses_anonymous_args = 0
 774 0000 80B5     		push	{r7, lr}
 775 0002 82B0     		sub	sp, sp, #8
 776 0004 00AF     		add	r7, sp, #0
 777 0006 7860     		str	r0, [r7, #4]
 778 0008 094B     		ldr	r3, .L78
 779 000a 1B68     		ldr	r3, [r3]
 780 000c 002B     		cmp	r3, #0
 781 000e 06D1     		bne	.L76
 782 0010 084B     		ldr	r3, .L78+4
 783 0012 4FF41372 		mov	r2, #588
 784 0016 0849     		ldr	r1, .L78+8
 785 0018 0848     		ldr	r0, .L78+12
 786 001a FFF7FEFF 		bl	printf
 787              	.L76:
 788 001e 7968     		ldr	r1, [r7, #4]
 789 0020 0348     		ldr	r0, .L78
 790 0022 FFF7FEFF 		bl	sys_mbox_trypost_fromisr
 791 0026 0346     		mov	r3, r0
 792 0028 1846     		mov	r0, r3
 793 002a 0837     		adds	r7, r7, #8
 794 002c BD46     		mov	sp, r7
 795              		@ sp needed
 796 002e 80BD     		pop	{r7, pc}
 797              	.L79:
 798              		.align	2
 799              	.L78:
 800 0030 00000000 		.word	tcpip_mbox
 801 0034 00000000 		.word	.LC0
 802 0038 88000000 		.word	.LC3
 803 003c 60000000 		.word	.LC2
 805              		.section	.rodata
 806 00b2 0000     		.align	2
 807              	.LC5:
 808 00b4 6661696C 		.ascii	"failed to create tcpip_thread mbox\000"
 808      65642074 
ARM GAS  C:\msys64\tmp\ccRt9OJA.s 			page 15


 808      6F206372 
 808      65617465 
 808      20746370 
 809 00d7 00       		.align	2
 810              	.LC6:
 811 00d8 74637069 		.ascii	"tcpip_thread\000"
 811      705F7468 
 811      72656164 
 811      00
 812              		.section	.text.tcpip_init,"ax",%progbits
 813              		.align	1
 814              		.global	tcpip_init
 815              		.syntax unified
 816              		.thumb
 817              		.thumb_func
 819              	tcpip_init:
 820              		@ args = 0, pretend = 0, frame = 8
 821              		@ frame_needed = 1, uses_anonymous_args = 0
 822 0000 80B5     		push	{r7, lr}
 823 0002 84B0     		sub	sp, sp, #16
 824 0004 02AF     		add	r7, sp, #8
 825 0006 7860     		str	r0, [r7, #4]
 826 0008 3960     		str	r1, [r7]
 827 000a FFF7FEFF 		bl	lwip_init
 828 000e 104A     		ldr	r2, .L82
 829 0010 7B68     		ldr	r3, [r7, #4]
 830 0012 1360     		str	r3, [r2]
 831 0014 0F4A     		ldr	r2, .L82+4
 832 0016 3B68     		ldr	r3, [r7]
 833 0018 1360     		str	r3, [r2]
 834 001a 0A21     		movs	r1, #10
 835 001c 0E48     		ldr	r0, .L82+8
 836 001e FFF7FEFF 		bl	sys_mbox_new
 837 0022 0346     		mov	r3, r0
 838 0024 002B     		cmp	r3, #0
 839 0026 06D0     		beq	.L81
 840 0028 0C4B     		ldr	r3, .L82+12
 841 002a 40F26122 		movw	r2, #609
 842 002e 0C49     		ldr	r1, .L82+16
 843 0030 0C48     		ldr	r0, .L82+20
 844 0032 FFF7FEFF 		bl	printf
 845              	.L81:
 846 0036 0123     		movs	r3, #1
 847 0038 0093     		str	r3, [sp]
 848 003a 0023     		movs	r3, #0
 849 003c 0022     		movs	r2, #0
 850 003e 0A49     		ldr	r1, .L82+24
 851 0040 0A48     		ldr	r0, .L82+28
 852 0042 FFF7FEFF 		bl	sys_thread_new
 853 0046 00BF     		nop
 854 0048 0837     		adds	r7, r7, #8
 855 004a BD46     		mov	sp, r7
 856              		@ sp needed
 857 004c 80BD     		pop	{r7, pc}
 858              	.L83:
 859 004e 00BF     		.align	2
 860              	.L82:
ARM GAS  C:\msys64\tmp\ccRt9OJA.s 			page 16


 861 0050 00000000 		.word	tcpip_init_done
 862 0054 00000000 		.word	tcpip_init_done_arg
 863 0058 00000000 		.word	tcpip_mbox
 864 005c 00000000 		.word	.LC0
 865 0060 B4000000 		.word	.LC5
 866 0064 60000000 		.word	.LC2
 867 0068 00000000 		.word	tcpip_thread
 868 006c D8000000 		.word	.LC6
 870              		.section	.text.pbuf_free_int,"ax",%progbits
 871              		.align	1
 872              		.syntax unified
 873              		.thumb
 874              		.thumb_func
 876              	pbuf_free_int:
 877              		@ args = 0, pretend = 0, frame = 16
 878              		@ frame_needed = 1, uses_anonymous_args = 0
 879 0000 80B5     		push	{r7, lr}
 880 0002 84B0     		sub	sp, sp, #16
 881 0004 00AF     		add	r7, sp, #0
 882 0006 7860     		str	r0, [r7, #4]
 883 0008 7B68     		ldr	r3, [r7, #4]
 884 000a FB60     		str	r3, [r7, #12]
 885 000c F868     		ldr	r0, [r7, #12]
 886 000e FFF7FEFF 		bl	pbuf_free
 887 0012 00BF     		nop
 888 0014 1037     		adds	r7, r7, #16
 889 0016 BD46     		mov	sp, r7
 890              		@ sp needed
 891 0018 80BD     		pop	{r7, pc}
 893              		.section	.text.pbuf_free_callback,"ax",%progbits
 894              		.align	1
 895              		.global	pbuf_free_callback
 896              		.syntax unified
 897              		.thumb
 898              		.thumb_func
 900              	pbuf_free_callback:
 901              		@ args = 0, pretend = 0, frame = 8
 902              		@ frame_needed = 1, uses_anonymous_args = 0
 903 0000 80B5     		push	{r7, lr}
 904 0002 82B0     		sub	sp, sp, #8
 905 0004 00AF     		add	r7, sp, #0
 906 0006 7860     		str	r0, [r7, #4]
 907 0008 7968     		ldr	r1, [r7, #4]
 908 000a 0448     		ldr	r0, .L87
 909 000c FFF7FEFF 		bl	tcpip_try_callback
 910 0010 0346     		mov	r3, r0
 911 0012 1846     		mov	r0, r3
 912 0014 0837     		adds	r7, r7, #8
 913 0016 BD46     		mov	sp, r7
 914              		@ sp needed
 915 0018 80BD     		pop	{r7, pc}
 916              	.L88:
 917 001a 00BF     		.align	2
 918              	.L87:
 919 001c 00000000 		.word	pbuf_free_int
 921              		.section	.text.mem_free_callback,"ax",%progbits
 922              		.align	1
ARM GAS  C:\msys64\tmp\ccRt9OJA.s 			page 17


 923              		.global	mem_free_callback
 924              		.syntax unified
 925              		.thumb
 926              		.thumb_func
 928              	mem_free_callback:
 929              		@ args = 0, pretend = 0, frame = 8
 930              		@ frame_needed = 1, uses_anonymous_args = 0
 931 0000 80B5     		push	{r7, lr}
 932 0002 82B0     		sub	sp, sp, #8
 933 0004 00AF     		add	r7, sp, #0
 934 0006 7860     		str	r0, [r7, #4]
 935 0008 7968     		ldr	r1, [r7, #4]
 936 000a 0448     		ldr	r0, .L91
 937 000c FFF7FEFF 		bl	tcpip_try_callback
 938 0010 0346     		mov	r3, r0
 939 0012 1846     		mov	r0, r3
 940 0014 0837     		adds	r7, r7, #8
 941 0016 BD46     		mov	sp, r7
 942              		@ sp needed
 943 0018 80BD     		pop	{r7, pc}
 944              	.L92:
 945 001a 00BF     		.align	2
 946              	.L91:
 947 001c 00000000 		.word	mem_free
 949              		.ident	"GCC: (GNU) 13.3.0"
ARM GAS  C:\msys64\tmp\ccRt9OJA.s 			page 18

