ARM GAS  C:\msys64\tmp\ccusKgAq.s 			page 1


   1              		.cpu cortex-m7
   2              		.arch armv7e-m
   3              		.fpu fpv5-sp-d16
   4              		.eabi_attribute 27, 1
   5              		.eabi_attribute 28, 1
   6              		.eabi_attribute 20, 1
   7              		.eabi_attribute 21, 1
   8              		.eabi_attribute 23, 3
   9              		.eabi_attribute 24, 1
  10              		.eabi_attribute 25, 1
  11              		.eabi_attribute 26, 1
  12              		.eabi_attribute 30, 6
  13              		.eabi_attribute 34, 1
  14              		.eabi_attribute 18, 4
  15              		.file	"main.c"
  16              		.text
  17              		.global	huart1
  18              		.section	.bss.huart1,"aw",%nobits
  19              		.align	2
  22              	huart1:
  23 0000 00000000 		.space	136
  23      00000000 
  23      00000000 
  23      00000000 
  23      00000000 
  24              		.section	.text.BlinkTask,"ax",%progbits
  25              		.align	1
  26              		.global	BlinkTask
  27              		.syntax unified
  28              		.thumb
  29              		.thumb_func
  31              	BlinkTask:
  32              		@ args = 0, pretend = 0, frame = 8
  33              		@ frame_needed = 1, uses_anonymous_args = 0
  34 0000 80B5     		push	{r7, lr}
  35 0002 82B0     		sub	sp, sp, #8
  36 0004 00AF     		add	r7, sp, #0
  37 0006 7860     		str	r0, [r7, #4]
  38              	.L2:
  39 0008 0221     		movs	r1, #2
  40 000a 0448     		ldr	r0, .L3
  41 000c FFF7FEFF 		bl	HAL_GPIO_TogglePin
  42 0010 4FF4FA70 		mov	r0, #500
  43 0014 FFF7FEFF 		bl	vTaskDelay
  44 0018 00BF     		nop
  45 001a F5E7     		b	.L2
  46              	.L4:
  47              		.align	2
  48              	.L3:
  49 001c 00200240 		.word	1073881088
  51              		.section	.text.StartLWIPInitTask,"ax",%progbits
  52              		.align	1
  53              		.global	StartLWIPInitTask
  54              		.syntax unified
  55              		.thumb
  56              		.thumb_func
  58              	StartLWIPInitTask:
ARM GAS  C:\msys64\tmp\ccusKgAq.s 			page 2


  59              		@ args = 0, pretend = 0, frame = 8
  60              		@ frame_needed = 1, uses_anonymous_args = 0
  61 0000 80B5     		push	{r7, lr}
  62 0002 82B0     		sub	sp, sp, #8
  63 0004 00AF     		add	r7, sp, #0
  64 0006 7860     		str	r0, [r7, #4]
  65 0008 FFF7FEFF 		bl	MX_LWIP_Init
  66              	.L6:
  67 000c 0A20     		movs	r0, #10
  68 000e FFF7FEFF 		bl	vTaskDelay
  69 0012 FBE7     		b	.L6
  71              		.section	.text.UART_SendString,"ax",%progbits
  72              		.align	1
  73              		.global	UART_SendString
  74              		.syntax unified
  75              		.thumb
  76              		.thumb_func
  78              	UART_SendString:
  79              		@ args = 0, pretend = 0, frame = 8
  80              		@ frame_needed = 1, uses_anonymous_args = 0
  81 0000 80B5     		push	{r7, lr}
  82 0002 82B0     		sub	sp, sp, #8
  83 0004 00AF     		add	r7, sp, #0
  84 0006 7860     		str	r0, [r7, #4]
  85 0008 7B68     		ldr	r3, [r7, #4]
  86 000a 002B     		cmp	r3, #0
  87 000c 0BD0     		beq	.L10
  88 000e 7868     		ldr	r0, [r7, #4]
  89 0010 FFF7FEFF 		bl	strlen
  90 0014 0346     		mov	r3, r0
  91 0016 9AB2     		uxth	r2, r3
  92 0018 4FF0FF33 		mov	r3, #-1
  93 001c 7968     		ldr	r1, [r7, #4]
  94 001e 0448     		ldr	r0, .L11
  95 0020 FFF7FEFF 		bl	HAL_UART_Transmit
  96 0024 00E0     		b	.L7
  97              	.L10:
  98 0026 00BF     		nop
  99              	.L7:
 100 0028 0837     		adds	r7, r7, #8
 101 002a BD46     		mov	sp, r7
 102              		@ sp needed
 103 002c 80BD     		pop	{r7, pc}
 104              	.L12:
 105 002e 00BF     		.align	2
 106              	.L11:
 107 0030 00000000 		.word	huart1
 109              		.section	.text._write,"ax",%progbits
 110              		.align	1
 111              		.global	_write
 112              		.syntax unified
 113              		.thumb
 114              		.thumb_func
 116              	_write:
 117              		@ args = 0, pretend = 0, frame = 16
 118              		@ frame_needed = 1, uses_anonymous_args = 0
 119 0000 80B5     		push	{r7, lr}
ARM GAS  C:\msys64\tmp\ccusKgAq.s 			page 3


 120 0002 84B0     		sub	sp, sp, #16
 121 0004 00AF     		add	r7, sp, #0
 122 0006 F860     		str	r0, [r7, #12]
 123 0008 B960     		str	r1, [r7, #8]
 124 000a 7A60     		str	r2, [r7, #4]
 125 000c 7B68     		ldr	r3, [r7, #4]
 126 000e 9AB2     		uxth	r2, r3
 127 0010 4FF0FF33 		mov	r3, #-1
 128 0014 B968     		ldr	r1, [r7, #8]
 129 0016 0448     		ldr	r0, .L15
 130 0018 FFF7FEFF 		bl	HAL_UART_Transmit
 131 001c 7B68     		ldr	r3, [r7, #4]
 132 001e 1846     		mov	r0, r3
 133 0020 1037     		adds	r7, r7, #16
 134 0022 BD46     		mov	sp, r7
 135              		@ sp needed
 136 0024 80BD     		pop	{r7, pc}
 137              	.L16:
 138 0026 00BF     		.align	2
 139              	.L15:
 140 0028 00000000 		.word	huart1
 142              		.section	.rodata
 143              		.align	2
 144              	.LC0:
 145 0000 4C574950 		.ascii	"LWIP_Init\000"
 145      5F496E69 
 145      7400
 146 000a 0000     		.align	2
 147              	.LC1:
 148 000c 426C696E 		.ascii	"Blink\000"
 148      6B00
 149              		.section	.text.main,"ax",%progbits
 150              		.align	1
 151              		.global	main
 152              		.syntax unified
 153              		.thumb
 154              		.thumb_func
 156              	main:
 157              		@ args = 0, pretend = 0, frame = 0
 158              		@ frame_needed = 1, uses_anonymous_args = 0
 159 0000 80B5     		push	{r7, lr}
 160 0002 82B0     		sub	sp, sp, #8
 161 0004 02AF     		add	r7, sp, #8
 162 0006 FFF7FEFF 		bl	HAL_Init
 163 000a FFF7FEFF 		bl	SystemClock_Config
 164 000e FFF7FEFF 		bl	PeriphCommonClock_Config
 165 0012 FFF7FEFF 		bl	MX_GPIO_Init
 166 0016 FFF7FEFF 		bl	MX_USART1_UART_Init
 167 001a 0023     		movs	r3, #0
 168 001c 0193     		str	r3, [sp, #4]
 169 001e 0123     		movs	r3, #1
 170 0020 0093     		str	r3, [sp]
 171 0022 0023     		movs	r3, #0
 172 0024 4FF48062 		mov	r2, #1024
 173 0028 0849     		ldr	r1, .L19
 174 002a 0948     		ldr	r0, .L19+4
 175 002c FFF7FEFF 		bl	xTaskCreate
ARM GAS  C:\msys64\tmp\ccusKgAq.s 			page 4


 176 0030 0023     		movs	r3, #0
 177 0032 0193     		str	r3, [sp, #4]
 178 0034 0123     		movs	r3, #1
 179 0036 0093     		str	r3, [sp]
 180 0038 0023     		movs	r3, #0
 181 003a 8022     		movs	r2, #128
 182 003c 0549     		ldr	r1, .L19+8
 183 003e 0648     		ldr	r0, .L19+12
 184 0040 FFF7FEFF 		bl	xTaskCreate
 185 0044 FFF7FEFF 		bl	vTaskStartScheduler
 186              	.L18:
 187 0048 00BF     		nop
 188 004a FDE7     		b	.L18
 189              	.L20:
 190              		.align	2
 191              	.L19:
 192 004c 00000000 		.word	.LC0
 193 0050 00000000 		.word	StartLWIPInitTask
 194 0054 0C000000 		.word	.LC1
 195 0058 00000000 		.word	BlinkTask
 197              		.section	.text.SystemClock_Config,"ax",%progbits
 198              		.align	1
 199              		.global	SystemClock_Config
 200              		.syntax unified
 201              		.thumb
 202              		.thumb_func
 204              	SystemClock_Config:
 205              		@ args = 0, pretend = 0, frame = 80
 206              		@ frame_needed = 1, uses_anonymous_args = 0
 207 0000 80B5     		push	{r7, lr}
 208 0002 94B0     		sub	sp, sp, #80
 209 0004 00AF     		add	r7, sp, #0
 210 0006 07F12003 		add	r3, r7, #32
 211 000a 3022     		movs	r2, #48
 212 000c 0021     		movs	r1, #0
 213 000e 1846     		mov	r0, r3
 214 0010 FFF7FEFF 		bl	memset
 215 0014 07F10C03 		add	r3, r7, #12
 216 0018 0022     		movs	r2, #0
 217 001a 1A60     		str	r2, [r3]
 218 001c 5A60     		str	r2, [r3, #4]
 219 001e 9A60     		str	r2, [r3, #8]
 220 0020 DA60     		str	r2, [r3, #12]
 221 0022 1A61     		str	r2, [r3, #16]
 222 0024 FFF7FEFF 		bl	HAL_PWR_EnableBkUpAccess
 223 0028 2C4B     		ldr	r3, .L26
 224 002a 1B6C     		ldr	r3, [r3, #64]
 225 002c 2B4A     		ldr	r2, .L26
 226 002e 43F08053 		orr	r3, r3, #268435456
 227 0032 1364     		str	r3, [r2, #64]
 228 0034 294B     		ldr	r3, .L26
 229 0036 1B6C     		ldr	r3, [r3, #64]
 230 0038 03F08053 		and	r3, r3, #268435456
 231 003c BB60     		str	r3, [r7, #8]
 232 003e BB68     		ldr	r3, [r7, #8]
 233 0040 274B     		ldr	r3, .L26+4
 234 0042 1B68     		ldr	r3, [r3]
ARM GAS  C:\msys64\tmp\ccusKgAq.s 			page 5


 235 0044 264A     		ldr	r2, .L26+4
 236 0046 43F44043 		orr	r3, r3, #49152
 237 004a 1360     		str	r3, [r2]
 238 004c 244B     		ldr	r3, .L26+4
 239 004e 1B68     		ldr	r3, [r3]
 240 0050 03F44043 		and	r3, r3, #49152
 241 0054 7B60     		str	r3, [r7, #4]
 242 0056 7B68     		ldr	r3, [r7, #4]
 243 0058 0923     		movs	r3, #9
 244 005a 3B62     		str	r3, [r7, #32]
 245 005c 4FF48033 		mov	r3, #65536
 246 0060 7B62     		str	r3, [r7, #36]
 247 0062 0123     		movs	r3, #1
 248 0064 7B63     		str	r3, [r7, #52]
 249 0066 0223     		movs	r3, #2
 250 0068 BB63     		str	r3, [r7, #56]
 251 006a 4FF48003 		mov	r3, #4194304
 252 006e FB63     		str	r3, [r7, #60]
 253 0070 1923     		movs	r3, #25
 254 0072 3B64     		str	r3, [r7, #64]
 255 0074 4FF4C873 		mov	r3, #400
 256 0078 7B64     		str	r3, [r7, #68]
 257 007a 0223     		movs	r3, #2
 258 007c BB64     		str	r3, [r7, #72]
 259 007e 0923     		movs	r3, #9
 260 0080 FB64     		str	r3, [r7, #76]
 261 0082 07F12003 		add	r3, r7, #32
 262 0086 1846     		mov	r0, r3
 263 0088 FFF7FEFF 		bl	HAL_RCC_OscConfig
 264 008c 0346     		mov	r3, r0
 265 008e 002B     		cmp	r3, #0
 266 0090 01D0     		beq	.L22
 267 0092 FFF7FEFF 		bl	Error_Handler
 268              	.L22:
 269 0096 FFF7FEFF 		bl	HAL_PWREx_EnableOverDrive
 270 009a 0346     		mov	r3, r0
 271 009c 002B     		cmp	r3, #0
 272 009e 01D0     		beq	.L23
 273 00a0 FFF7FEFF 		bl	Error_Handler
 274              	.L23:
 275 00a4 0F23     		movs	r3, #15
 276 00a6 FB60     		str	r3, [r7, #12]
 277 00a8 0223     		movs	r3, #2
 278 00aa 3B61     		str	r3, [r7, #16]
 279 00ac 0023     		movs	r3, #0
 280 00ae 7B61     		str	r3, [r7, #20]
 281 00b0 4FF4A053 		mov	r3, #5120
 282 00b4 BB61     		str	r3, [r7, #24]
 283 00b6 4FF48053 		mov	r3, #4096
 284 00ba FB61     		str	r3, [r7, #28]
 285 00bc 07F10C03 		add	r3, r7, #12
 286 00c0 0621     		movs	r1, #6
 287 00c2 1846     		mov	r0, r3
 288 00c4 FFF7FEFF 		bl	HAL_RCC_ClockConfig
 289 00c8 0346     		mov	r3, r0
 290 00ca 002B     		cmp	r3, #0
 291 00cc 01D0     		beq	.L25
ARM GAS  C:\msys64\tmp\ccusKgAq.s 			page 6


 292 00ce FFF7FEFF 		bl	Error_Handler
 293              	.L25:
 294 00d2 00BF     		nop
 295 00d4 5037     		adds	r7, r7, #80
 296 00d6 BD46     		mov	sp, r7
 297              		@ sp needed
 298 00d8 80BD     		pop	{r7, pc}
 299              	.L27:
 300 00da 00BF     		.align	2
 301              	.L26:
 302 00dc 00380240 		.word	1073887232
 303 00e0 00700040 		.word	1073770496
 305              		.section	.text.PeriphCommonClock_Config,"ax",%progbits
 306              		.align	1
 307              		.global	PeriphCommonClock_Config
 308              		.syntax unified
 309              		.thumb
 310              		.thumb_func
 312              	PeriphCommonClock_Config:
 313              		@ args = 0, pretend = 0, frame = 136
 314              		@ frame_needed = 1, uses_anonymous_args = 0
 315 0000 80B5     		push	{r7, lr}
 316 0002 A2B0     		sub	sp, sp, #136
 317 0004 00AF     		add	r7, sp, #0
 318 0006 3B1D     		adds	r3, r7, #4
 319 0008 8422     		movs	r2, #132
 320 000a 0021     		movs	r1, #0
 321 000c 1846     		mov	r0, r3
 322 000e FFF7FEFF 		bl	memset
 323 0012 134B     		ldr	r3, .L31
 324 0014 7B60     		str	r3, [r7, #4]
 325 0016 4FF4C073 		mov	r3, #384
 326 001a BB61     		str	r3, [r7, #24]
 327 001c 0523     		movs	r3, #5
 328 001e 3B62     		str	r3, [r7, #32]
 329 0020 0223     		movs	r3, #2
 330 0022 FB61     		str	r3, [r7, #28]
 331 0024 0323     		movs	r3, #3
 332 0026 7B62     		str	r3, [r7, #36]
 333 0028 0123     		movs	r3, #1
 334 002a FB62     		str	r3, [r7, #44]
 335 002c 4FF40033 		mov	r3, #131072
 336 0030 3B63     		str	r3, [r7, #48]
 337 0032 0023     		movs	r3, #0
 338 0034 7B64     		str	r3, [r7, #68]
 339 0036 4FF00063 		mov	r3, #134217728
 340 003a C7F88030 		str	r3, [r7, #128]
 341 003e 0023     		movs	r3, #0
 342 0040 C7F88430 		str	r3, [r7, #132]
 343 0044 3B1D     		adds	r3, r7, #4
 344 0046 1846     		mov	r0, r3
 345 0048 FFF7FEFF 		bl	HAL_RCCEx_PeriphCLKConfig
 346 004c 0346     		mov	r3, r0
 347 004e 002B     		cmp	r3, #0
 348 0050 01D0     		beq	.L30
 349 0052 FFF7FEFF 		bl	Error_Handler
 350              	.L30:
ARM GAS  C:\msys64\tmp\ccusKgAq.s 			page 7


 351 0056 00BF     		nop
 352 0058 8837     		adds	r7, r7, #136
 353 005a BD46     		mov	sp, r7
 354              		@ sp needed
 355 005c 80BD     		pop	{r7, pc}
 356              	.L32:
 357 005e 00BF     		.align	2
 358              	.L31:
 359 0060 0800B000 		.word	11534344
 361              		.section	.text.MX_USART1_UART_Init,"ax",%progbits
 362              		.align	1
 363              		.syntax unified
 364              		.thumb
 365              		.thumb_func
 367              	MX_USART1_UART_Init:
 368              		@ args = 0, pretend = 0, frame = 0
 369              		@ frame_needed = 1, uses_anonymous_args = 0
 370 0000 80B5     		push	{r7, lr}
 371 0002 00AF     		add	r7, sp, #0
 372 0004 144B     		ldr	r3, .L36
 373 0006 154A     		ldr	r2, .L36+4
 374 0008 1A60     		str	r2, [r3]
 375 000a 134B     		ldr	r3, .L36
 376 000c 4FF4E132 		mov	r2, #115200
 377 0010 5A60     		str	r2, [r3, #4]
 378 0012 114B     		ldr	r3, .L36
 379 0014 0022     		movs	r2, #0
 380 0016 9A60     		str	r2, [r3, #8]
 381 0018 0F4B     		ldr	r3, .L36
 382 001a 0022     		movs	r2, #0
 383 001c DA60     		str	r2, [r3, #12]
 384 001e 0E4B     		ldr	r3, .L36
 385 0020 0022     		movs	r2, #0
 386 0022 1A61     		str	r2, [r3, #16]
 387 0024 0C4B     		ldr	r3, .L36
 388 0026 0C22     		movs	r2, #12
 389 0028 5A61     		str	r2, [r3, #20]
 390 002a 0B4B     		ldr	r3, .L36
 391 002c 0022     		movs	r2, #0
 392 002e 9A61     		str	r2, [r3, #24]
 393 0030 094B     		ldr	r3, .L36
 394 0032 0022     		movs	r2, #0
 395 0034 DA61     		str	r2, [r3, #28]
 396 0036 084B     		ldr	r3, .L36
 397 0038 0022     		movs	r2, #0
 398 003a 1A62     		str	r2, [r3, #32]
 399 003c 064B     		ldr	r3, .L36
 400 003e 0022     		movs	r2, #0
 401 0040 5A62     		str	r2, [r3, #36]
 402 0042 0548     		ldr	r0, .L36
 403 0044 FFF7FEFF 		bl	HAL_UART_Init
 404 0048 0346     		mov	r3, r0
 405 004a 002B     		cmp	r3, #0
 406 004c 01D0     		beq	.L35
 407 004e FFF7FEFF 		bl	Error_Handler
 408              	.L35:
 409 0052 00BF     		nop
ARM GAS  C:\msys64\tmp\ccusKgAq.s 			page 8


 410 0054 80BD     		pop	{r7, pc}
 411              	.L37:
 412 0056 00BF     		.align	2
 413              	.L36:
 414 0058 00000000 		.word	huart1
 415 005c 00100140 		.word	1073811456
 417              		.section	.text.MX_GPIO_Init,"ax",%progbits
 418              		.align	1
 419              		.syntax unified
 420              		.thumb
 421              		.thumb_func
 423              	MX_GPIO_Init:
 424              		@ args = 0, pretend = 0, frame = 64
 425              		@ frame_needed = 1, uses_anonymous_args = 0
 426 0000 80B5     		push	{r7, lr}
 427 0002 90B0     		sub	sp, sp, #64
 428 0004 00AF     		add	r7, sp, #0
 429 0006 07F12C03 		add	r3, r7, #44
 430 000a 0022     		movs	r2, #0
 431 000c 1A60     		str	r2, [r3]
 432 000e 5A60     		str	r2, [r3, #4]
 433 0010 9A60     		str	r2, [r3, #8]
 434 0012 DA60     		str	r2, [r3, #12]
 435 0014 1A61     		str	r2, [r3, #16]
 436 0016 9E4B     		ldr	r3, .L39
 437 0018 1B6B     		ldr	r3, [r3, #48]
 438 001a 9D4A     		ldr	r2, .L39
 439 001c 43F01003 		orr	r3, r3, #16
 440 0020 1363     		str	r3, [r2, #48]
 441 0022 9B4B     		ldr	r3, .L39
 442 0024 1B6B     		ldr	r3, [r3, #48]
 443 0026 03F01003 		and	r3, r3, #16
 444 002a BB62     		str	r3, [r7, #40]
 445 002c BB6A     		ldr	r3, [r7, #40]
 446 002e 984B     		ldr	r3, .L39
 447 0030 1B6B     		ldr	r3, [r3, #48]
 448 0032 974A     		ldr	r2, .L39
 449 0034 43F04003 		orr	r3, r3, #64
 450 0038 1363     		str	r3, [r2, #48]
 451 003a 954B     		ldr	r3, .L39
 452 003c 1B6B     		ldr	r3, [r3, #48]
 453 003e 03F04003 		and	r3, r3, #64
 454 0042 7B62     		str	r3, [r7, #36]
 455 0044 7B6A     		ldr	r3, [r7, #36]
 456 0046 924B     		ldr	r3, .L39
 457 0048 1B6B     		ldr	r3, [r3, #48]
 458 004a 914A     		ldr	r2, .L39
 459 004c 43F00203 		orr	r3, r3, #2
 460 0050 1363     		str	r3, [r2, #48]
 461 0052 8F4B     		ldr	r3, .L39
 462 0054 1B6B     		ldr	r3, [r3, #48]
 463 0056 03F00203 		and	r3, r3, #2
 464 005a 3B62     		str	r3, [r7, #32]
 465 005c 3B6A     		ldr	r3, [r7, #32]
 466 005e 8C4B     		ldr	r3, .L39
 467 0060 1B6B     		ldr	r3, [r3, #48]
 468 0062 8B4A     		ldr	r2, .L39
ARM GAS  C:\msys64\tmp\ccusKgAq.s 			page 9


 469 0064 43F00803 		orr	r3, r3, #8
 470 0068 1363     		str	r3, [r2, #48]
 471 006a 894B     		ldr	r3, .L39
 472 006c 1B6B     		ldr	r3, [r3, #48]
 473 006e 03F00803 		and	r3, r3, #8
 474 0072 FB61     		str	r3, [r7, #28]
 475 0074 FB69     		ldr	r3, [r7, #28]
 476 0076 864B     		ldr	r3, .L39
 477 0078 1B6B     		ldr	r3, [r3, #48]
 478 007a 854A     		ldr	r2, .L39
 479 007c 43F00403 		orr	r3, r3, #4
 480 0080 1363     		str	r3, [r2, #48]
 481 0082 834B     		ldr	r3, .L39
 482 0084 1B6B     		ldr	r3, [r3, #48]
 483 0086 03F00403 		and	r3, r3, #4
 484 008a BB61     		str	r3, [r7, #24]
 485 008c BB69     		ldr	r3, [r7, #24]
 486 008e 804B     		ldr	r3, .L39
 487 0090 1B6B     		ldr	r3, [r3, #48]
 488 0092 7F4A     		ldr	r2, .L39
 489 0094 43F00103 		orr	r3, r3, #1
 490 0098 1363     		str	r3, [r2, #48]
 491 009a 7D4B     		ldr	r3, .L39
 492 009c 1B6B     		ldr	r3, [r3, #48]
 493 009e 03F00103 		and	r3, r3, #1
 494 00a2 7B61     		str	r3, [r7, #20]
 495 00a4 7B69     		ldr	r3, [r7, #20]
 496 00a6 7A4B     		ldr	r3, .L39
 497 00a8 1B6B     		ldr	r3, [r3, #48]
 498 00aa 794A     		ldr	r2, .L39
 499 00ac 43F40073 		orr	r3, r3, #512
 500 00b0 1363     		str	r3, [r2, #48]
 501 00b2 774B     		ldr	r3, .L39
 502 00b4 1B6B     		ldr	r3, [r3, #48]
 503 00b6 03F40073 		and	r3, r3, #512
 504 00ba 3B61     		str	r3, [r7, #16]
 505 00bc 3B69     		ldr	r3, [r7, #16]
 506 00be 744B     		ldr	r3, .L39
 507 00c0 1B6B     		ldr	r3, [r3, #48]
 508 00c2 734A     		ldr	r2, .L39
 509 00c4 43F48073 		orr	r3, r3, #256
 510 00c8 1363     		str	r3, [r2, #48]
 511 00ca 714B     		ldr	r3, .L39
 512 00cc 1B6B     		ldr	r3, [r3, #48]
 513 00ce 03F48073 		and	r3, r3, #256
 514 00d2 FB60     		str	r3, [r7, #12]
 515 00d4 FB68     		ldr	r3, [r7, #12]
 516 00d6 6E4B     		ldr	r3, .L39
 517 00d8 1B6B     		ldr	r3, [r3, #48]
 518 00da 6D4A     		ldr	r2, .L39
 519 00dc 43F48063 		orr	r3, r3, #1024
 520 00e0 1363     		str	r3, [r2, #48]
 521 00e2 6B4B     		ldr	r3, .L39
 522 00e4 1B6B     		ldr	r3, [r3, #48]
 523 00e6 03F48063 		and	r3, r3, #1024
 524 00ea BB60     		str	r3, [r7, #8]
 525 00ec BB68     		ldr	r3, [r7, #8]
ARM GAS  C:\msys64\tmp\ccusKgAq.s 			page 10


 526 00ee 684B     		ldr	r3, .L39
 527 00f0 1B6B     		ldr	r3, [r3, #48]
 528 00f2 674A     		ldr	r2, .L39
 529 00f4 43F02003 		orr	r3, r3, #32
 530 00f8 1363     		str	r3, [r2, #48]
 531 00fa 654B     		ldr	r3, .L39
 532 00fc 1B6B     		ldr	r3, [r3, #48]
 533 00fe 03F02003 		and	r3, r3, #32
 534 0102 7B60     		str	r3, [r7, #4]
 535 0104 7B68     		ldr	r3, [r7, #4]
 536 0106 624B     		ldr	r3, .L39
 537 0108 1B6B     		ldr	r3, [r3, #48]
 538 010a 614A     		ldr	r2, .L39
 539 010c 43F08003 		orr	r3, r3, #128
 540 0110 1363     		str	r3, [r2, #48]
 541 0112 5F4B     		ldr	r3, .L39
 542 0114 1B6B     		ldr	r3, [r3, #48]
 543 0116 03F08003 		and	r3, r3, #128
 544 011a 3B60     		str	r3, [r7]
 545 011c 3B68     		ldr	r3, [r7]
 546 011e 0022     		movs	r2, #0
 547 0120 0C21     		movs	r1, #12
 548 0122 5C48     		ldr	r0, .L39+4
 549 0124 FFF7FEFF 		bl	HAL_GPIO_WritePin
 550 0128 0122     		movs	r2, #1
 551 012a 4FF48051 		mov	r1, #4096
 552 012e 5948     		ldr	r0, .L39+4
 553 0130 FFF7FEFF 		bl	HAL_GPIO_WritePin
 554 0134 0022     		movs	r2, #0
 555 0136 4FF40051 		mov	r1, #8192
 556 013a 5748     		ldr	r0, .L39+8
 557 013c FFF7FEFF 		bl	HAL_GPIO_WritePin
 558 0140 0022     		movs	r2, #0
 559 0142 C821     		movs	r1, #200
 560 0144 5548     		ldr	r0, .L39+12
 561 0146 FFF7FEFF 		bl	HAL_GPIO_WritePin
 562 014a 43F62343 		movw	r3, #15395
 563 014e FB62     		str	r3, [r7, #44]
 564 0150 0223     		movs	r3, #2
 565 0152 3B63     		str	r3, [r7, #48]
 566 0154 0023     		movs	r3, #0
 567 0156 7B63     		str	r3, [r7, #52]
 568 0158 0323     		movs	r3, #3
 569 015a BB63     		str	r3, [r7, #56]
 570 015c 0A23     		movs	r3, #10
 571 015e FB63     		str	r3, [r7, #60]
 572 0160 07F12C03 		add	r3, r7, #44
 573 0164 1946     		mov	r1, r3
 574 0166 4E48     		ldr	r0, .L39+16
 575 0168 FFF7FEFF 		bl	HAL_GPIO_Init
 576 016c 4FF48053 		mov	r3, #4096
 577 0170 FB62     		str	r3, [r7, #44]
 578 0172 0023     		movs	r3, #0
 579 0174 3B63     		str	r3, [r7, #48]
 580 0176 0023     		movs	r3, #0
 581 0178 7B63     		str	r3, [r7, #52]
 582 017a 07F12C03 		add	r3, r7, #44
ARM GAS  C:\msys64\tmp\ccusKgAq.s 			page 11


 583 017e 1946     		mov	r1, r3
 584 0180 4848     		ldr	r0, .L39+20
 585 0182 FFF7FEFF 		bl	HAL_GPIO_Init
 586 0186 41F20C03 		movw	r3, #4108
 587 018a FB62     		str	r3, [r7, #44]
 588 018c 0123     		movs	r3, #1
 589 018e 3B63     		str	r3, [r7, #48]
 590 0190 0023     		movs	r3, #0
 591 0192 7B63     		str	r3, [r7, #52]
 592 0194 0023     		movs	r3, #0
 593 0196 BB63     		str	r3, [r7, #56]
 594 0198 07F12C03 		add	r3, r7, #44
 595 019c 1946     		mov	r1, r3
 596 019e 3D48     		ldr	r0, .L39+4
 597 01a0 FFF7FEFF 		bl	HAL_GPIO_Init
 598 01a4 48F20403 		movw	r3, #32772
 599 01a8 FB62     		str	r3, [r7, #44]
 600 01aa 0023     		movs	r3, #0
 601 01ac 3B63     		str	r3, [r7, #48]
 602 01ae 0023     		movs	r3, #0
 603 01b0 7B63     		str	r3, [r7, #52]
 604 01b2 07F12C03 		add	r3, r7, #44
 605 01b6 1946     		mov	r1, r3
 606 01b8 3748     		ldr	r0, .L39+8
 607 01ba FFF7FEFF 		bl	HAL_GPIO_Init
 608 01be 4FF40053 		mov	r3, #8192
 609 01c2 FB62     		str	r3, [r7, #44]
 610 01c4 0123     		movs	r3, #1
 611 01c6 3B63     		str	r3, [r7, #48]
 612 01c8 0023     		movs	r3, #0
 613 01ca 7B63     		str	r3, [r7, #52]
 614 01cc 0023     		movs	r3, #0
 615 01ce BB63     		str	r3, [r7, #56]
 616 01d0 07F12C03 		add	r3, r7, #44
 617 01d4 1946     		mov	r1, r3
 618 01d6 3048     		ldr	r0, .L39+8
 619 01d8 FFF7FEFF 		bl	HAL_GPIO_Init
 620 01dc 4FF40053 		mov	r3, #8192
 621 01e0 FB62     		str	r3, [r7, #44]
 622 01e2 4FF49013 		mov	r3, #1179648
 623 01e6 3B63     		str	r3, [r7, #48]
 624 01e8 0023     		movs	r3, #0
 625 01ea 7B63     		str	r3, [r7, #52]
 626 01ec 07F12C03 		add	r3, r7, #44
 627 01f0 1946     		mov	r1, r3
 628 01f2 2848     		ldr	r0, .L39+4
 629 01f4 FFF7FEFF 		bl	HAL_GPIO_Init
 630 01f8 1023     		movs	r3, #16
 631 01fa FB62     		str	r3, [r7, #44]
 632 01fc 0223     		movs	r3, #2
 633 01fe 3B63     		str	r3, [r7, #48]
 634 0200 0023     		movs	r3, #0
 635 0202 7B63     		str	r3, [r7, #52]
 636 0204 0323     		movs	r3, #3
 637 0206 BB63     		str	r3, [r7, #56]
 638 0208 0A23     		movs	r3, #10
 639 020a FB63     		str	r3, [r7, #60]
ARM GAS  C:\msys64\tmp\ccusKgAq.s 			page 12


 640 020c 07F12C03 		add	r3, r7, #44
 641 0210 1946     		mov	r1, r3
 642 0212 2148     		ldr	r0, .L39+8
 643 0214 FFF7FEFF 		bl	HAL_GPIO_Init
 644 0218 C823     		movs	r3, #200
 645 021a FB62     		str	r3, [r7, #44]
 646 021c 0123     		movs	r3, #1
 647 021e 3B63     		str	r3, [r7, #48]
 648 0220 0023     		movs	r3, #0
 649 0222 7B63     		str	r3, [r7, #52]
 650 0224 0023     		movs	r3, #0
 651 0226 BB63     		str	r3, [r7, #56]
 652 0228 07F12C03 		add	r3, r7, #44
 653 022c 1946     		mov	r1, r3
 654 022e 1B48     		ldr	r0, .L39+12
 655 0230 FFF7FEFF 		bl	HAL_GPIO_Init
 656 0234 0523     		movs	r3, #5
 657 0236 FB62     		str	r3, [r7, #44]
 658 0238 0223     		movs	r3, #2
 659 023a 3B63     		str	r3, [r7, #48]
 660 023c 0023     		movs	r3, #0
 661 023e 7B63     		str	r3, [r7, #52]
 662 0240 0323     		movs	r3, #3
 663 0242 BB63     		str	r3, [r7, #56]
 664 0244 0A23     		movs	r3, #10
 665 0246 FB63     		str	r3, [r7, #60]
 666 0248 07F12C03 		add	r3, r7, #44
 667 024c 1946     		mov	r1, r3
 668 024e 1648     		ldr	r0, .L39+24
 669 0250 FFF7FEFF 		bl	HAL_GPIO_Init
 670 0254 0423     		movs	r3, #4
 671 0256 FB62     		str	r3, [r7, #44]
 672 0258 0023     		movs	r3, #0
 673 025a 3B63     		str	r3, [r7, #48]
 674 025c 0023     		movs	r3, #0
 675 025e 7B63     		str	r3, [r7, #52]
 676 0260 07F12C03 		add	r3, r7, #44
 677 0264 1946     		mov	r1, r3
 678 0266 0D48     		ldr	r0, .L39+12
 679 0268 FFF7FEFF 		bl	HAL_GPIO_Init
 680 026c 0223     		movs	r3, #2
 681 026e FB62     		str	r3, [r7, #44]
 682 0270 0123     		movs	r3, #1
 683 0272 3B63     		str	r3, [r7, #48]
 684 0274 0023     		movs	r3, #0
 685 0276 7B63     		str	r3, [r7, #52]
 686 0278 0323     		movs	r3, #3
 687 027a BB63     		str	r3, [r7, #56]
 688 027c 07F12C03 		add	r3, r7, #44
 689 0280 1946     		mov	r1, r3
 690 0282 0448     		ldr	r0, .L39+4
 691 0284 FFF7FEFF 		bl	HAL_GPIO_Init
 692 0288 00BF     		nop
 693 028a 4037     		adds	r7, r7, #64
 694 028c BD46     		mov	sp, r7
 695              		@ sp needed
 696 028e 80BD     		pop	{r7, pc}
ARM GAS  C:\msys64\tmp\ccusKgAq.s 			page 13


 697              	.L40:
 698              		.align	2
 699              	.L39:
 700 0290 00380240 		.word	1073887232
 701 0294 00200240 		.word	1073881088
 702 0298 001C0240 		.word	1073880064
 703 029c 00180240 		.word	1073879040
 704 02a0 00040240 		.word	1073873920
 705 02a4 00240240 		.word	1073882112
 706 02a8 00080240 		.word	1073874944
 708              		.section	.text.HAL_TIM_PeriodElapsedCallback,"ax",%progbits
 709              		.align	1
 710              		.global	HAL_TIM_PeriodElapsedCallback
 711              		.syntax unified
 712              		.thumb
 713              		.thumb_func
 715              	HAL_TIM_PeriodElapsedCallback:
 716              		@ args = 0, pretend = 0, frame = 8
 717              		@ frame_needed = 1, uses_anonymous_args = 0
 718 0000 80B5     		push	{r7, lr}
 719 0002 82B0     		sub	sp, sp, #8
 720 0004 00AF     		add	r7, sp, #0
 721 0006 7860     		str	r0, [r7, #4]
 722 0008 7B68     		ldr	r3, [r7, #4]
 723 000a 1B68     		ldr	r3, [r3]
 724 000c 044A     		ldr	r2, .L44
 725 000e 9342     		cmp	r3, r2
 726 0010 01D1     		bne	.L43
 727 0012 FFF7FEFF 		bl	HAL_IncTick
 728              	.L43:
 729 0016 00BF     		nop
 730 0018 0837     		adds	r7, r7, #8
 731 001a BD46     		mov	sp, r7
 732              		@ sp needed
 733 001c 80BD     		pop	{r7, pc}
 734              	.L45:
 735 001e 00BF     		.align	2
 736              	.L44:
 737 0020 00100040 		.word	1073745920
 739              		.section	.text.Error_Handler,"ax",%progbits
 740              		.align	1
 741              		.global	Error_Handler
 742              		.syntax unified
 743              		.thumb
 744              		.thumb_func
 746              	Error_Handler:
 747              		@ args = 0, pretend = 0, frame = 0
 748              		@ frame_needed = 1, uses_anonymous_args = 0
 749              		@ link register save eliminated.
 750 0000 80B4     		push	{r7}
 751 0002 00AF     		add	r7, sp, #0
 752              		.syntax unified
 753              	@ 142 "cmsis/core/cmsis_gcc.h" 1
 754 0004 72B6     		cpsid i
 755              	@ 0 "" 2
 756              		.thumb
 757              		.syntax unified
ARM GAS  C:\msys64\tmp\ccusKgAq.s 			page 14


 758 0006 00BF     		nop
 759              	.L47:
 760 0008 00BF     		nop
 761 000a FDE7     		b	.L47
 763              		.ident	"GCC: (GNU) 13.3.0"
ARM GAS  C:\msys64\tmp\ccusKgAq.s 			page 15

