ARM GAS  C:\msys64\tmp\ccqOa5lu.s 			page 1


   1              		.cpu cortex-m7
   2              		.arch armv7e-m
   3              		.fpu fpv5-sp-d16
   4              		.eabi_attribute 27, 1
   5              		.eabi_attribute 28, 1
   6              		.eabi_attribute 20, 1
   7              		.eabi_attribute 21, 1
   8              		.eabi_attribute 23, 3
   9              		.eabi_attribute 24, 1
  10              		.eabi_attribute 25, 1
  11              		.eabi_attribute 26, 1
  12              		.eabi_attribute 30, 6
  13              		.eabi_attribute 34, 1
  14              		.eabi_attribute 18, 4
  15              		.file	"stm32f7xx_hal_timebase_tim.c"
  16              		.text
  17              		.global	htim6
  18              		.section	.bss.htim6,"aw",%nobits
  19              		.align	2
  22              	htim6:
  23 0000 00000000 		.space	76
  23      00000000 
  23      00000000 
  23      00000000 
  23      00000000 
  24              		.section	.text.HAL_InitTick,"ax",%progbits
  25              		.align	1
  26              		.global	HAL_InitTick
  27              		.syntax unified
  28              		.thumb
  29              		.thumb_func
  31              	HAL_InitTick:
  32              		@ args = 0, pretend = 0, frame = 56
  33              		@ frame_needed = 1, uses_anonymous_args = 0
  34 0000 80B5     		push	{r7, lr}
  35 0002 8EB0     		sub	sp, sp, #56
  36 0004 00AF     		add	r7, sp, #0
  37 0006 7860     		str	r0, [r7, #4]
  38 0008 0023     		movs	r3, #0
  39 000a FB62     		str	r3, [r7, #44]
  40 000c 0023     		movs	r3, #0
  41 000e BB62     		str	r3, [r7, #40]
  42 0010 334B     		ldr	r3, .L7
  43 0012 1B6C     		ldr	r3, [r3, #64]
  44 0014 324A     		ldr	r2, .L7
  45 0016 43F01003 		orr	r3, r3, #16
  46 001a 1364     		str	r3, [r2, #64]
  47 001c 304B     		ldr	r3, .L7
  48 001e 1B6C     		ldr	r3, [r3, #64]
  49 0020 03F01003 		and	r3, r3, #16
  50 0024 FB60     		str	r3, [r7, #12]
  51 0026 FB68     		ldr	r3, [r7, #12]
  52 0028 07F11002 		add	r2, r7, #16
  53 002c 07F11403 		add	r3, r7, #20
  54 0030 1146     		mov	r1, r2
  55 0032 1846     		mov	r0, r3
  56 0034 FFF7FEFF 		bl	HAL_RCC_GetClockConfig
ARM GAS  C:\msys64\tmp\ccqOa5lu.s 			page 2


  57 0038 3B6A     		ldr	r3, [r7, #32]
  58 003a FB62     		str	r3, [r7, #44]
  59 003c FB6A     		ldr	r3, [r7, #44]
  60 003e 002B     		cmp	r3, #0
  61 0040 03D1     		bne	.L2
  62 0042 FFF7FEFF 		bl	HAL_RCC_GetPCLK1Freq
  63 0046 7863     		str	r0, [r7, #52]
  64 0048 04E0     		b	.L3
  65              	.L2:
  66 004a FFF7FEFF 		bl	HAL_RCC_GetPCLK1Freq
  67 004e 0346     		mov	r3, r0
  68 0050 5B00     		lsls	r3, r3, #1
  69 0052 7B63     		str	r3, [r7, #52]
  70              	.L3:
  71 0054 7B6B     		ldr	r3, [r7, #52]
  72 0056 234A     		ldr	r2, .L7+4
  73 0058 A2FB0323 		umull	r2, r3, r2, r3
  74 005c 9B0C     		lsrs	r3, r3, #18
  75 005e 013B     		subs	r3, r3, #1
  76 0060 BB62     		str	r3, [r7, #40]
  77 0062 214B     		ldr	r3, .L7+8
  78 0064 214A     		ldr	r2, .L7+12
  79 0066 1A60     		str	r2, [r3]
  80 0068 1F4B     		ldr	r3, .L7+8
  81 006a 40F2E732 		movw	r2, #999
  82 006e DA60     		str	r2, [r3, #12]
  83 0070 1D4A     		ldr	r2, .L7+8
  84 0072 BB6A     		ldr	r3, [r7, #40]
  85 0074 5360     		str	r3, [r2, #4]
  86 0076 1C4B     		ldr	r3, .L7+8
  87 0078 0022     		movs	r2, #0
  88 007a 1A61     		str	r2, [r3, #16]
  89 007c 1A4B     		ldr	r3, .L7+8
  90 007e 0022     		movs	r2, #0
  91 0080 9A60     		str	r2, [r3, #8]
  92 0082 194B     		ldr	r3, .L7+8
  93 0084 0022     		movs	r2, #0
  94 0086 9A61     		str	r2, [r3, #24]
  95 0088 1748     		ldr	r0, .L7+8
  96 008a FFF7FEFF 		bl	HAL_TIM_Base_Init
  97 008e 0346     		mov	r3, r0
  98 0090 87F83330 		strb	r3, [r7, #51]
  99 0094 97F83330 		ldrb	r3, [r7, #51]	@ zero_extendqisi2
 100 0098 002B     		cmp	r3, #0
 101 009a 1BD1     		bne	.L4
 102 009c 1248     		ldr	r0, .L7+8
 103 009e FFF7FEFF 		bl	HAL_TIM_Base_Start_IT
 104 00a2 0346     		mov	r3, r0
 105 00a4 87F83330 		strb	r3, [r7, #51]
 106 00a8 97F83330 		ldrb	r3, [r7, #51]	@ zero_extendqisi2
 107 00ac 002B     		cmp	r3, #0
 108 00ae 11D1     		bne	.L4
 109 00b0 3620     		movs	r0, #54
 110 00b2 FFF7FEFF 		bl	HAL_NVIC_EnableIRQ
 111 00b6 7B68     		ldr	r3, [r7, #4]
 112 00b8 0F2B     		cmp	r3, #15
 113 00ba 08D8     		bhi	.L5
ARM GAS  C:\msys64\tmp\ccqOa5lu.s 			page 3


 114 00bc 0022     		movs	r2, #0
 115 00be 7968     		ldr	r1, [r7, #4]
 116 00c0 3620     		movs	r0, #54
 117 00c2 FFF7FEFF 		bl	HAL_NVIC_SetPriority
 118 00c6 0A4A     		ldr	r2, .L7+16
 119 00c8 7B68     		ldr	r3, [r7, #4]
 120 00ca 1360     		str	r3, [r2]
 121 00cc 02E0     		b	.L4
 122              	.L5:
 123 00ce 0123     		movs	r3, #1
 124 00d0 87F83330 		strb	r3, [r7, #51]
 125              	.L4:
 126 00d4 97F83330 		ldrb	r3, [r7, #51]	@ zero_extendqisi2
 127 00d8 1846     		mov	r0, r3
 128 00da 3837     		adds	r7, r7, #56
 129 00dc BD46     		mov	sp, r7
 130              		@ sp needed
 131 00de 80BD     		pop	{r7, pc}
 132              	.L8:
 133              		.align	2
 134              	.L7:
 135 00e0 00380240 		.word	1073887232
 136 00e4 83DE1B43 		.word	1125899907
 137 00e8 00000000 		.word	htim6
 138 00ec 00100040 		.word	1073745920
 139 00f0 00000000 		.word	uwTickPrio
 141              		.section	.text.HAL_SuspendTick,"ax",%progbits
 142              		.align	1
 143              		.global	HAL_SuspendTick
 144              		.syntax unified
 145              		.thumb
 146              		.thumb_func
 148              	HAL_SuspendTick:
 149              		@ args = 0, pretend = 0, frame = 0
 150              		@ frame_needed = 1, uses_anonymous_args = 0
 151              		@ link register save eliminated.
 152 0000 80B4     		push	{r7}
 153 0002 00AF     		add	r7, sp, #0
 154 0004 064B     		ldr	r3, .L10
 155 0006 1B68     		ldr	r3, [r3]
 156 0008 DA68     		ldr	r2, [r3, #12]
 157 000a 054B     		ldr	r3, .L10
 158 000c 1B68     		ldr	r3, [r3]
 159 000e 22F00102 		bic	r2, r2, #1
 160 0012 DA60     		str	r2, [r3, #12]
 161 0014 00BF     		nop
 162 0016 BD46     		mov	sp, r7
 163              		@ sp needed
 164 0018 5DF8047B 		ldr	r7, [sp], #4
 165 001c 7047     		bx	lr
 166              	.L11:
 167 001e 00BF     		.align	2
 168              	.L10:
 169 0020 00000000 		.word	htim6
 171              		.section	.text.HAL_ResumeTick,"ax",%progbits
 172              		.align	1
 173              		.global	HAL_ResumeTick
ARM GAS  C:\msys64\tmp\ccqOa5lu.s 			page 4


 174              		.syntax unified
 175              		.thumb
 176              		.thumb_func
 178              	HAL_ResumeTick:
 179              		@ args = 0, pretend = 0, frame = 0
 180              		@ frame_needed = 1, uses_anonymous_args = 0
 181              		@ link register save eliminated.
 182 0000 80B4     		push	{r7}
 183 0002 00AF     		add	r7, sp, #0
 184 0004 064B     		ldr	r3, .L13
 185 0006 1B68     		ldr	r3, [r3]
 186 0008 DA68     		ldr	r2, [r3, #12]
 187 000a 054B     		ldr	r3, .L13
 188 000c 1B68     		ldr	r3, [r3]
 189 000e 42F00102 		orr	r2, r2, #1
 190 0012 DA60     		str	r2, [r3, #12]
 191 0014 00BF     		nop
 192 0016 BD46     		mov	sp, r7
 193              		@ sp needed
 194 0018 5DF8047B 		ldr	r7, [sp], #4
 195 001c 7047     		bx	lr
 196              	.L14:
 197 001e 00BF     		.align	2
 198              	.L13:
 199 0020 00000000 		.word	htim6
 201              		.ident	"GCC: (GNU) 13.3.0"
ARM GAS  C:\msys64\tmp\ccqOa5lu.s 			page 5

