ARM GAS  C:\msys64\tmp\ccAnnLsi.s 			page 1


   1              		.cpu cortex-m7
   2              		.arch armv7e-m
   3              		.fpu fpv5-sp-d16
   4              		.eabi_attribute 27, 1
   5              		.eabi_attribute 28, 1
   6              		.eabi_attribute 20, 1
   7              		.eabi_attribute 21, 1
   8              		.eabi_attribute 23, 3
   9              		.eabi_attribute 24, 1
  10              		.eabi_attribute 25, 1
  11              		.eabi_attribute 26, 1
  12              		.eabi_attribute 30, 6
  13              		.eabi_attribute 34, 1
  14              		.eabi_attribute 18, 4
  15              		.file	"stm32f7xx_hal_i2c_ex.c"
  16              		.text
  17              		.section	.text.HAL_I2CEx_ConfigAnalogFilter,"ax",%progbits
  18              		.align	1
  19              		.global	HAL_I2CEx_ConfigAnalogFilter
  20              		.syntax unified
  21              		.thumb
  22              		.thumb_func
  24              	HAL_I2CEx_ConfigAnalogFilter:
  25              		@ args = 0, pretend = 0, frame = 8
  26              		@ frame_needed = 1, uses_anonymous_args = 0
  27              		@ link register save eliminated.
  28 0000 80B4     		push	{r7}
  29 0002 83B0     		sub	sp, sp, #12
  30 0004 00AF     		add	r7, sp, #0
  31 0006 7860     		str	r0, [r7, #4]
  32 0008 3960     		str	r1, [r7]
  33 000a 7B68     		ldr	r3, [r7, #4]
  34 000c 93F84130 		ldrb	r3, [r3, #65]
  35 0010 DBB2     		uxtb	r3, r3
  36 0012 202B     		cmp	r3, #32
  37 0014 38D1     		bne	.L2
  38 0016 7B68     		ldr	r3, [r7, #4]
  39 0018 93F84030 		ldrb	r3, [r3, #64]	@ zero_extendqisi2
  40 001c 012B     		cmp	r3, #1
  41 001e 01D1     		bne	.L3
  42 0020 0223     		movs	r3, #2
  43 0022 32E0     		b	.L4
  44              	.L3:
  45 0024 7B68     		ldr	r3, [r7, #4]
  46 0026 0122     		movs	r2, #1
  47 0028 83F84020 		strb	r2, [r3, #64]
  48 002c 7B68     		ldr	r3, [r7, #4]
  49 002e 2422     		movs	r2, #36
  50 0030 83F84120 		strb	r2, [r3, #65]
  51 0034 7B68     		ldr	r3, [r7, #4]
  52 0036 1B68     		ldr	r3, [r3]
  53 0038 1A68     		ldr	r2, [r3]
  54 003a 7B68     		ldr	r3, [r7, #4]
  55 003c 1B68     		ldr	r3, [r3]
  56 003e 22F00102 		bic	r2, r2, #1
  57 0042 1A60     		str	r2, [r3]
  58 0044 7B68     		ldr	r3, [r7, #4]
ARM GAS  C:\msys64\tmp\ccAnnLsi.s 			page 2


  59 0046 1B68     		ldr	r3, [r3]
  60 0048 1A68     		ldr	r2, [r3]
  61 004a 7B68     		ldr	r3, [r7, #4]
  62 004c 1B68     		ldr	r3, [r3]
  63 004e 22F48052 		bic	r2, r2, #4096
  64 0052 1A60     		str	r2, [r3]
  65 0054 7B68     		ldr	r3, [r7, #4]
  66 0056 1B68     		ldr	r3, [r3]
  67 0058 1968     		ldr	r1, [r3]
  68 005a 7B68     		ldr	r3, [r7, #4]
  69 005c 1B68     		ldr	r3, [r3]
  70 005e 3A68     		ldr	r2, [r7]
  71 0060 0A43     		orrs	r2, r2, r1
  72 0062 1A60     		str	r2, [r3]
  73 0064 7B68     		ldr	r3, [r7, #4]
  74 0066 1B68     		ldr	r3, [r3]
  75 0068 1A68     		ldr	r2, [r3]
  76 006a 7B68     		ldr	r3, [r7, #4]
  77 006c 1B68     		ldr	r3, [r3]
  78 006e 42F00102 		orr	r2, r2, #1
  79 0072 1A60     		str	r2, [r3]
  80 0074 7B68     		ldr	r3, [r7, #4]
  81 0076 2022     		movs	r2, #32
  82 0078 83F84120 		strb	r2, [r3, #65]
  83 007c 7B68     		ldr	r3, [r7, #4]
  84 007e 0022     		movs	r2, #0
  85 0080 83F84020 		strb	r2, [r3, #64]
  86 0084 0023     		movs	r3, #0
  87 0086 00E0     		b	.L4
  88              	.L2:
  89 0088 0223     		movs	r3, #2
  90              	.L4:
  91 008a 1846     		mov	r0, r3
  92 008c 0C37     		adds	r7, r7, #12
  93 008e BD46     		mov	sp, r7
  94              		@ sp needed
  95 0090 5DF8047B 		ldr	r7, [sp], #4
  96 0094 7047     		bx	lr
  98              		.section	.text.HAL_I2CEx_ConfigDigitalFilter,"ax",%progbits
  99              		.align	1
 100              		.global	HAL_I2CEx_ConfigDigitalFilter
 101              		.syntax unified
 102              		.thumb
 103              		.thumb_func
 105              	HAL_I2CEx_ConfigDigitalFilter:
 106              		@ args = 0, pretend = 0, frame = 16
 107              		@ frame_needed = 1, uses_anonymous_args = 0
 108              		@ link register save eliminated.
 109 0000 80B4     		push	{r7}
 110 0002 85B0     		sub	sp, sp, #20
 111 0004 00AF     		add	r7, sp, #0
 112 0006 7860     		str	r0, [r7, #4]
 113 0008 3960     		str	r1, [r7]
 114 000a 7B68     		ldr	r3, [r7, #4]
 115 000c 93F84130 		ldrb	r3, [r3, #65]
 116 0010 DBB2     		uxtb	r3, r3
 117 0012 202B     		cmp	r3, #32
ARM GAS  C:\msys64\tmp\ccAnnLsi.s 			page 3


 118 0014 39D1     		bne	.L6
 119 0016 7B68     		ldr	r3, [r7, #4]
 120 0018 93F84030 		ldrb	r3, [r3, #64]	@ zero_extendqisi2
 121 001c 012B     		cmp	r3, #1
 122 001e 01D1     		bne	.L7
 123 0020 0223     		movs	r3, #2
 124 0022 33E0     		b	.L8
 125              	.L7:
 126 0024 7B68     		ldr	r3, [r7, #4]
 127 0026 0122     		movs	r2, #1
 128 0028 83F84020 		strb	r2, [r3, #64]
 129 002c 7B68     		ldr	r3, [r7, #4]
 130 002e 2422     		movs	r2, #36
 131 0030 83F84120 		strb	r2, [r3, #65]
 132 0034 7B68     		ldr	r3, [r7, #4]
 133 0036 1B68     		ldr	r3, [r3]
 134 0038 1A68     		ldr	r2, [r3]
 135 003a 7B68     		ldr	r3, [r7, #4]
 136 003c 1B68     		ldr	r3, [r3]
 137 003e 22F00102 		bic	r2, r2, #1
 138 0042 1A60     		str	r2, [r3]
 139 0044 7B68     		ldr	r3, [r7, #4]
 140 0046 1B68     		ldr	r3, [r3]
 141 0048 1B68     		ldr	r3, [r3]
 142 004a FB60     		str	r3, [r7, #12]
 143 004c FB68     		ldr	r3, [r7, #12]
 144 004e 23F47063 		bic	r3, r3, #3840
 145 0052 FB60     		str	r3, [r7, #12]
 146 0054 3B68     		ldr	r3, [r7]
 147 0056 1B02     		lsls	r3, r3, #8
 148 0058 FA68     		ldr	r2, [r7, #12]
 149 005a 1343     		orrs	r3, r3, r2
 150 005c FB60     		str	r3, [r7, #12]
 151 005e 7B68     		ldr	r3, [r7, #4]
 152 0060 1B68     		ldr	r3, [r3]
 153 0062 FA68     		ldr	r2, [r7, #12]
 154 0064 1A60     		str	r2, [r3]
 155 0066 7B68     		ldr	r3, [r7, #4]
 156 0068 1B68     		ldr	r3, [r3]
 157 006a 1A68     		ldr	r2, [r3]
 158 006c 7B68     		ldr	r3, [r7, #4]
 159 006e 1B68     		ldr	r3, [r3]
 160 0070 42F00102 		orr	r2, r2, #1
 161 0074 1A60     		str	r2, [r3]
 162 0076 7B68     		ldr	r3, [r7, #4]
 163 0078 2022     		movs	r2, #32
 164 007a 83F84120 		strb	r2, [r3, #65]
 165 007e 7B68     		ldr	r3, [r7, #4]
 166 0080 0022     		movs	r2, #0
 167 0082 83F84020 		strb	r2, [r3, #64]
 168 0086 0023     		movs	r3, #0
 169 0088 00E0     		b	.L8
 170              	.L6:
 171 008a 0223     		movs	r3, #2
 172              	.L8:
 173 008c 1846     		mov	r0, r3
 174 008e 1437     		adds	r7, r7, #20
ARM GAS  C:\msys64\tmp\ccAnnLsi.s 			page 4


 175 0090 BD46     		mov	sp, r7
 176              		@ sp needed
 177 0092 5DF8047B 		ldr	r7, [sp], #4
 178 0096 7047     		bx	lr
 180              		.section	.text.HAL_I2CEx_EnableFastModePlus,"ax",%progbits
 181              		.align	1
 182              		.global	HAL_I2CEx_EnableFastModePlus
 183              		.syntax unified
 184              		.thumb
 185              		.thumb_func
 187              	HAL_I2CEx_EnableFastModePlus:
 188              		@ args = 0, pretend = 0, frame = 16
 189              		@ frame_needed = 1, uses_anonymous_args = 0
 190              		@ link register save eliminated.
 191 0000 80B4     		push	{r7}
 192 0002 85B0     		sub	sp, sp, #20
 193 0004 00AF     		add	r7, sp, #0
 194 0006 7860     		str	r0, [r7, #4]
 195 0008 0B4B     		ldr	r3, .L10
 196 000a 5B6C     		ldr	r3, [r3, #68]
 197 000c 0A4A     		ldr	r2, .L10
 198 000e 43F48043 		orr	r3, r3, #16384
 199 0012 5364     		str	r3, [r2, #68]
 200 0014 084B     		ldr	r3, .L10
 201 0016 5B6C     		ldr	r3, [r3, #68]
 202 0018 03F48043 		and	r3, r3, #16384
 203 001c FB60     		str	r3, [r7, #12]
 204 001e FB68     		ldr	r3, [r7, #12]
 205 0020 064B     		ldr	r3, .L10+4
 206 0022 5A68     		ldr	r2, [r3, #4]
 207 0024 0549     		ldr	r1, .L10+4
 208 0026 7B68     		ldr	r3, [r7, #4]
 209 0028 1343     		orrs	r3, r3, r2
 210 002a 4B60     		str	r3, [r1, #4]
 211 002c 00BF     		nop
 212 002e 1437     		adds	r7, r7, #20
 213 0030 BD46     		mov	sp, r7
 214              		@ sp needed
 215 0032 5DF8047B 		ldr	r7, [sp], #4
 216 0036 7047     		bx	lr
 217              	.L11:
 218              		.align	2
 219              	.L10:
 220 0038 00380240 		.word	1073887232
 221 003c 00380140 		.word	1073821696
 223              		.section	.text.HAL_I2CEx_DisableFastModePlus,"ax",%progbits
 224              		.align	1
 225              		.global	HAL_I2CEx_DisableFastModePlus
 226              		.syntax unified
 227              		.thumb
 228              		.thumb_func
 230              	HAL_I2CEx_DisableFastModePlus:
 231              		@ args = 0, pretend = 0, frame = 16
 232              		@ frame_needed = 1, uses_anonymous_args = 0
 233              		@ link register save eliminated.
 234 0000 80B4     		push	{r7}
 235 0002 85B0     		sub	sp, sp, #20
ARM GAS  C:\msys64\tmp\ccAnnLsi.s 			page 5


 236 0004 00AF     		add	r7, sp, #0
 237 0006 7860     		str	r0, [r7, #4]
 238 0008 0C4B     		ldr	r3, .L13
 239 000a 5B6C     		ldr	r3, [r3, #68]
 240 000c 0B4A     		ldr	r2, .L13
 241 000e 43F48043 		orr	r3, r3, #16384
 242 0012 5364     		str	r3, [r2, #68]
 243 0014 094B     		ldr	r3, .L13
 244 0016 5B6C     		ldr	r3, [r3, #68]
 245 0018 03F48043 		and	r3, r3, #16384
 246 001c FB60     		str	r3, [r7, #12]
 247 001e FB68     		ldr	r3, [r7, #12]
 248 0020 074B     		ldr	r3, .L13+4
 249 0022 5A68     		ldr	r2, [r3, #4]
 250 0024 7B68     		ldr	r3, [r7, #4]
 251 0026 DB43     		mvns	r3, r3
 252 0028 0549     		ldr	r1, .L13+4
 253 002a 1340     		ands	r3, r3, r2
 254 002c 4B60     		str	r3, [r1, #4]
 255 002e 00BF     		nop
 256 0030 1437     		adds	r7, r7, #20
 257 0032 BD46     		mov	sp, r7
 258              		@ sp needed
 259 0034 5DF8047B 		ldr	r7, [sp], #4
 260 0038 7047     		bx	lr
 261              	.L14:
 262 003a 00BF     		.align	2
 263              	.L13:
 264 003c 00380240 		.word	1073887232
 265 0040 00380140 		.word	1073821696
 267              		.ident	"GCC: (GNU) 13.3.0"
ARM GAS  C:\msys64\tmp\ccAnnLsi.s 			page 6

