ARM GAS  C:\msys64\tmp\ccXaZRRw.s 			page 1


   1              		.cpu cortex-m7
   2              		.arch armv7e-m
   3              		.fpu fpv5-sp-d16
   4              		.eabi_attribute 27, 1
   5              		.eabi_attribute 28, 1
   6              		.eabi_attribute 20, 1
   7              		.eabi_attribute 21, 1
   8              		.eabi_attribute 23, 3
   9              		.eabi_attribute 24, 1
  10              		.eabi_attribute 25, 1
  11              		.eabi_attribute 26, 1
  12              		.eabi_attribute 30, 6
  13              		.eabi_attribute 34, 1
  14              		.eabi_attribute 18, 4
  15              		.file	"stm32f7xx_hal_tim_ex.c"
  16              		.text
  17              		.section	.text.HAL_TIMEx_HallSensor_Init,"ax",%progbits
  18              		.align	1
  19              		.global	HAL_TIMEx_HallSensor_Init
  20              		.syntax unified
  21              		.thumb
  22              		.thumb_func
  24              	HAL_TIMEx_HallSensor_Init:
  25              		@ args = 0, pretend = 0, frame = 40
  26              		@ frame_needed = 1, uses_anonymous_args = 0
  27 0000 80B5     		push	{r7, lr}
  28 0002 8AB0     		sub	sp, sp, #40
  29 0004 00AF     		add	r7, sp, #0
  30 0006 7860     		str	r0, [r7, #4]
  31 0008 3960     		str	r1, [r7]
  32 000a 7B68     		ldr	r3, [r7, #4]
  33 000c 002B     		cmp	r3, #0
  34 000e 01D1     		bne	.L2
  35 0010 0123     		movs	r3, #1
  36 0012 9AE0     		b	.L5
  37              	.L2:
  38 0014 7B68     		ldr	r3, [r7, #4]
  39 0016 93F83D30 		ldrb	r3, [r3, #61]
  40 001a DBB2     		uxtb	r3, r3
  41 001c 002B     		cmp	r3, #0
  42 001e 06D1     		bne	.L4
  43 0020 7B68     		ldr	r3, [r7, #4]
  44 0022 0022     		movs	r2, #0
  45 0024 83F83C20 		strb	r2, [r3, #60]
  46 0028 7868     		ldr	r0, [r7, #4]
  47 002a FFF7FEFF 		bl	HAL_TIMEx_HallSensor_MspInit
  48              	.L4:
  49 002e 7B68     		ldr	r3, [r7, #4]
  50 0030 0222     		movs	r2, #2
  51 0032 83F83D20 		strb	r2, [r3, #61]
  52 0036 7B68     		ldr	r3, [r7, #4]
  53 0038 1A68     		ldr	r2, [r3]
  54 003a 7B68     		ldr	r3, [r7, #4]
  55 003c 0433     		adds	r3, r3, #4
  56 003e 1946     		mov	r1, r3
  57 0040 1046     		mov	r0, r2
  58 0042 FFF7FEFF 		bl	TIM_Base_SetConfig
ARM GAS  C:\msys64\tmp\ccXaZRRw.s 			page 2


  59 0046 7B68     		ldr	r3, [r7, #4]
  60 0048 1868     		ldr	r0, [r3]
  61 004a 3B68     		ldr	r3, [r7]
  62 004c 1968     		ldr	r1, [r3]
  63 004e 3B68     		ldr	r3, [r7]
  64 0050 9B68     		ldr	r3, [r3, #8]
  65 0052 0322     		movs	r2, #3
  66 0054 FFF7FEFF 		bl	TIM_TI1_SetConfig
  67 0058 7B68     		ldr	r3, [r7, #4]
  68 005a 1B68     		ldr	r3, [r3]
  69 005c 9A69     		ldr	r2, [r3, #24]
  70 005e 7B68     		ldr	r3, [r7, #4]
  71 0060 1B68     		ldr	r3, [r3]
  72 0062 22F00C02 		bic	r2, r2, #12
  73 0066 9A61     		str	r2, [r3, #24]
  74 0068 7B68     		ldr	r3, [r7, #4]
  75 006a 1B68     		ldr	r3, [r3]
  76 006c 9969     		ldr	r1, [r3, #24]
  77 006e 3B68     		ldr	r3, [r7]
  78 0070 5A68     		ldr	r2, [r3, #4]
  79 0072 7B68     		ldr	r3, [r7, #4]
  80 0074 1B68     		ldr	r3, [r3]
  81 0076 0A43     		orrs	r2, r2, r1
  82 0078 9A61     		str	r2, [r3, #24]
  83 007a 7B68     		ldr	r3, [r7, #4]
  84 007c 1B68     		ldr	r3, [r3]
  85 007e 5A68     		ldr	r2, [r3, #4]
  86 0080 7B68     		ldr	r3, [r7, #4]
  87 0082 1B68     		ldr	r3, [r3]
  88 0084 42F08002 		orr	r2, r2, #128
  89 0088 5A60     		str	r2, [r3, #4]
  90 008a 7B68     		ldr	r3, [r7, #4]
  91 008c 1B68     		ldr	r3, [r3]
  92 008e 9A68     		ldr	r2, [r3, #8]
  93 0090 7B68     		ldr	r3, [r7, #4]
  94 0092 1B68     		ldr	r3, [r3]
  95 0094 22F07002 		bic	r2, r2, #112
  96 0098 9A60     		str	r2, [r3, #8]
  97 009a 7B68     		ldr	r3, [r7, #4]
  98 009c 1B68     		ldr	r3, [r3]
  99 009e 9A68     		ldr	r2, [r3, #8]
 100 00a0 7B68     		ldr	r3, [r7, #4]
 101 00a2 1B68     		ldr	r3, [r3]
 102 00a4 42F04002 		orr	r2, r2, #64
 103 00a8 9A60     		str	r2, [r3, #8]
 104 00aa 7B68     		ldr	r3, [r7, #4]
 105 00ac 1B68     		ldr	r3, [r3]
 106 00ae 9968     		ldr	r1, [r3, #8]
 107 00b0 7B68     		ldr	r3, [r7, #4]
 108 00b2 1A68     		ldr	r2, [r3]
 109 00b4 274B     		ldr	r3, .L6
 110 00b6 0B40     		ands	r3, r3, r1
 111 00b8 9360     		str	r3, [r2, #8]
 112 00ba 7B68     		ldr	r3, [r7, #4]
 113 00bc 1B68     		ldr	r3, [r3]
 114 00be 9A68     		ldr	r2, [r3, #8]
 115 00c0 7B68     		ldr	r3, [r7, #4]
ARM GAS  C:\msys64\tmp\ccXaZRRw.s 			page 3


 116 00c2 1B68     		ldr	r3, [r3]
 117 00c4 42F00402 		orr	r2, r2, #4
 118 00c8 9A60     		str	r2, [r3, #8]
 119 00ca 0023     		movs	r3, #0
 120 00cc FB61     		str	r3, [r7, #28]
 121 00ce 0023     		movs	r3, #0
 122 00d0 3B62     		str	r3, [r7, #32]
 123 00d2 7023     		movs	r3, #112
 124 00d4 FB60     		str	r3, [r7, #12]
 125 00d6 0023     		movs	r3, #0
 126 00d8 7B62     		str	r3, [r7, #36]
 127 00da 0023     		movs	r3, #0
 128 00dc BB61     		str	r3, [r7, #24]
 129 00de 0023     		movs	r3, #0
 130 00e0 7B61     		str	r3, [r7, #20]
 131 00e2 3B68     		ldr	r3, [r7]
 132 00e4 DB68     		ldr	r3, [r3, #12]
 133 00e6 3B61     		str	r3, [r7, #16]
 134 00e8 7B68     		ldr	r3, [r7, #4]
 135 00ea 1B68     		ldr	r3, [r3]
 136 00ec 07F10C02 		add	r2, r7, #12
 137 00f0 1146     		mov	r1, r2
 138 00f2 1846     		mov	r0, r3
 139 00f4 FFF7FEFF 		bl	TIM_OC2_SetConfig
 140 00f8 7B68     		ldr	r3, [r7, #4]
 141 00fa 1B68     		ldr	r3, [r3]
 142 00fc 5A68     		ldr	r2, [r3, #4]
 143 00fe 7B68     		ldr	r3, [r7, #4]
 144 0100 1B68     		ldr	r3, [r3]
 145 0102 22F07002 		bic	r2, r2, #112
 146 0106 5A60     		str	r2, [r3, #4]
 147 0108 7B68     		ldr	r3, [r7, #4]
 148 010a 1B68     		ldr	r3, [r3]
 149 010c 5A68     		ldr	r2, [r3, #4]
 150 010e 7B68     		ldr	r3, [r7, #4]
 151 0110 1B68     		ldr	r3, [r3]
 152 0112 42F05002 		orr	r2, r2, #80
 153 0116 5A60     		str	r2, [r3, #4]
 154 0118 7B68     		ldr	r3, [r7, #4]
 155 011a 0122     		movs	r2, #1
 156 011c 83F84820 		strb	r2, [r3, #72]
 157 0120 7B68     		ldr	r3, [r7, #4]
 158 0122 0122     		movs	r2, #1
 159 0124 83F83E20 		strb	r2, [r3, #62]
 160 0128 7B68     		ldr	r3, [r7, #4]
 161 012a 0122     		movs	r2, #1
 162 012c 83F83F20 		strb	r2, [r3, #63]
 163 0130 7B68     		ldr	r3, [r7, #4]
 164 0132 0122     		movs	r2, #1
 165 0134 83F84420 		strb	r2, [r3, #68]
 166 0138 7B68     		ldr	r3, [r7, #4]
 167 013a 0122     		movs	r2, #1
 168 013c 83F84520 		strb	r2, [r3, #69]
 169 0140 7B68     		ldr	r3, [r7, #4]
 170 0142 0122     		movs	r2, #1
 171 0144 83F83D20 		strb	r2, [r3, #61]
 172 0148 0023     		movs	r3, #0
ARM GAS  C:\msys64\tmp\ccXaZRRw.s 			page 4


 173              	.L5:
 174 014a 1846     		mov	r0, r3
 175 014c 2837     		adds	r7, r7, #40
 176 014e BD46     		mov	sp, r7
 177              		@ sp needed
 178 0150 80BD     		pop	{r7, pc}
 179              	.L7:
 180 0152 00BF     		.align	2
 181              	.L6:
 182 0154 F8FFFEFF 		.word	-65544
 184              		.section	.text.HAL_TIMEx_HallSensor_DeInit,"ax",%progbits
 185              		.align	1
 186              		.global	HAL_TIMEx_HallSensor_DeInit
 187              		.syntax unified
 188              		.thumb
 189              		.thumb_func
 191              	HAL_TIMEx_HallSensor_DeInit:
 192              		@ args = 0, pretend = 0, frame = 8
 193              		@ frame_needed = 1, uses_anonymous_args = 0
 194 0000 80B5     		push	{r7, lr}
 195 0002 82B0     		sub	sp, sp, #8
 196 0004 00AF     		add	r7, sp, #0
 197 0006 7860     		str	r0, [r7, #4]
 198 0008 7B68     		ldr	r3, [r7, #4]
 199 000a 0222     		movs	r2, #2
 200 000c 83F83D20 		strb	r2, [r3, #61]
 201 0010 7B68     		ldr	r3, [r7, #4]
 202 0012 1B68     		ldr	r3, [r3]
 203 0014 1A6A     		ldr	r2, [r3, #32]
 204 0016 1C4B     		ldr	r3, .L11
 205 0018 1340     		ands	r3, r3, r2
 206 001a 002B     		cmp	r3, #0
 207 001c 0FD1     		bne	.L9
 208 001e 7B68     		ldr	r3, [r7, #4]
 209 0020 1B68     		ldr	r3, [r3]
 210 0022 1A6A     		ldr	r2, [r3, #32]
 211 0024 40F24443 		movw	r3, #1092
 212 0028 1340     		ands	r3, r3, r2
 213 002a 002B     		cmp	r3, #0
 214 002c 07D1     		bne	.L9
 215 002e 7B68     		ldr	r3, [r7, #4]
 216 0030 1B68     		ldr	r3, [r3]
 217 0032 1A68     		ldr	r2, [r3]
 218 0034 7B68     		ldr	r3, [r7, #4]
 219 0036 1B68     		ldr	r3, [r3]
 220 0038 22F00102 		bic	r2, r2, #1
 221 003c 1A60     		str	r2, [r3]
 222              	.L9:
 223 003e 7868     		ldr	r0, [r7, #4]
 224 0040 FFF7FEFF 		bl	HAL_TIMEx_HallSensor_MspDeInit
 225 0044 7B68     		ldr	r3, [r7, #4]
 226 0046 0022     		movs	r2, #0
 227 0048 83F84820 		strb	r2, [r3, #72]
 228 004c 7B68     		ldr	r3, [r7, #4]
 229 004e 0022     		movs	r2, #0
 230 0050 83F83E20 		strb	r2, [r3, #62]
 231 0054 7B68     		ldr	r3, [r7, #4]
ARM GAS  C:\msys64\tmp\ccXaZRRw.s 			page 5


 232 0056 0022     		movs	r2, #0
 233 0058 83F83F20 		strb	r2, [r3, #63]
 234 005c 7B68     		ldr	r3, [r7, #4]
 235 005e 0022     		movs	r2, #0
 236 0060 83F84420 		strb	r2, [r3, #68]
 237 0064 7B68     		ldr	r3, [r7, #4]
 238 0066 0022     		movs	r2, #0
 239 0068 83F84520 		strb	r2, [r3, #69]
 240 006c 7B68     		ldr	r3, [r7, #4]
 241 006e 0022     		movs	r2, #0
 242 0070 83F83D20 		strb	r2, [r3, #61]
 243 0074 7B68     		ldr	r3, [r7, #4]
 244 0076 0022     		movs	r2, #0
 245 0078 83F83C20 		strb	r2, [r3, #60]
 246 007c 0023     		movs	r3, #0
 247 007e 1846     		mov	r0, r3
 248 0080 0837     		adds	r7, r7, #8
 249 0082 BD46     		mov	sp, r7
 250              		@ sp needed
 251 0084 80BD     		pop	{r7, pc}
 252              	.L12:
 253 0086 00BF     		.align	2
 254              	.L11:
 255 0088 11111100 		.word	1118481
 257              		.section	.text.HAL_TIMEx_HallSensor_MspInit,"ax",%progbits
 258              		.align	1
 259              		.weak	HAL_TIMEx_HallSensor_MspInit
 260              		.syntax unified
 261              		.thumb
 262              		.thumb_func
 264              	HAL_TIMEx_HallSensor_MspInit:
 265              		@ args = 0, pretend = 0, frame = 8
 266              		@ frame_needed = 1, uses_anonymous_args = 0
 267              		@ link register save eliminated.
 268 0000 80B4     		push	{r7}
 269 0002 83B0     		sub	sp, sp, #12
 270 0004 00AF     		add	r7, sp, #0
 271 0006 7860     		str	r0, [r7, #4]
 272 0008 00BF     		nop
 273 000a 0C37     		adds	r7, r7, #12
 274 000c BD46     		mov	sp, r7
 275              		@ sp needed
 276 000e 5DF8047B 		ldr	r7, [sp], #4
 277 0012 7047     		bx	lr
 279              		.section	.text.HAL_TIMEx_HallSensor_MspDeInit,"ax",%progbits
 280              		.align	1
 281              		.weak	HAL_TIMEx_HallSensor_MspDeInit
 282              		.syntax unified
 283              		.thumb
 284              		.thumb_func
 286              	HAL_TIMEx_HallSensor_MspDeInit:
 287              		@ args = 0, pretend = 0, frame = 8
 288              		@ frame_needed = 1, uses_anonymous_args = 0
 289              		@ link register save eliminated.
 290 0000 80B4     		push	{r7}
 291 0002 83B0     		sub	sp, sp, #12
 292 0004 00AF     		add	r7, sp, #0
ARM GAS  C:\msys64\tmp\ccXaZRRw.s 			page 6


 293 0006 7860     		str	r0, [r7, #4]
 294 0008 00BF     		nop
 295 000a 0C37     		adds	r7, r7, #12
 296 000c BD46     		mov	sp, r7
 297              		@ sp needed
 298 000e 5DF8047B 		ldr	r7, [sp], #4
 299 0012 7047     		bx	lr
 301              		.section	.text.HAL_TIMEx_HallSensor_Start,"ax",%progbits
 302              		.align	1
 303              		.global	HAL_TIMEx_HallSensor_Start
 304              		.syntax unified
 305              		.thumb
 306              		.thumb_func
 308              	HAL_TIMEx_HallSensor_Start:
 309              		@ args = 0, pretend = 0, frame = 16
 310              		@ frame_needed = 1, uses_anonymous_args = 0
 311 0000 80B5     		push	{r7, lr}
 312 0002 84B0     		sub	sp, sp, #16
 313 0004 00AF     		add	r7, sp, #0
 314 0006 7860     		str	r0, [r7, #4]
 315 0008 7B68     		ldr	r3, [r7, #4]
 316 000a 93F83E30 		ldrb	r3, [r3, #62]
 317 000e FB73     		strb	r3, [r7, #15]
 318 0010 7B68     		ldr	r3, [r7, #4]
 319 0012 93F83F30 		ldrb	r3, [r3, #63]
 320 0016 BB73     		strb	r3, [r7, #14]
 321 0018 7B68     		ldr	r3, [r7, #4]
 322 001a 93F84430 		ldrb	r3, [r3, #68]
 323 001e 7B73     		strb	r3, [r7, #13]
 324 0020 7B68     		ldr	r3, [r7, #4]
 325 0022 93F84530 		ldrb	r3, [r3, #69]
 326 0026 3B73     		strb	r3, [r7, #12]
 327 0028 FB7B     		ldrb	r3, [r7, #15]	@ zero_extendqisi2
 328 002a 012B     		cmp	r3, #1
 329 002c 08D1     		bne	.L16
 330 002e BB7B     		ldrb	r3, [r7, #14]	@ zero_extendqisi2
 331 0030 012B     		cmp	r3, #1
 332 0032 05D1     		bne	.L16
 333 0034 7B7B     		ldrb	r3, [r7, #13]	@ zero_extendqisi2
 334 0036 012B     		cmp	r3, #1
 335 0038 02D1     		bne	.L16
 336 003a 3B7B     		ldrb	r3, [r7, #12]	@ zero_extendqisi2
 337 003c 012B     		cmp	r3, #1
 338 003e 01D0     		beq	.L17
 339              	.L16:
 340 0040 0123     		movs	r3, #1
 341 0042 5FE0     		b	.L18
 342              	.L17:
 343 0044 7B68     		ldr	r3, [r7, #4]
 344 0046 0222     		movs	r2, #2
 345 0048 83F83E20 		strb	r2, [r3, #62]
 346 004c 7B68     		ldr	r3, [r7, #4]
 347 004e 0222     		movs	r2, #2
 348 0050 83F83F20 		strb	r2, [r3, #63]
 349 0054 7B68     		ldr	r3, [r7, #4]
 350 0056 0222     		movs	r2, #2
 351 0058 83F84420 		strb	r2, [r3, #68]
ARM GAS  C:\msys64\tmp\ccXaZRRw.s 			page 7


 352 005c 7B68     		ldr	r3, [r7, #4]
 353 005e 0222     		movs	r2, #2
 354 0060 83F84520 		strb	r2, [r3, #69]
 355 0064 7B68     		ldr	r3, [r7, #4]
 356 0066 1B68     		ldr	r3, [r3]
 357 0068 0122     		movs	r2, #1
 358 006a 0021     		movs	r1, #0
 359 006c 1846     		mov	r0, r3
 360 006e FFF7FEFF 		bl	TIM_CCxChannelCmd
 361 0072 7B68     		ldr	r3, [r7, #4]
 362 0074 1B68     		ldr	r3, [r3]
 363 0076 254A     		ldr	r2, .L24
 364 0078 9342     		cmp	r3, r2
 365 007a 22D0     		beq	.L19
 366 007c 7B68     		ldr	r3, [r7, #4]
 367 007e 1B68     		ldr	r3, [r3]
 368 0080 B3F1804F 		cmp	r3, #1073741824
 369 0084 1DD0     		beq	.L19
 370 0086 7B68     		ldr	r3, [r7, #4]
 371 0088 1B68     		ldr	r3, [r3]
 372 008a 214A     		ldr	r2, .L24+4
 373 008c 9342     		cmp	r3, r2
 374 008e 18D0     		beq	.L19
 375 0090 7B68     		ldr	r3, [r7, #4]
 376 0092 1B68     		ldr	r3, [r3]
 377 0094 1F4A     		ldr	r2, .L24+8
 378 0096 9342     		cmp	r3, r2
 379 0098 13D0     		beq	.L19
 380 009a 7B68     		ldr	r3, [r7, #4]
 381 009c 1B68     		ldr	r3, [r3]
 382 009e 1E4A     		ldr	r2, .L24+12
 383 00a0 9342     		cmp	r3, r2
 384 00a2 0ED0     		beq	.L19
 385 00a4 7B68     		ldr	r3, [r7, #4]
 386 00a6 1B68     		ldr	r3, [r3]
 387 00a8 1C4A     		ldr	r2, .L24+16
 388 00aa 9342     		cmp	r3, r2
 389 00ac 09D0     		beq	.L19
 390 00ae 7B68     		ldr	r3, [r7, #4]
 391 00b0 1B68     		ldr	r3, [r3]
 392 00b2 1B4A     		ldr	r2, .L24+20
 393 00b4 9342     		cmp	r3, r2
 394 00b6 04D0     		beq	.L19
 395 00b8 7B68     		ldr	r3, [r7, #4]
 396 00ba 1B68     		ldr	r3, [r3]
 397 00bc 194A     		ldr	r2, .L24+24
 398 00be 9342     		cmp	r3, r2
 399 00c0 15D1     		bne	.L20
 400              	.L19:
 401 00c2 7B68     		ldr	r3, [r7, #4]
 402 00c4 1B68     		ldr	r3, [r3]
 403 00c6 9A68     		ldr	r2, [r3, #8]
 404 00c8 174B     		ldr	r3, .L24+28
 405 00ca 1340     		ands	r3, r3, r2
 406 00cc BB60     		str	r3, [r7, #8]
 407 00ce BB68     		ldr	r3, [r7, #8]
 408 00d0 062B     		cmp	r3, #6
ARM GAS  C:\msys64\tmp\ccXaZRRw.s 			page 8


 409 00d2 15D0     		beq	.L23
 410 00d4 BB68     		ldr	r3, [r7, #8]
 411 00d6 B3F5803F 		cmp	r3, #65536
 412 00da 11D0     		beq	.L23
 413 00dc 7B68     		ldr	r3, [r7, #4]
 414 00de 1B68     		ldr	r3, [r3]
 415 00e0 1A68     		ldr	r2, [r3]
 416 00e2 7B68     		ldr	r3, [r7, #4]
 417 00e4 1B68     		ldr	r3, [r3]
 418 00e6 42F00102 		orr	r2, r2, #1
 419 00ea 1A60     		str	r2, [r3]
 420 00ec 08E0     		b	.L23
 421              	.L20:
 422 00ee 7B68     		ldr	r3, [r7, #4]
 423 00f0 1B68     		ldr	r3, [r3]
 424 00f2 1A68     		ldr	r2, [r3]
 425 00f4 7B68     		ldr	r3, [r7, #4]
 426 00f6 1B68     		ldr	r3, [r3]
 427 00f8 42F00102 		orr	r2, r2, #1
 428 00fc 1A60     		str	r2, [r3]
 429 00fe 00E0     		b	.L22
 430              	.L23:
 431 0100 00BF     		nop
 432              	.L22:
 433 0102 0023     		movs	r3, #0
 434              	.L18:
 435 0104 1846     		mov	r0, r3
 436 0106 1037     		adds	r7, r7, #16
 437 0108 BD46     		mov	sp, r7
 438              		@ sp needed
 439 010a 80BD     		pop	{r7, pc}
 440              	.L25:
 441              		.align	2
 442              	.L24:
 443 010c 00000140 		.word	1073807360
 444 0110 00040040 		.word	1073742848
 445 0114 00080040 		.word	1073743872
 446 0118 000C0040 		.word	1073744896
 447 011c 00040140 		.word	1073808384
 448 0120 00400140 		.word	1073823744
 449 0124 00180040 		.word	1073747968
 450 0128 07000100 		.word	65543
 452              		.section	.text.HAL_TIMEx_HallSensor_Stop,"ax",%progbits
 453              		.align	1
 454              		.global	HAL_TIMEx_HallSensor_Stop
 455              		.syntax unified
 456              		.thumb
 457              		.thumb_func
 459              	HAL_TIMEx_HallSensor_Stop:
 460              		@ args = 0, pretend = 0, frame = 8
 461              		@ frame_needed = 1, uses_anonymous_args = 0
 462 0000 80B5     		push	{r7, lr}
 463 0002 82B0     		sub	sp, sp, #8
 464 0004 00AF     		add	r7, sp, #0
 465 0006 7860     		str	r0, [r7, #4]
 466 0008 7B68     		ldr	r3, [r7, #4]
 467 000a 1B68     		ldr	r3, [r3]
ARM GAS  C:\msys64\tmp\ccXaZRRw.s 			page 9


 468 000c 0022     		movs	r2, #0
 469 000e 0021     		movs	r1, #0
 470 0010 1846     		mov	r0, r3
 471 0012 FFF7FEFF 		bl	TIM_CCxChannelCmd
 472 0016 7B68     		ldr	r3, [r7, #4]
 473 0018 1B68     		ldr	r3, [r3]
 474 001a 1A6A     		ldr	r2, [r3, #32]
 475 001c 144B     		ldr	r3, .L29
 476 001e 1340     		ands	r3, r3, r2
 477 0020 002B     		cmp	r3, #0
 478 0022 0FD1     		bne	.L27
 479 0024 7B68     		ldr	r3, [r7, #4]
 480 0026 1B68     		ldr	r3, [r3]
 481 0028 1A6A     		ldr	r2, [r3, #32]
 482 002a 40F24443 		movw	r3, #1092
 483 002e 1340     		ands	r3, r3, r2
 484 0030 002B     		cmp	r3, #0
 485 0032 07D1     		bne	.L27
 486 0034 7B68     		ldr	r3, [r7, #4]
 487 0036 1B68     		ldr	r3, [r3]
 488 0038 1A68     		ldr	r2, [r3]
 489 003a 7B68     		ldr	r3, [r7, #4]
 490 003c 1B68     		ldr	r3, [r3]
 491 003e 22F00102 		bic	r2, r2, #1
 492 0042 1A60     		str	r2, [r3]
 493              	.L27:
 494 0044 7B68     		ldr	r3, [r7, #4]
 495 0046 0122     		movs	r2, #1
 496 0048 83F83E20 		strb	r2, [r3, #62]
 497 004c 7B68     		ldr	r3, [r7, #4]
 498 004e 0122     		movs	r2, #1
 499 0050 83F83F20 		strb	r2, [r3, #63]
 500 0054 7B68     		ldr	r3, [r7, #4]
 501 0056 0122     		movs	r2, #1
 502 0058 83F84420 		strb	r2, [r3, #68]
 503 005c 7B68     		ldr	r3, [r7, #4]
 504 005e 0122     		movs	r2, #1
 505 0060 83F84520 		strb	r2, [r3, #69]
 506 0064 0023     		movs	r3, #0
 507 0066 1846     		mov	r0, r3
 508 0068 0837     		adds	r7, r7, #8
 509 006a BD46     		mov	sp, r7
 510              		@ sp needed
 511 006c 80BD     		pop	{r7, pc}
 512              	.L30:
 513 006e 00BF     		.align	2
 514              	.L29:
 515 0070 11111100 		.word	1118481
 517              		.section	.text.HAL_TIMEx_HallSensor_Start_IT,"ax",%progbits
 518              		.align	1
 519              		.global	HAL_TIMEx_HallSensor_Start_IT
 520              		.syntax unified
 521              		.thumb
 522              		.thumb_func
 524              	HAL_TIMEx_HallSensor_Start_IT:
 525              		@ args = 0, pretend = 0, frame = 16
 526              		@ frame_needed = 1, uses_anonymous_args = 0
ARM GAS  C:\msys64\tmp\ccXaZRRw.s 			page 10


 527 0000 80B5     		push	{r7, lr}
 528 0002 84B0     		sub	sp, sp, #16
 529 0004 00AF     		add	r7, sp, #0
 530 0006 7860     		str	r0, [r7, #4]
 531 0008 7B68     		ldr	r3, [r7, #4]
 532 000a 93F83E30 		ldrb	r3, [r3, #62]
 533 000e FB73     		strb	r3, [r7, #15]
 534 0010 7B68     		ldr	r3, [r7, #4]
 535 0012 93F83F30 		ldrb	r3, [r3, #63]
 536 0016 BB73     		strb	r3, [r7, #14]
 537 0018 7B68     		ldr	r3, [r7, #4]
 538 001a 93F84430 		ldrb	r3, [r3, #68]
 539 001e 7B73     		strb	r3, [r7, #13]
 540 0020 7B68     		ldr	r3, [r7, #4]
 541 0022 93F84530 		ldrb	r3, [r3, #69]
 542 0026 3B73     		strb	r3, [r7, #12]
 543 0028 FB7B     		ldrb	r3, [r7, #15]	@ zero_extendqisi2
 544 002a 012B     		cmp	r3, #1
 545 002c 08D1     		bne	.L32
 546 002e BB7B     		ldrb	r3, [r7, #14]	@ zero_extendqisi2
 547 0030 012B     		cmp	r3, #1
 548 0032 05D1     		bne	.L32
 549 0034 7B7B     		ldrb	r3, [r7, #13]	@ zero_extendqisi2
 550 0036 012B     		cmp	r3, #1
 551 0038 02D1     		bne	.L32
 552 003a 3B7B     		ldrb	r3, [r7, #12]	@ zero_extendqisi2
 553 003c 012B     		cmp	r3, #1
 554 003e 01D0     		beq	.L33
 555              	.L32:
 556 0040 0123     		movs	r3, #1
 557 0042 67E0     		b	.L34
 558              	.L33:
 559 0044 7B68     		ldr	r3, [r7, #4]
 560 0046 0222     		movs	r2, #2
 561 0048 83F83E20 		strb	r2, [r3, #62]
 562 004c 7B68     		ldr	r3, [r7, #4]
 563 004e 0222     		movs	r2, #2
 564 0050 83F83F20 		strb	r2, [r3, #63]
 565 0054 7B68     		ldr	r3, [r7, #4]
 566 0056 0222     		movs	r2, #2
 567 0058 83F84420 		strb	r2, [r3, #68]
 568 005c 7B68     		ldr	r3, [r7, #4]
 569 005e 0222     		movs	r2, #2
 570 0060 83F84520 		strb	r2, [r3, #69]
 571 0064 7B68     		ldr	r3, [r7, #4]
 572 0066 1B68     		ldr	r3, [r3]
 573 0068 DA68     		ldr	r2, [r3, #12]
 574 006a 7B68     		ldr	r3, [r7, #4]
 575 006c 1B68     		ldr	r3, [r3]
 576 006e 42F00202 		orr	r2, r2, #2
 577 0072 DA60     		str	r2, [r3, #12]
 578 0074 7B68     		ldr	r3, [r7, #4]
 579 0076 1B68     		ldr	r3, [r3]
 580 0078 0122     		movs	r2, #1
 581 007a 0021     		movs	r1, #0
 582 007c 1846     		mov	r0, r3
 583 007e FFF7FEFF 		bl	TIM_CCxChannelCmd
ARM GAS  C:\msys64\tmp\ccXaZRRw.s 			page 11


 584 0082 7B68     		ldr	r3, [r7, #4]
 585 0084 1B68     		ldr	r3, [r3]
 586 0086 254A     		ldr	r2, .L40
 587 0088 9342     		cmp	r3, r2
 588 008a 22D0     		beq	.L35
 589 008c 7B68     		ldr	r3, [r7, #4]
 590 008e 1B68     		ldr	r3, [r3]
 591 0090 B3F1804F 		cmp	r3, #1073741824
 592 0094 1DD0     		beq	.L35
 593 0096 7B68     		ldr	r3, [r7, #4]
 594 0098 1B68     		ldr	r3, [r3]
 595 009a 214A     		ldr	r2, .L40+4
 596 009c 9342     		cmp	r3, r2
 597 009e 18D0     		beq	.L35
 598 00a0 7B68     		ldr	r3, [r7, #4]
 599 00a2 1B68     		ldr	r3, [r3]
 600 00a4 1F4A     		ldr	r2, .L40+8
 601 00a6 9342     		cmp	r3, r2
 602 00a8 13D0     		beq	.L35
 603 00aa 7B68     		ldr	r3, [r7, #4]
 604 00ac 1B68     		ldr	r3, [r3]
 605 00ae 1E4A     		ldr	r2, .L40+12
 606 00b0 9342     		cmp	r3, r2
 607 00b2 0ED0     		beq	.L35
 608 00b4 7B68     		ldr	r3, [r7, #4]
 609 00b6 1B68     		ldr	r3, [r3]
 610 00b8 1C4A     		ldr	r2, .L40+16
 611 00ba 9342     		cmp	r3, r2
 612 00bc 09D0     		beq	.L35
 613 00be 7B68     		ldr	r3, [r7, #4]
 614 00c0 1B68     		ldr	r3, [r3]
 615 00c2 1B4A     		ldr	r2, .L40+20
 616 00c4 9342     		cmp	r3, r2
 617 00c6 04D0     		beq	.L35
 618 00c8 7B68     		ldr	r3, [r7, #4]
 619 00ca 1B68     		ldr	r3, [r3]
 620 00cc 194A     		ldr	r2, .L40+24
 621 00ce 9342     		cmp	r3, r2
 622 00d0 15D1     		bne	.L36
 623              	.L35:
 624 00d2 7B68     		ldr	r3, [r7, #4]
 625 00d4 1B68     		ldr	r3, [r3]
 626 00d6 9A68     		ldr	r2, [r3, #8]
 627 00d8 174B     		ldr	r3, .L40+28
 628 00da 1340     		ands	r3, r3, r2
 629 00dc BB60     		str	r3, [r7, #8]
 630 00de BB68     		ldr	r3, [r7, #8]
 631 00e0 062B     		cmp	r3, #6
 632 00e2 15D0     		beq	.L39
 633 00e4 BB68     		ldr	r3, [r7, #8]
 634 00e6 B3F5803F 		cmp	r3, #65536
 635 00ea 11D0     		beq	.L39
 636 00ec 7B68     		ldr	r3, [r7, #4]
 637 00ee 1B68     		ldr	r3, [r3]
 638 00f0 1A68     		ldr	r2, [r3]
 639 00f2 7B68     		ldr	r3, [r7, #4]
 640 00f4 1B68     		ldr	r3, [r3]
ARM GAS  C:\msys64\tmp\ccXaZRRw.s 			page 12


 641 00f6 42F00102 		orr	r2, r2, #1
 642 00fa 1A60     		str	r2, [r3]
 643 00fc 08E0     		b	.L39
 644              	.L36:
 645 00fe 7B68     		ldr	r3, [r7, #4]
 646 0100 1B68     		ldr	r3, [r3]
 647 0102 1A68     		ldr	r2, [r3]
 648 0104 7B68     		ldr	r3, [r7, #4]
 649 0106 1B68     		ldr	r3, [r3]
 650 0108 42F00102 		orr	r2, r2, #1
 651 010c 1A60     		str	r2, [r3]
 652 010e 00E0     		b	.L38
 653              	.L39:
 654 0110 00BF     		nop
 655              	.L38:
 656 0112 0023     		movs	r3, #0
 657              	.L34:
 658 0114 1846     		mov	r0, r3
 659 0116 1037     		adds	r7, r7, #16
 660 0118 BD46     		mov	sp, r7
 661              		@ sp needed
 662 011a 80BD     		pop	{r7, pc}
 663              	.L41:
 664              		.align	2
 665              	.L40:
 666 011c 00000140 		.word	1073807360
 667 0120 00040040 		.word	1073742848
 668 0124 00080040 		.word	1073743872
 669 0128 000C0040 		.word	1073744896
 670 012c 00040140 		.word	1073808384
 671 0130 00400140 		.word	1073823744
 672 0134 00180040 		.word	1073747968
 673 0138 07000100 		.word	65543
 675              		.section	.text.HAL_TIMEx_HallSensor_Stop_IT,"ax",%progbits
 676              		.align	1
 677              		.global	HAL_TIMEx_HallSensor_Stop_IT
 678              		.syntax unified
 679              		.thumb
 680              		.thumb_func
 682              	HAL_TIMEx_HallSensor_Stop_IT:
 683              		@ args = 0, pretend = 0, frame = 8
 684              		@ frame_needed = 1, uses_anonymous_args = 0
 685 0000 80B5     		push	{r7, lr}
 686 0002 82B0     		sub	sp, sp, #8
 687 0004 00AF     		add	r7, sp, #0
 688 0006 7860     		str	r0, [r7, #4]
 689 0008 7B68     		ldr	r3, [r7, #4]
 690 000a 1B68     		ldr	r3, [r3]
 691 000c 0022     		movs	r2, #0
 692 000e 0021     		movs	r1, #0
 693 0010 1846     		mov	r0, r3
 694 0012 FFF7FEFF 		bl	TIM_CCxChannelCmd
 695 0016 7B68     		ldr	r3, [r7, #4]
 696 0018 1B68     		ldr	r3, [r3]
 697 001a DA68     		ldr	r2, [r3, #12]
 698 001c 7B68     		ldr	r3, [r7, #4]
 699 001e 1B68     		ldr	r3, [r3]
ARM GAS  C:\msys64\tmp\ccXaZRRw.s 			page 13


 700 0020 22F00202 		bic	r2, r2, #2
 701 0024 DA60     		str	r2, [r3, #12]
 702 0026 7B68     		ldr	r3, [r7, #4]
 703 0028 1B68     		ldr	r3, [r3]
 704 002a 1A6A     		ldr	r2, [r3, #32]
 705 002c 144B     		ldr	r3, .L45
 706 002e 1340     		ands	r3, r3, r2
 707 0030 002B     		cmp	r3, #0
 708 0032 0FD1     		bne	.L43
 709 0034 7B68     		ldr	r3, [r7, #4]
 710 0036 1B68     		ldr	r3, [r3]
 711 0038 1A6A     		ldr	r2, [r3, #32]
 712 003a 40F24443 		movw	r3, #1092
 713 003e 1340     		ands	r3, r3, r2
 714 0040 002B     		cmp	r3, #0
 715 0042 07D1     		bne	.L43
 716 0044 7B68     		ldr	r3, [r7, #4]
 717 0046 1B68     		ldr	r3, [r3]
 718 0048 1A68     		ldr	r2, [r3]
 719 004a 7B68     		ldr	r3, [r7, #4]
 720 004c 1B68     		ldr	r3, [r3]
 721 004e 22F00102 		bic	r2, r2, #1
 722 0052 1A60     		str	r2, [r3]
 723              	.L43:
 724 0054 7B68     		ldr	r3, [r7, #4]
 725 0056 0122     		movs	r2, #1
 726 0058 83F83E20 		strb	r2, [r3, #62]
 727 005c 7B68     		ldr	r3, [r7, #4]
 728 005e 0122     		movs	r2, #1
 729 0060 83F83F20 		strb	r2, [r3, #63]
 730 0064 7B68     		ldr	r3, [r7, #4]
 731 0066 0122     		movs	r2, #1
 732 0068 83F84420 		strb	r2, [r3, #68]
 733 006c 7B68     		ldr	r3, [r7, #4]
 734 006e 0122     		movs	r2, #1
 735 0070 83F84520 		strb	r2, [r3, #69]
 736 0074 0023     		movs	r3, #0
 737 0076 1846     		mov	r0, r3
 738 0078 0837     		adds	r7, r7, #8
 739 007a BD46     		mov	sp, r7
 740              		@ sp needed
 741 007c 80BD     		pop	{r7, pc}
 742              	.L46:
 743 007e 00BF     		.align	2
 744              	.L45:
 745 0080 11111100 		.word	1118481
 747              		.section	.text.HAL_TIMEx_HallSensor_Start_DMA,"ax",%progbits
 748              		.align	1
 749              		.global	HAL_TIMEx_HallSensor_Start_DMA
 750              		.syntax unified
 751              		.thumb
 752              		.thumb_func
 754              	HAL_TIMEx_HallSensor_Start_DMA:
 755              		@ args = 0, pretend = 0, frame = 24
 756              		@ frame_needed = 1, uses_anonymous_args = 0
 757 0000 80B5     		push	{r7, lr}
 758 0002 86B0     		sub	sp, sp, #24
ARM GAS  C:\msys64\tmp\ccXaZRRw.s 			page 14


 759 0004 00AF     		add	r7, sp, #0
 760 0006 F860     		str	r0, [r7, #12]
 761 0008 B960     		str	r1, [r7, #8]
 762 000a 1346     		mov	r3, r2
 763 000c FB80     		strh	r3, [r7, #6]	@ movhi
 764 000e FB68     		ldr	r3, [r7, #12]
 765 0010 93F83E30 		ldrb	r3, [r3, #62]
 766 0014 FB75     		strb	r3, [r7, #23]
 767 0016 FB68     		ldr	r3, [r7, #12]
 768 0018 93F84430 		ldrb	r3, [r3, #68]
 769 001c BB75     		strb	r3, [r7, #22]
 770 001e FB7D     		ldrb	r3, [r7, #23]	@ zero_extendqisi2
 771 0020 022B     		cmp	r3, #2
 772 0022 02D0     		beq	.L48
 773 0024 BB7D     		ldrb	r3, [r7, #22]	@ zero_extendqisi2
 774 0026 022B     		cmp	r3, #2
 775 0028 01D1     		bne	.L49
 776              	.L48:
 777 002a 0223     		movs	r3, #2
 778 002c 8CE0     		b	.L50
 779              	.L49:
 780 002e FB7D     		ldrb	r3, [r7, #23]	@ zero_extendqisi2
 781 0030 012B     		cmp	r3, #1
 782 0032 34D1     		bne	.L51
 783 0034 BB7D     		ldrb	r3, [r7, #22]	@ zero_extendqisi2
 784 0036 012B     		cmp	r3, #1
 785 0038 31D1     		bne	.L51
 786 003a BB68     		ldr	r3, [r7, #8]
 787 003c 002B     		cmp	r3, #0
 788 003e 02D0     		beq	.L52
 789 0040 FB88     		ldrh	r3, [r7, #6]
 790 0042 002B     		cmp	r3, #0
 791 0044 01D1     		bne	.L53
 792              	.L52:
 793 0046 0123     		movs	r3, #1
 794 0048 7EE0     		b	.L50
 795              	.L53:
 796 004a FB68     		ldr	r3, [r7, #12]
 797 004c 0222     		movs	r2, #2
 798 004e 83F83E20 		strb	r2, [r3, #62]
 799 0052 FB68     		ldr	r3, [r7, #12]
 800 0054 0222     		movs	r2, #2
 801 0056 83F84420 		strb	r2, [r3, #68]
 802 005a 00BF     		nop
 803 005c FB68     		ldr	r3, [r7, #12]
 804 005e 1B68     		ldr	r3, [r3]
 805 0060 0122     		movs	r2, #1
 806 0062 0021     		movs	r1, #0
 807 0064 1846     		mov	r0, r3
 808 0066 FFF7FEFF 		bl	TIM_CCxChannelCmd
 809 006a FB68     		ldr	r3, [r7, #12]
 810 006c 5B6A     		ldr	r3, [r3, #36]
 811 006e 384A     		ldr	r2, .L62
 812 0070 DA63     		str	r2, [r3, #60]
 813 0072 FB68     		ldr	r3, [r7, #12]
 814 0074 5B6A     		ldr	r3, [r3, #36]
 815 0076 374A     		ldr	r2, .L62+4
ARM GAS  C:\msys64\tmp\ccXaZRRw.s 			page 15


 816 0078 1A64     		str	r2, [r3, #64]
 817 007a FB68     		ldr	r3, [r7, #12]
 818 007c 5B6A     		ldr	r3, [r3, #36]
 819 007e 364A     		ldr	r2, .L62+8
 820 0080 DA64     		str	r2, [r3, #76]
 821 0082 FB68     		ldr	r3, [r7, #12]
 822 0084 586A     		ldr	r0, [r3, #36]
 823 0086 FB68     		ldr	r3, [r7, #12]
 824 0088 1B68     		ldr	r3, [r3]
 825 008a 3433     		adds	r3, r3, #52
 826 008c 1946     		mov	r1, r3
 827 008e BA68     		ldr	r2, [r7, #8]
 828 0090 FB88     		ldrh	r3, [r7, #6]
 829 0092 FFF7FEFF 		bl	HAL_DMA_Start_IT
 830 0096 0346     		mov	r3, r0
 831 0098 002B     		cmp	r3, #0
 832 009a 04D0     		beq	.L55
 833 009c 01E0     		b	.L60
 834              	.L51:
 835 009e 0123     		movs	r3, #1
 836 00a0 52E0     		b	.L50
 837              	.L60:
 838 00a2 0123     		movs	r3, #1
 839 00a4 50E0     		b	.L50
 840              	.L55:
 841 00a6 FB68     		ldr	r3, [r7, #12]
 842 00a8 1B68     		ldr	r3, [r3]
 843 00aa DA68     		ldr	r2, [r3, #12]
 844 00ac FB68     		ldr	r3, [r7, #12]
 845 00ae 1B68     		ldr	r3, [r3]
 846 00b0 42F40072 		orr	r2, r2, #512
 847 00b4 DA60     		str	r2, [r3, #12]
 848 00b6 FB68     		ldr	r3, [r7, #12]
 849 00b8 1B68     		ldr	r3, [r3]
 850 00ba 284A     		ldr	r2, .L62+12
 851 00bc 9342     		cmp	r3, r2
 852 00be 22D0     		beq	.L56
 853 00c0 FB68     		ldr	r3, [r7, #12]
 854 00c2 1B68     		ldr	r3, [r3]
 855 00c4 B3F1804F 		cmp	r3, #1073741824
 856 00c8 1DD0     		beq	.L56
 857 00ca FB68     		ldr	r3, [r7, #12]
 858 00cc 1B68     		ldr	r3, [r3]
 859 00ce 244A     		ldr	r2, .L62+16
 860 00d0 9342     		cmp	r3, r2
 861 00d2 18D0     		beq	.L56
 862 00d4 FB68     		ldr	r3, [r7, #12]
 863 00d6 1B68     		ldr	r3, [r3]
 864 00d8 224A     		ldr	r2, .L62+20
 865 00da 9342     		cmp	r3, r2
 866 00dc 13D0     		beq	.L56
 867 00de FB68     		ldr	r3, [r7, #12]
 868 00e0 1B68     		ldr	r3, [r3]
 869 00e2 214A     		ldr	r2, .L62+24
 870 00e4 9342     		cmp	r3, r2
 871 00e6 0ED0     		beq	.L56
 872 00e8 FB68     		ldr	r3, [r7, #12]
ARM GAS  C:\msys64\tmp\ccXaZRRw.s 			page 16


 873 00ea 1B68     		ldr	r3, [r3]
 874 00ec 1F4A     		ldr	r2, .L62+28
 875 00ee 9342     		cmp	r3, r2
 876 00f0 09D0     		beq	.L56
 877 00f2 FB68     		ldr	r3, [r7, #12]
 878 00f4 1B68     		ldr	r3, [r3]
 879 00f6 1E4A     		ldr	r2, .L62+32
 880 00f8 9342     		cmp	r3, r2
 881 00fa 04D0     		beq	.L56
 882 00fc FB68     		ldr	r3, [r7, #12]
 883 00fe 1B68     		ldr	r3, [r3]
 884 0100 1C4A     		ldr	r2, .L62+36
 885 0102 9342     		cmp	r3, r2
 886 0104 15D1     		bne	.L57
 887              	.L56:
 888 0106 FB68     		ldr	r3, [r7, #12]
 889 0108 1B68     		ldr	r3, [r3]
 890 010a 9A68     		ldr	r2, [r3, #8]
 891 010c 1A4B     		ldr	r3, .L62+40
 892 010e 1340     		ands	r3, r3, r2
 893 0110 3B61     		str	r3, [r7, #16]
 894 0112 3B69     		ldr	r3, [r7, #16]
 895 0114 062B     		cmp	r3, #6
 896 0116 15D0     		beq	.L61
 897 0118 3B69     		ldr	r3, [r7, #16]
 898 011a B3F5803F 		cmp	r3, #65536
 899 011e 11D0     		beq	.L61
 900 0120 FB68     		ldr	r3, [r7, #12]
 901 0122 1B68     		ldr	r3, [r3]
 902 0124 1A68     		ldr	r2, [r3]
 903 0126 FB68     		ldr	r3, [r7, #12]
 904 0128 1B68     		ldr	r3, [r3]
 905 012a 42F00102 		orr	r2, r2, #1
 906 012e 1A60     		str	r2, [r3]
 907 0130 08E0     		b	.L61
 908              	.L57:
 909 0132 FB68     		ldr	r3, [r7, #12]
 910 0134 1B68     		ldr	r3, [r3]
 911 0136 1A68     		ldr	r2, [r3]
 912 0138 FB68     		ldr	r3, [r7, #12]
 913 013a 1B68     		ldr	r3, [r3]
 914 013c 42F00102 		orr	r2, r2, #1
 915 0140 1A60     		str	r2, [r3]
 916 0142 00E0     		b	.L59
 917              	.L61:
 918 0144 00BF     		nop
 919              	.L59:
 920 0146 0023     		movs	r3, #0
 921              	.L50:
 922 0148 1846     		mov	r0, r3
 923 014a 1837     		adds	r7, r7, #24
 924 014c BD46     		mov	sp, r7
 925              		@ sp needed
 926 014e 80BD     		pop	{r7, pc}
 927              	.L63:
 928              		.align	2
 929              	.L62:
ARM GAS  C:\msys64\tmp\ccXaZRRw.s 			page 17


 930 0150 00000000 		.word	TIM_DMACaptureCplt
 931 0154 00000000 		.word	TIM_DMACaptureHalfCplt
 932 0158 00000000 		.word	TIM_DMAError
 933 015c 00000140 		.word	1073807360
 934 0160 00040040 		.word	1073742848
 935 0164 00080040 		.word	1073743872
 936 0168 000C0040 		.word	1073744896
 937 016c 00040140 		.word	1073808384
 938 0170 00400140 		.word	1073823744
 939 0174 00180040 		.word	1073747968
 940 0178 07000100 		.word	65543
 942              		.section	.text.HAL_TIMEx_HallSensor_Stop_DMA,"ax",%progbits
 943              		.align	1
 944              		.global	HAL_TIMEx_HallSensor_Stop_DMA
 945              		.syntax unified
 946              		.thumb
 947              		.thumb_func
 949              	HAL_TIMEx_HallSensor_Stop_DMA:
 950              		@ args = 0, pretend = 0, frame = 8
 951              		@ frame_needed = 1, uses_anonymous_args = 0
 952 0000 80B5     		push	{r7, lr}
 953 0002 82B0     		sub	sp, sp, #8
 954 0004 00AF     		add	r7, sp, #0
 955 0006 7860     		str	r0, [r7, #4]
 956 0008 7B68     		ldr	r3, [r7, #4]
 957 000a 1B68     		ldr	r3, [r3]
 958 000c 0022     		movs	r2, #0
 959 000e 0021     		movs	r1, #0
 960 0010 1846     		mov	r0, r3
 961 0012 FFF7FEFF 		bl	TIM_CCxChannelCmd
 962 0016 7B68     		ldr	r3, [r7, #4]
 963 0018 1B68     		ldr	r3, [r3]
 964 001a DA68     		ldr	r2, [r3, #12]
 965 001c 7B68     		ldr	r3, [r7, #4]
 966 001e 1B68     		ldr	r3, [r3]
 967 0020 22F40072 		bic	r2, r2, #512
 968 0024 DA60     		str	r2, [r3, #12]
 969 0026 7B68     		ldr	r3, [r7, #4]
 970 0028 5B6A     		ldr	r3, [r3, #36]
 971 002a 1846     		mov	r0, r3
 972 002c FFF7FEFF 		bl	HAL_DMA_Abort_IT
 973 0030 7B68     		ldr	r3, [r7, #4]
 974 0032 1B68     		ldr	r3, [r3]
 975 0034 1A6A     		ldr	r2, [r3, #32]
 976 0036 104B     		ldr	r3, .L67
 977 0038 1340     		ands	r3, r3, r2
 978 003a 002B     		cmp	r3, #0
 979 003c 0FD1     		bne	.L65
 980 003e 7B68     		ldr	r3, [r7, #4]
 981 0040 1B68     		ldr	r3, [r3]
 982 0042 1A6A     		ldr	r2, [r3, #32]
 983 0044 40F24443 		movw	r3, #1092
 984 0048 1340     		ands	r3, r3, r2
 985 004a 002B     		cmp	r3, #0
 986 004c 07D1     		bne	.L65
 987 004e 7B68     		ldr	r3, [r7, #4]
 988 0050 1B68     		ldr	r3, [r3]
ARM GAS  C:\msys64\tmp\ccXaZRRw.s 			page 18


 989 0052 1A68     		ldr	r2, [r3]
 990 0054 7B68     		ldr	r3, [r7, #4]
 991 0056 1B68     		ldr	r3, [r3]
 992 0058 22F00102 		bic	r2, r2, #1
 993 005c 1A60     		str	r2, [r3]
 994              	.L65:
 995 005e 7B68     		ldr	r3, [r7, #4]
 996 0060 0122     		movs	r2, #1
 997 0062 83F83E20 		strb	r2, [r3, #62]
 998 0066 7B68     		ldr	r3, [r7, #4]
 999 0068 0122     		movs	r2, #1
 1000 006a 83F84420 		strb	r2, [r3, #68]
 1001 006e 0023     		movs	r3, #0
 1002 0070 1846     		mov	r0, r3
 1003 0072 0837     		adds	r7, r7, #8
 1004 0074 BD46     		mov	sp, r7
 1005              		@ sp needed
 1006 0076 80BD     		pop	{r7, pc}
 1007              	.L68:
 1008              		.align	2
 1009              	.L67:
 1010 0078 11111100 		.word	1118481
 1012              		.section	.text.HAL_TIMEx_OCN_Start,"ax",%progbits
 1013              		.align	1
 1014              		.global	HAL_TIMEx_OCN_Start
 1015              		.syntax unified
 1016              		.thumb
 1017              		.thumb_func
 1019              	HAL_TIMEx_OCN_Start:
 1020              		@ args = 0, pretend = 0, frame = 16
 1021              		@ frame_needed = 1, uses_anonymous_args = 0
 1022 0000 80B5     		push	{r7, lr}
 1023 0002 84B0     		sub	sp, sp, #16
 1024 0004 00AF     		add	r7, sp, #0
 1025 0006 7860     		str	r0, [r7, #4]
 1026 0008 3960     		str	r1, [r7]
 1027 000a 3B68     		ldr	r3, [r7]
 1028 000c 002B     		cmp	r3, #0
 1029 000e 09D1     		bne	.L70
 1030 0010 7B68     		ldr	r3, [r7, #4]
 1031 0012 93F84430 		ldrb	r3, [r3, #68]
 1032 0016 DBB2     		uxtb	r3, r3
 1033 0018 012B     		cmp	r3, #1
 1034 001a 14BF     		ite	ne
 1035 001c 0123     		movne	r3, #1
 1036 001e 0023     		moveq	r3, #0
 1037 0020 DBB2     		uxtb	r3, r3
 1038 0022 22E0     		b	.L71
 1039              	.L70:
 1040 0024 3B68     		ldr	r3, [r7]
 1041 0026 042B     		cmp	r3, #4
 1042 0028 09D1     		bne	.L72
 1043 002a 7B68     		ldr	r3, [r7, #4]
 1044 002c 93F84530 		ldrb	r3, [r3, #69]
 1045 0030 DBB2     		uxtb	r3, r3
 1046 0032 012B     		cmp	r3, #1
 1047 0034 14BF     		ite	ne
ARM GAS  C:\msys64\tmp\ccXaZRRw.s 			page 19


 1048 0036 0123     		movne	r3, #1
 1049 0038 0023     		moveq	r3, #0
 1050 003a DBB2     		uxtb	r3, r3
 1051 003c 15E0     		b	.L71
 1052              	.L72:
 1053 003e 3B68     		ldr	r3, [r7]
 1054 0040 082B     		cmp	r3, #8
 1055 0042 09D1     		bne	.L74
 1056 0044 7B68     		ldr	r3, [r7, #4]
 1057 0046 93F84630 		ldrb	r3, [r3, #70]
 1058 004a DBB2     		uxtb	r3, r3
 1059 004c 012B     		cmp	r3, #1
 1060 004e 14BF     		ite	ne
 1061 0050 0123     		movne	r3, #1
 1062 0052 0023     		moveq	r3, #0
 1063 0054 DBB2     		uxtb	r3, r3
 1064 0056 08E0     		b	.L71
 1065              	.L74:
 1066 0058 7B68     		ldr	r3, [r7, #4]
 1067 005a 93F84730 		ldrb	r3, [r3, #71]
 1068 005e DBB2     		uxtb	r3, r3
 1069 0060 012B     		cmp	r3, #1
 1070 0062 14BF     		ite	ne
 1071 0064 0123     		movne	r3, #1
 1072 0066 0023     		moveq	r3, #0
 1073 0068 DBB2     		uxtb	r3, r3
 1074              	.L71:
 1075 006a 002B     		cmp	r3, #0
 1076 006c 01D0     		beq	.L76
 1077 006e 0123     		movs	r3, #1
 1078 0070 73E0     		b	.L77
 1079              	.L76:
 1080 0072 3B68     		ldr	r3, [r7]
 1081 0074 002B     		cmp	r3, #0
 1082 0076 04D1     		bne	.L78
 1083 0078 7B68     		ldr	r3, [r7, #4]
 1084 007a 0222     		movs	r2, #2
 1085 007c 83F84420 		strb	r2, [r3, #68]
 1086 0080 13E0     		b	.L79
 1087              	.L78:
 1088 0082 3B68     		ldr	r3, [r7]
 1089 0084 042B     		cmp	r3, #4
 1090 0086 04D1     		bne	.L80
 1091 0088 7B68     		ldr	r3, [r7, #4]
 1092 008a 0222     		movs	r2, #2
 1093 008c 83F84520 		strb	r2, [r3, #69]
 1094 0090 0BE0     		b	.L79
 1095              	.L80:
 1096 0092 3B68     		ldr	r3, [r7]
 1097 0094 082B     		cmp	r3, #8
 1098 0096 04D1     		bne	.L82
 1099 0098 7B68     		ldr	r3, [r7, #4]
 1100 009a 0222     		movs	r2, #2
 1101 009c 83F84620 		strb	r2, [r3, #70]
 1102 00a0 03E0     		b	.L79
 1103              	.L82:
 1104 00a2 7B68     		ldr	r3, [r7, #4]
ARM GAS  C:\msys64\tmp\ccXaZRRw.s 			page 20


 1105 00a4 0222     		movs	r2, #2
 1106 00a6 83F84720 		strb	r2, [r3, #71]
 1107              	.L79:
 1108 00aa 7B68     		ldr	r3, [r7, #4]
 1109 00ac 1B68     		ldr	r3, [r3]
 1110 00ae 0422     		movs	r2, #4
 1111 00b0 3968     		ldr	r1, [r7]
 1112 00b2 1846     		mov	r0, r3
 1113 00b4 FFF7FEFF 		bl	TIM_CCxNChannelCmd
 1114 00b8 7B68     		ldr	r3, [r7, #4]
 1115 00ba 1B68     		ldr	r3, [r3]
 1116 00bc 5A6C     		ldr	r2, [r3, #68]
 1117 00be 7B68     		ldr	r3, [r7, #4]
 1118 00c0 1B68     		ldr	r3, [r3]
 1119 00c2 42F40042 		orr	r2, r2, #32768
 1120 00c6 5A64     		str	r2, [r3, #68]
 1121 00c8 7B68     		ldr	r3, [r7, #4]
 1122 00ca 1B68     		ldr	r3, [r3]
 1123 00cc 254A     		ldr	r2, .L89
 1124 00ce 9342     		cmp	r3, r2
 1125 00d0 22D0     		beq	.L84
 1126 00d2 7B68     		ldr	r3, [r7, #4]
 1127 00d4 1B68     		ldr	r3, [r3]
 1128 00d6 B3F1804F 		cmp	r3, #1073741824
 1129 00da 1DD0     		beq	.L84
 1130 00dc 7B68     		ldr	r3, [r7, #4]
 1131 00de 1B68     		ldr	r3, [r3]
 1132 00e0 214A     		ldr	r2, .L89+4
 1133 00e2 9342     		cmp	r3, r2
 1134 00e4 18D0     		beq	.L84
 1135 00e6 7B68     		ldr	r3, [r7, #4]
 1136 00e8 1B68     		ldr	r3, [r3]
 1137 00ea 204A     		ldr	r2, .L89+8
 1138 00ec 9342     		cmp	r3, r2
 1139 00ee 13D0     		beq	.L84
 1140 00f0 7B68     		ldr	r3, [r7, #4]
 1141 00f2 1B68     		ldr	r3, [r3]
 1142 00f4 1E4A     		ldr	r2, .L89+12
 1143 00f6 9342     		cmp	r3, r2
 1144 00f8 0ED0     		beq	.L84
 1145 00fa 7B68     		ldr	r3, [r7, #4]
 1146 00fc 1B68     		ldr	r3, [r3]
 1147 00fe 1D4A     		ldr	r2, .L89+16
 1148 0100 9342     		cmp	r3, r2
 1149 0102 09D0     		beq	.L84
 1150 0104 7B68     		ldr	r3, [r7, #4]
 1151 0106 1B68     		ldr	r3, [r3]
 1152 0108 1B4A     		ldr	r2, .L89+20
 1153 010a 9342     		cmp	r3, r2
 1154 010c 04D0     		beq	.L84
 1155 010e 7B68     		ldr	r3, [r7, #4]
 1156 0110 1B68     		ldr	r3, [r3]
 1157 0112 1A4A     		ldr	r2, .L89+24
 1158 0114 9342     		cmp	r3, r2
 1159 0116 15D1     		bne	.L85
 1160              	.L84:
 1161 0118 7B68     		ldr	r3, [r7, #4]
ARM GAS  C:\msys64\tmp\ccXaZRRw.s 			page 21


 1162 011a 1B68     		ldr	r3, [r3]
 1163 011c 9A68     		ldr	r2, [r3, #8]
 1164 011e 184B     		ldr	r3, .L89+28
 1165 0120 1340     		ands	r3, r3, r2
 1166 0122 FB60     		str	r3, [r7, #12]
 1167 0124 FB68     		ldr	r3, [r7, #12]
 1168 0126 062B     		cmp	r3, #6
 1169 0128 15D0     		beq	.L88
 1170 012a FB68     		ldr	r3, [r7, #12]
 1171 012c B3F5803F 		cmp	r3, #65536
 1172 0130 11D0     		beq	.L88
 1173 0132 7B68     		ldr	r3, [r7, #4]
 1174 0134 1B68     		ldr	r3, [r3]
 1175 0136 1A68     		ldr	r2, [r3]
 1176 0138 7B68     		ldr	r3, [r7, #4]
 1177 013a 1B68     		ldr	r3, [r3]
 1178 013c 42F00102 		orr	r2, r2, #1
 1179 0140 1A60     		str	r2, [r3]
 1180 0142 08E0     		b	.L88
 1181              	.L85:
 1182 0144 7B68     		ldr	r3, [r7, #4]
 1183 0146 1B68     		ldr	r3, [r3]
 1184 0148 1A68     		ldr	r2, [r3]
 1185 014a 7B68     		ldr	r3, [r7, #4]
 1186 014c 1B68     		ldr	r3, [r3]
 1187 014e 42F00102 		orr	r2, r2, #1
 1188 0152 1A60     		str	r2, [r3]
 1189 0154 00E0     		b	.L87
 1190              	.L88:
 1191 0156 00BF     		nop
 1192              	.L87:
 1193 0158 0023     		movs	r3, #0
 1194              	.L77:
 1195 015a 1846     		mov	r0, r3
 1196 015c 1037     		adds	r7, r7, #16
 1197 015e BD46     		mov	sp, r7
 1198              		@ sp needed
 1199 0160 80BD     		pop	{r7, pc}
 1200              	.L90:
 1201 0162 00BF     		.align	2
 1202              	.L89:
 1203 0164 00000140 		.word	1073807360
 1204 0168 00040040 		.word	1073742848
 1205 016c 00080040 		.word	1073743872
 1206 0170 000C0040 		.word	1073744896
 1207 0174 00040140 		.word	1073808384
 1208 0178 00400140 		.word	1073823744
 1209 017c 00180040 		.word	1073747968
 1210 0180 07000100 		.word	65543
 1212              		.section	.text.HAL_TIMEx_OCN_Stop,"ax",%progbits
 1213              		.align	1
 1214              		.global	HAL_TIMEx_OCN_Stop
 1215              		.syntax unified
 1216              		.thumb
 1217              		.thumb_func
 1219              	HAL_TIMEx_OCN_Stop:
 1220              		@ args = 0, pretend = 0, frame = 8
ARM GAS  C:\msys64\tmp\ccXaZRRw.s 			page 22


 1221              		@ frame_needed = 1, uses_anonymous_args = 0
 1222 0000 80B5     		push	{r7, lr}
 1223 0002 82B0     		sub	sp, sp, #8
 1224 0004 00AF     		add	r7, sp, #0
 1225 0006 7860     		str	r0, [r7, #4]
 1226 0008 3960     		str	r1, [r7]
 1227 000a 7B68     		ldr	r3, [r7, #4]
 1228 000c 1B68     		ldr	r3, [r3]
 1229 000e 0022     		movs	r2, #0
 1230 0010 3968     		ldr	r1, [r7]
 1231 0012 1846     		mov	r0, r3
 1232 0014 FFF7FEFF 		bl	TIM_CCxNChannelCmd
 1233 0018 7B68     		ldr	r3, [r7, #4]
 1234 001a 1B68     		ldr	r3, [r3]
 1235 001c 1A6A     		ldr	r2, [r3, #32]
 1236 001e 264B     		ldr	r3, .L101
 1237 0020 1340     		ands	r3, r3, r2
 1238 0022 002B     		cmp	r3, #0
 1239 0024 0FD1     		bne	.L92
 1240 0026 7B68     		ldr	r3, [r7, #4]
 1241 0028 1B68     		ldr	r3, [r3]
 1242 002a 1A6A     		ldr	r2, [r3, #32]
 1243 002c 40F24443 		movw	r3, #1092
 1244 0030 1340     		ands	r3, r3, r2
 1245 0032 002B     		cmp	r3, #0
 1246 0034 07D1     		bne	.L92
 1247 0036 7B68     		ldr	r3, [r7, #4]
 1248 0038 1B68     		ldr	r3, [r3]
 1249 003a 5A6C     		ldr	r2, [r3, #68]
 1250 003c 7B68     		ldr	r3, [r7, #4]
 1251 003e 1B68     		ldr	r3, [r3]
 1252 0040 22F40042 		bic	r2, r2, #32768
 1253 0044 5A64     		str	r2, [r3, #68]
 1254              	.L92:
 1255 0046 7B68     		ldr	r3, [r7, #4]
 1256 0048 1B68     		ldr	r3, [r3]
 1257 004a 1A6A     		ldr	r2, [r3, #32]
 1258 004c 1A4B     		ldr	r3, .L101
 1259 004e 1340     		ands	r3, r3, r2
 1260 0050 002B     		cmp	r3, #0
 1261 0052 0FD1     		bne	.L93
 1262 0054 7B68     		ldr	r3, [r7, #4]
 1263 0056 1B68     		ldr	r3, [r3]
 1264 0058 1A6A     		ldr	r2, [r3, #32]
 1265 005a 40F24443 		movw	r3, #1092
 1266 005e 1340     		ands	r3, r3, r2
 1267 0060 002B     		cmp	r3, #0
 1268 0062 07D1     		bne	.L93
 1269 0064 7B68     		ldr	r3, [r7, #4]
 1270 0066 1B68     		ldr	r3, [r3]
 1271 0068 1A68     		ldr	r2, [r3]
 1272 006a 7B68     		ldr	r3, [r7, #4]
 1273 006c 1B68     		ldr	r3, [r3]
 1274 006e 22F00102 		bic	r2, r2, #1
 1275 0072 1A60     		str	r2, [r3]
 1276              	.L93:
 1277 0074 3B68     		ldr	r3, [r7]
ARM GAS  C:\msys64\tmp\ccXaZRRw.s 			page 23


 1278 0076 002B     		cmp	r3, #0
 1279 0078 04D1     		bne	.L94
 1280 007a 7B68     		ldr	r3, [r7, #4]
 1281 007c 0122     		movs	r2, #1
 1282 007e 83F84420 		strb	r2, [r3, #68]
 1283 0082 13E0     		b	.L95
 1284              	.L94:
 1285 0084 3B68     		ldr	r3, [r7]
 1286 0086 042B     		cmp	r3, #4
 1287 0088 04D1     		bne	.L96
 1288 008a 7B68     		ldr	r3, [r7, #4]
 1289 008c 0122     		movs	r2, #1
 1290 008e 83F84520 		strb	r2, [r3, #69]
 1291 0092 0BE0     		b	.L95
 1292              	.L96:
 1293 0094 3B68     		ldr	r3, [r7]
 1294 0096 082B     		cmp	r3, #8
 1295 0098 04D1     		bne	.L98
 1296 009a 7B68     		ldr	r3, [r7, #4]
 1297 009c 0122     		movs	r2, #1
 1298 009e 83F84620 		strb	r2, [r3, #70]
 1299 00a2 03E0     		b	.L95
 1300              	.L98:
 1301 00a4 7B68     		ldr	r3, [r7, #4]
 1302 00a6 0122     		movs	r2, #1
 1303 00a8 83F84720 		strb	r2, [r3, #71]
 1304              	.L95:
 1305 00ac 0023     		movs	r3, #0
 1306 00ae 1846     		mov	r0, r3
 1307 00b0 0837     		adds	r7, r7, #8
 1308 00b2 BD46     		mov	sp, r7
 1309              		@ sp needed
 1310 00b4 80BD     		pop	{r7, pc}
 1311              	.L102:
 1312 00b6 00BF     		.align	2
 1313              	.L101:
 1314 00b8 11111100 		.word	1118481
 1316              		.section	.text.HAL_TIMEx_OCN_Start_IT,"ax",%progbits
 1317              		.align	1
 1318              		.global	HAL_TIMEx_OCN_Start_IT
 1319              		.syntax unified
 1320              		.thumb
 1321              		.thumb_func
 1323              	HAL_TIMEx_OCN_Start_IT:
 1324              		@ args = 0, pretend = 0, frame = 16
 1325              		@ frame_needed = 1, uses_anonymous_args = 0
 1326 0000 80B5     		push	{r7, lr}
 1327 0002 84B0     		sub	sp, sp, #16
 1328 0004 00AF     		add	r7, sp, #0
 1329 0006 7860     		str	r0, [r7, #4]
 1330 0008 3960     		str	r1, [r7]
 1331 000a 0023     		movs	r3, #0
 1332 000c FB73     		strb	r3, [r7, #15]
 1333 000e 3B68     		ldr	r3, [r7]
 1334 0010 002B     		cmp	r3, #0
 1335 0012 09D1     		bne	.L104
 1336 0014 7B68     		ldr	r3, [r7, #4]
ARM GAS  C:\msys64\tmp\ccXaZRRw.s 			page 24


 1337 0016 93F84430 		ldrb	r3, [r3, #68]
 1338 001a DBB2     		uxtb	r3, r3
 1339 001c 012B     		cmp	r3, #1
 1340 001e 14BF     		ite	ne
 1341 0020 0123     		movne	r3, #1
 1342 0022 0023     		moveq	r3, #0
 1343 0024 DBB2     		uxtb	r3, r3
 1344 0026 22E0     		b	.L105
 1345              	.L104:
 1346 0028 3B68     		ldr	r3, [r7]
 1347 002a 042B     		cmp	r3, #4
 1348 002c 09D1     		bne	.L106
 1349 002e 7B68     		ldr	r3, [r7, #4]
 1350 0030 93F84530 		ldrb	r3, [r3, #69]
 1351 0034 DBB2     		uxtb	r3, r3
 1352 0036 012B     		cmp	r3, #1
 1353 0038 14BF     		ite	ne
 1354 003a 0123     		movne	r3, #1
 1355 003c 0023     		moveq	r3, #0
 1356 003e DBB2     		uxtb	r3, r3
 1357 0040 15E0     		b	.L105
 1358              	.L106:
 1359 0042 3B68     		ldr	r3, [r7]
 1360 0044 082B     		cmp	r3, #8
 1361 0046 09D1     		bne	.L108
 1362 0048 7B68     		ldr	r3, [r7, #4]
 1363 004a 93F84630 		ldrb	r3, [r3, #70]
 1364 004e DBB2     		uxtb	r3, r3
 1365 0050 012B     		cmp	r3, #1
 1366 0052 14BF     		ite	ne
 1367 0054 0123     		movne	r3, #1
 1368 0056 0023     		moveq	r3, #0
 1369 0058 DBB2     		uxtb	r3, r3
 1370 005a 08E0     		b	.L105
 1371              	.L108:
 1372 005c 7B68     		ldr	r3, [r7, #4]
 1373 005e 93F84730 		ldrb	r3, [r3, #71]
 1374 0062 DBB2     		uxtb	r3, r3
 1375 0064 012B     		cmp	r3, #1
 1376 0066 14BF     		ite	ne
 1377 0068 0123     		movne	r3, #1
 1378 006a 0023     		moveq	r3, #0
 1379 006c DBB2     		uxtb	r3, r3
 1380              	.L105:
 1381 006e 002B     		cmp	r3, #0
 1382 0070 01D0     		beq	.L110
 1383 0072 0123     		movs	r3, #1
 1384 0074 A9E0     		b	.L111
 1385              	.L110:
 1386 0076 3B68     		ldr	r3, [r7]
 1387 0078 002B     		cmp	r3, #0
 1388 007a 04D1     		bne	.L112
 1389 007c 7B68     		ldr	r3, [r7, #4]
 1390 007e 0222     		movs	r2, #2
 1391 0080 83F84420 		strb	r2, [r3, #68]
 1392 0084 13E0     		b	.L113
 1393              	.L112:
ARM GAS  C:\msys64\tmp\ccXaZRRw.s 			page 25


 1394 0086 3B68     		ldr	r3, [r7]
 1395 0088 042B     		cmp	r3, #4
 1396 008a 04D1     		bne	.L114
 1397 008c 7B68     		ldr	r3, [r7, #4]
 1398 008e 0222     		movs	r2, #2
 1399 0090 83F84520 		strb	r2, [r3, #69]
 1400 0094 0BE0     		b	.L113
 1401              	.L114:
 1402 0096 3B68     		ldr	r3, [r7]
 1403 0098 082B     		cmp	r3, #8
 1404 009a 04D1     		bne	.L116
 1405 009c 7B68     		ldr	r3, [r7, #4]
 1406 009e 0222     		movs	r2, #2
 1407 00a0 83F84620 		strb	r2, [r3, #70]
 1408 00a4 03E0     		b	.L113
 1409              	.L116:
 1410 00a6 7B68     		ldr	r3, [r7, #4]
 1411 00a8 0222     		movs	r2, #2
 1412 00aa 83F84720 		strb	r2, [r3, #71]
 1413              	.L113:
 1414 00ae 3B68     		ldr	r3, [r7]
 1415 00b0 082B     		cmp	r3, #8
 1416 00b2 1BD0     		beq	.L118
 1417 00b4 3B68     		ldr	r3, [r7]
 1418 00b6 082B     		cmp	r3, #8
 1419 00b8 21D8     		bhi	.L119
 1420 00ba 3B68     		ldr	r3, [r7]
 1421 00bc 002B     		cmp	r3, #0
 1422 00be 03D0     		beq	.L120
 1423 00c0 3B68     		ldr	r3, [r7]
 1424 00c2 042B     		cmp	r3, #4
 1425 00c4 09D0     		beq	.L121
 1426 00c6 1AE0     		b	.L119
 1427              	.L120:
 1428 00c8 7B68     		ldr	r3, [r7, #4]
 1429 00ca 1B68     		ldr	r3, [r3]
 1430 00cc DA68     		ldr	r2, [r3, #12]
 1431 00ce 7B68     		ldr	r3, [r7, #4]
 1432 00d0 1B68     		ldr	r3, [r3]
 1433 00d2 42F00202 		orr	r2, r2, #2
 1434 00d6 DA60     		str	r2, [r3, #12]
 1435 00d8 14E0     		b	.L122
 1436              	.L121:
 1437 00da 7B68     		ldr	r3, [r7, #4]
 1438 00dc 1B68     		ldr	r3, [r3]
 1439 00de DA68     		ldr	r2, [r3, #12]
 1440 00e0 7B68     		ldr	r3, [r7, #4]
 1441 00e2 1B68     		ldr	r3, [r3]
 1442 00e4 42F00402 		orr	r2, r2, #4
 1443 00e8 DA60     		str	r2, [r3, #12]
 1444 00ea 0BE0     		b	.L122
 1445              	.L118:
 1446 00ec 7B68     		ldr	r3, [r7, #4]
 1447 00ee 1B68     		ldr	r3, [r3]
 1448 00f0 DA68     		ldr	r2, [r3, #12]
 1449 00f2 7B68     		ldr	r3, [r7, #4]
 1450 00f4 1B68     		ldr	r3, [r3]
ARM GAS  C:\msys64\tmp\ccXaZRRw.s 			page 26


 1451 00f6 42F00802 		orr	r2, r2, #8
 1452 00fa DA60     		str	r2, [r3, #12]
 1453 00fc 02E0     		b	.L122
 1454              	.L119:
 1455 00fe 0123     		movs	r3, #1
 1456 0100 FB73     		strb	r3, [r7, #15]
 1457 0102 00BF     		nop
 1458              	.L122:
 1459 0104 FB7B     		ldrb	r3, [r7, #15]	@ zero_extendqisi2
 1460 0106 002B     		cmp	r3, #0
 1461 0108 5ED1     		bne	.L123
 1462 010a 7B68     		ldr	r3, [r7, #4]
 1463 010c 1B68     		ldr	r3, [r3]
 1464 010e DA68     		ldr	r2, [r3, #12]
 1465 0110 7B68     		ldr	r3, [r7, #4]
 1466 0112 1B68     		ldr	r3, [r3]
 1467 0114 42F08002 		orr	r2, r2, #128
 1468 0118 DA60     		str	r2, [r3, #12]
 1469 011a 7B68     		ldr	r3, [r7, #4]
 1470 011c 1B68     		ldr	r3, [r3]
 1471 011e 0422     		movs	r2, #4
 1472 0120 3968     		ldr	r1, [r7]
 1473 0122 1846     		mov	r0, r3
 1474 0124 FFF7FEFF 		bl	TIM_CCxNChannelCmd
 1475 0128 7B68     		ldr	r3, [r7, #4]
 1476 012a 1B68     		ldr	r3, [r3]
 1477 012c 5A6C     		ldr	r2, [r3, #68]
 1478 012e 7B68     		ldr	r3, [r7, #4]
 1479 0130 1B68     		ldr	r3, [r3]
 1480 0132 42F40042 		orr	r2, r2, #32768
 1481 0136 5A64     		str	r2, [r3, #68]
 1482 0138 7B68     		ldr	r3, [r7, #4]
 1483 013a 1B68     		ldr	r3, [r3]
 1484 013c 254A     		ldr	r2, .L128
 1485 013e 9342     		cmp	r3, r2
 1486 0140 22D0     		beq	.L124
 1487 0142 7B68     		ldr	r3, [r7, #4]
 1488 0144 1B68     		ldr	r3, [r3]
 1489 0146 B3F1804F 		cmp	r3, #1073741824
 1490 014a 1DD0     		beq	.L124
 1491 014c 7B68     		ldr	r3, [r7, #4]
 1492 014e 1B68     		ldr	r3, [r3]
 1493 0150 214A     		ldr	r2, .L128+4
 1494 0152 9342     		cmp	r3, r2
 1495 0154 18D0     		beq	.L124
 1496 0156 7B68     		ldr	r3, [r7, #4]
 1497 0158 1B68     		ldr	r3, [r3]
 1498 015a 204A     		ldr	r2, .L128+8
 1499 015c 9342     		cmp	r3, r2
 1500 015e 13D0     		beq	.L124
 1501 0160 7B68     		ldr	r3, [r7, #4]
 1502 0162 1B68     		ldr	r3, [r3]
 1503 0164 1E4A     		ldr	r2, .L128+12
 1504 0166 9342     		cmp	r3, r2
 1505 0168 0ED0     		beq	.L124
 1506 016a 7B68     		ldr	r3, [r7, #4]
 1507 016c 1B68     		ldr	r3, [r3]
ARM GAS  C:\msys64\tmp\ccXaZRRw.s 			page 27


 1508 016e 1D4A     		ldr	r2, .L128+16
 1509 0170 9342     		cmp	r3, r2
 1510 0172 09D0     		beq	.L124
 1511 0174 7B68     		ldr	r3, [r7, #4]
 1512 0176 1B68     		ldr	r3, [r3]
 1513 0178 1B4A     		ldr	r2, .L128+20
 1514 017a 9342     		cmp	r3, r2
 1515 017c 04D0     		beq	.L124
 1516 017e 7B68     		ldr	r3, [r7, #4]
 1517 0180 1B68     		ldr	r3, [r3]
 1518 0182 1A4A     		ldr	r2, .L128+24
 1519 0184 9342     		cmp	r3, r2
 1520 0186 15D1     		bne	.L125
 1521              	.L124:
 1522 0188 7B68     		ldr	r3, [r7, #4]
 1523 018a 1B68     		ldr	r3, [r3]
 1524 018c 9A68     		ldr	r2, [r3, #8]
 1525 018e 184B     		ldr	r3, .L128+28
 1526 0190 1340     		ands	r3, r3, r2
 1527 0192 BB60     		str	r3, [r7, #8]
 1528 0194 BB68     		ldr	r3, [r7, #8]
 1529 0196 062B     		cmp	r3, #6
 1530 0198 15D0     		beq	.L127
 1531 019a BB68     		ldr	r3, [r7, #8]
 1532 019c B3F5803F 		cmp	r3, #65536
 1533 01a0 11D0     		beq	.L127
 1534 01a2 7B68     		ldr	r3, [r7, #4]
 1535 01a4 1B68     		ldr	r3, [r3]
 1536 01a6 1A68     		ldr	r2, [r3]
 1537 01a8 7B68     		ldr	r3, [r7, #4]
 1538 01aa 1B68     		ldr	r3, [r3]
 1539 01ac 42F00102 		orr	r2, r2, #1
 1540 01b0 1A60     		str	r2, [r3]
 1541 01b2 08E0     		b	.L127
 1542              	.L125:
 1543 01b4 7B68     		ldr	r3, [r7, #4]
 1544 01b6 1B68     		ldr	r3, [r3]
 1545 01b8 1A68     		ldr	r2, [r3]
 1546 01ba 7B68     		ldr	r3, [r7, #4]
 1547 01bc 1B68     		ldr	r3, [r3]
 1548 01be 42F00102 		orr	r2, r2, #1
 1549 01c2 1A60     		str	r2, [r3]
 1550 01c4 00E0     		b	.L123
 1551              	.L127:
 1552 01c6 00BF     		nop
 1553              	.L123:
 1554 01c8 FB7B     		ldrb	r3, [r7, #15]	@ zero_extendqisi2
 1555              	.L111:
 1556 01ca 1846     		mov	r0, r3
 1557 01cc 1037     		adds	r7, r7, #16
 1558 01ce BD46     		mov	sp, r7
 1559              		@ sp needed
 1560 01d0 80BD     		pop	{r7, pc}
 1561              	.L129:
 1562 01d2 00BF     		.align	2
 1563              	.L128:
 1564 01d4 00000140 		.word	1073807360
ARM GAS  C:\msys64\tmp\ccXaZRRw.s 			page 28


 1565 01d8 00040040 		.word	1073742848
 1566 01dc 00080040 		.word	1073743872
 1567 01e0 000C0040 		.word	1073744896
 1568 01e4 00040140 		.word	1073808384
 1569 01e8 00400140 		.word	1073823744
 1570 01ec 00180040 		.word	1073747968
 1571 01f0 07000100 		.word	65543
 1573              		.section	.text.HAL_TIMEx_OCN_Stop_IT,"ax",%progbits
 1574              		.align	1
 1575              		.global	HAL_TIMEx_OCN_Stop_IT
 1576              		.syntax unified
 1577              		.thumb
 1578              		.thumb_func
 1580              	HAL_TIMEx_OCN_Stop_IT:
 1581              		@ args = 0, pretend = 0, frame = 16
 1582              		@ frame_needed = 1, uses_anonymous_args = 0
 1583 0000 80B5     		push	{r7, lr}
 1584 0002 84B0     		sub	sp, sp, #16
 1585 0004 00AF     		add	r7, sp, #0
 1586 0006 7860     		str	r0, [r7, #4]
 1587 0008 3960     		str	r1, [r7]
 1588 000a 0023     		movs	r3, #0
 1589 000c FB73     		strb	r3, [r7, #15]
 1590 000e 3B68     		ldr	r3, [r7]
 1591 0010 082B     		cmp	r3, #8
 1592 0012 1BD0     		beq	.L131
 1593 0014 3B68     		ldr	r3, [r7]
 1594 0016 082B     		cmp	r3, #8
 1595 0018 21D8     		bhi	.L132
 1596 001a 3B68     		ldr	r3, [r7]
 1597 001c 002B     		cmp	r3, #0
 1598 001e 03D0     		beq	.L133
 1599 0020 3B68     		ldr	r3, [r7]
 1600 0022 042B     		cmp	r3, #4
 1601 0024 09D0     		beq	.L134
 1602 0026 1AE0     		b	.L132
 1603              	.L133:
 1604 0028 7B68     		ldr	r3, [r7, #4]
 1605 002a 1B68     		ldr	r3, [r3]
 1606 002c DA68     		ldr	r2, [r3, #12]
 1607 002e 7B68     		ldr	r3, [r7, #4]
 1608 0030 1B68     		ldr	r3, [r3]
 1609 0032 22F00202 		bic	r2, r2, #2
 1610 0036 DA60     		str	r2, [r3, #12]
 1611 0038 14E0     		b	.L135
 1612              	.L134:
 1613 003a 7B68     		ldr	r3, [r7, #4]
 1614 003c 1B68     		ldr	r3, [r3]
 1615 003e DA68     		ldr	r2, [r3, #12]
 1616 0040 7B68     		ldr	r3, [r7, #4]
 1617 0042 1B68     		ldr	r3, [r3]
 1618 0044 22F00402 		bic	r2, r2, #4
 1619 0048 DA60     		str	r2, [r3, #12]
 1620 004a 0BE0     		b	.L135
 1621              	.L131:
 1622 004c 7B68     		ldr	r3, [r7, #4]
 1623 004e 1B68     		ldr	r3, [r3]
ARM GAS  C:\msys64\tmp\ccXaZRRw.s 			page 29


 1624 0050 DA68     		ldr	r2, [r3, #12]
 1625 0052 7B68     		ldr	r3, [r7, #4]
 1626 0054 1B68     		ldr	r3, [r3]
 1627 0056 22F00802 		bic	r2, r2, #8
 1628 005a DA60     		str	r2, [r3, #12]
 1629 005c 02E0     		b	.L135
 1630              	.L132:
 1631 005e 0123     		movs	r3, #1
 1632 0060 FB73     		strb	r3, [r7, #15]
 1633 0062 00BF     		nop
 1634              	.L135:
 1635 0064 FB7B     		ldrb	r3, [r7, #15]	@ zero_extendqisi2
 1636 0066 002B     		cmp	r3, #0
 1637 0068 62D1     		bne	.L136
 1638 006a 7B68     		ldr	r3, [r7, #4]
 1639 006c 1B68     		ldr	r3, [r3]
 1640 006e 0022     		movs	r2, #0
 1641 0070 3968     		ldr	r1, [r7]
 1642 0072 1846     		mov	r0, r3
 1643 0074 FFF7FEFF 		bl	TIM_CCxNChannelCmd
 1644 0078 7B68     		ldr	r3, [r7, #4]
 1645 007a 1B68     		ldr	r3, [r3]
 1646 007c 1B6A     		ldr	r3, [r3, #32]
 1647 007e BB60     		str	r3, [r7, #8]
 1648 0080 BA68     		ldr	r2, [r7, #8]
 1649 0082 40F24443 		movw	r3, #1092
 1650 0086 1340     		ands	r3, r3, r2
 1651 0088 002B     		cmp	r3, #0
 1652 008a 07D1     		bne	.L137
 1653 008c 7B68     		ldr	r3, [r7, #4]
 1654 008e 1B68     		ldr	r3, [r3]
 1655 0090 DA68     		ldr	r2, [r3, #12]
 1656 0092 7B68     		ldr	r3, [r7, #4]
 1657 0094 1B68     		ldr	r3, [r3]
 1658 0096 22F08002 		bic	r2, r2, #128
 1659 009a DA60     		str	r2, [r3, #12]
 1660              	.L137:
 1661 009c 7B68     		ldr	r3, [r7, #4]
 1662 009e 1B68     		ldr	r3, [r3]
 1663 00a0 1A6A     		ldr	r2, [r3, #32]
 1664 00a2 264B     		ldr	r3, .L146
 1665 00a4 1340     		ands	r3, r3, r2
 1666 00a6 002B     		cmp	r3, #0
 1667 00a8 0FD1     		bne	.L138
 1668 00aa 7B68     		ldr	r3, [r7, #4]
 1669 00ac 1B68     		ldr	r3, [r3]
 1670 00ae 1A6A     		ldr	r2, [r3, #32]
 1671 00b0 40F24443 		movw	r3, #1092
 1672 00b4 1340     		ands	r3, r3, r2
 1673 00b6 002B     		cmp	r3, #0
 1674 00b8 07D1     		bne	.L138
 1675 00ba 7B68     		ldr	r3, [r7, #4]
 1676 00bc 1B68     		ldr	r3, [r3]
 1677 00be 5A6C     		ldr	r2, [r3, #68]
 1678 00c0 7B68     		ldr	r3, [r7, #4]
 1679 00c2 1B68     		ldr	r3, [r3]
 1680 00c4 22F40042 		bic	r2, r2, #32768
ARM GAS  C:\msys64\tmp\ccXaZRRw.s 			page 30


 1681 00c8 5A64     		str	r2, [r3, #68]
 1682              	.L138:
 1683 00ca 7B68     		ldr	r3, [r7, #4]
 1684 00cc 1B68     		ldr	r3, [r3]
 1685 00ce 1A6A     		ldr	r2, [r3, #32]
 1686 00d0 1A4B     		ldr	r3, .L146
 1687 00d2 1340     		ands	r3, r3, r2
 1688 00d4 002B     		cmp	r3, #0
 1689 00d6 0FD1     		bne	.L139
 1690 00d8 7B68     		ldr	r3, [r7, #4]
 1691 00da 1B68     		ldr	r3, [r3]
 1692 00dc 1A6A     		ldr	r2, [r3, #32]
 1693 00de 40F24443 		movw	r3, #1092
 1694 00e2 1340     		ands	r3, r3, r2
 1695 00e4 002B     		cmp	r3, #0
 1696 00e6 07D1     		bne	.L139
 1697 00e8 7B68     		ldr	r3, [r7, #4]
 1698 00ea 1B68     		ldr	r3, [r3]
 1699 00ec 1A68     		ldr	r2, [r3]
 1700 00ee 7B68     		ldr	r3, [r7, #4]
 1701 00f0 1B68     		ldr	r3, [r3]
 1702 00f2 22F00102 		bic	r2, r2, #1
 1703 00f6 1A60     		str	r2, [r3]
 1704              	.L139:
 1705 00f8 3B68     		ldr	r3, [r7]
 1706 00fa 002B     		cmp	r3, #0
 1707 00fc 04D1     		bne	.L140
 1708 00fe 7B68     		ldr	r3, [r7, #4]
 1709 0100 0122     		movs	r2, #1
 1710 0102 83F84420 		strb	r2, [r3, #68]
 1711 0106 13E0     		b	.L136
 1712              	.L140:
 1713 0108 3B68     		ldr	r3, [r7]
 1714 010a 042B     		cmp	r3, #4
 1715 010c 04D1     		bne	.L141
 1716 010e 7B68     		ldr	r3, [r7, #4]
 1717 0110 0122     		movs	r2, #1
 1718 0112 83F84520 		strb	r2, [r3, #69]
 1719 0116 0BE0     		b	.L136
 1720              	.L141:
 1721 0118 3B68     		ldr	r3, [r7]
 1722 011a 082B     		cmp	r3, #8
 1723 011c 04D1     		bne	.L143
 1724 011e 7B68     		ldr	r3, [r7, #4]
 1725 0120 0122     		movs	r2, #1
 1726 0122 83F84620 		strb	r2, [r3, #70]
 1727 0126 03E0     		b	.L136
 1728              	.L143:
 1729 0128 7B68     		ldr	r3, [r7, #4]
 1730 012a 0122     		movs	r2, #1
 1731 012c 83F84720 		strb	r2, [r3, #71]
 1732              	.L136:
 1733 0130 FB7B     		ldrb	r3, [r7, #15]	@ zero_extendqisi2
 1734 0132 1846     		mov	r0, r3
 1735 0134 1037     		adds	r7, r7, #16
 1736 0136 BD46     		mov	sp, r7
 1737              		@ sp needed
ARM GAS  C:\msys64\tmp\ccXaZRRw.s 			page 31


 1738 0138 80BD     		pop	{r7, pc}
 1739              	.L147:
 1740 013a 00BF     		.align	2
 1741              	.L146:
 1742 013c 11111100 		.word	1118481
 1744              		.section	.text.HAL_TIMEx_OCN_Start_DMA,"ax",%progbits
 1745              		.align	1
 1746              		.global	HAL_TIMEx_OCN_Start_DMA
 1747              		.syntax unified
 1748              		.thumb
 1749              		.thumb_func
 1751              	HAL_TIMEx_OCN_Start_DMA:
 1752              		@ args = 0, pretend = 0, frame = 24
 1753              		@ frame_needed = 1, uses_anonymous_args = 0
 1754 0000 80B5     		push	{r7, lr}
 1755 0002 86B0     		sub	sp, sp, #24
 1756 0004 00AF     		add	r7, sp, #0
 1757 0006 F860     		str	r0, [r7, #12]
 1758 0008 B960     		str	r1, [r7, #8]
 1759 000a 7A60     		str	r2, [r7, #4]
 1760 000c 7B80     		strh	r3, [r7, #2]	@ movhi
 1761 000e 0023     		movs	r3, #0
 1762 0010 FB75     		strb	r3, [r7, #23]
 1763 0012 BB68     		ldr	r3, [r7, #8]
 1764 0014 002B     		cmp	r3, #0
 1765 0016 09D1     		bne	.L149
 1766 0018 FB68     		ldr	r3, [r7, #12]
 1767 001a 93F84430 		ldrb	r3, [r3, #68]
 1768 001e DBB2     		uxtb	r3, r3
 1769 0020 022B     		cmp	r3, #2
 1770 0022 0CBF     		ite	eq
 1771 0024 0123     		moveq	r3, #1
 1772 0026 0023     		movne	r3, #0
 1773 0028 DBB2     		uxtb	r3, r3
 1774 002a 22E0     		b	.L150
 1775              	.L149:
 1776 002c BB68     		ldr	r3, [r7, #8]
 1777 002e 042B     		cmp	r3, #4
 1778 0030 09D1     		bne	.L151
 1779 0032 FB68     		ldr	r3, [r7, #12]
 1780 0034 93F84530 		ldrb	r3, [r3, #69]
 1781 0038 DBB2     		uxtb	r3, r3
 1782 003a 022B     		cmp	r3, #2
 1783 003c 0CBF     		ite	eq
 1784 003e 0123     		moveq	r3, #1
 1785 0040 0023     		movne	r3, #0
 1786 0042 DBB2     		uxtb	r3, r3
 1787 0044 15E0     		b	.L150
 1788              	.L151:
 1789 0046 BB68     		ldr	r3, [r7, #8]
 1790 0048 082B     		cmp	r3, #8
 1791 004a 09D1     		bne	.L153
 1792 004c FB68     		ldr	r3, [r7, #12]
 1793 004e 93F84630 		ldrb	r3, [r3, #70]
 1794 0052 DBB2     		uxtb	r3, r3
 1795 0054 022B     		cmp	r3, #2
 1796 0056 0CBF     		ite	eq
ARM GAS  C:\msys64\tmp\ccXaZRRw.s 			page 32


 1797 0058 0123     		moveq	r3, #1
 1798 005a 0023     		movne	r3, #0
 1799 005c DBB2     		uxtb	r3, r3
 1800 005e 08E0     		b	.L150
 1801              	.L153:
 1802 0060 FB68     		ldr	r3, [r7, #12]
 1803 0062 93F84730 		ldrb	r3, [r3, #71]
 1804 0066 DBB2     		uxtb	r3, r3
 1805 0068 022B     		cmp	r3, #2
 1806 006a 0CBF     		ite	eq
 1807 006c 0123     		moveq	r3, #1
 1808 006e 0023     		movne	r3, #0
 1809 0070 DBB2     		uxtb	r3, r3
 1810              	.L150:
 1811 0072 002B     		cmp	r3, #0
 1812 0074 01D0     		beq	.L155
 1813 0076 0223     		movs	r3, #2
 1814 0078 2FE1     		b	.L156
 1815              	.L155:
 1816 007a BB68     		ldr	r3, [r7, #8]
 1817 007c 002B     		cmp	r3, #0
 1818 007e 09D1     		bne	.L157
 1819 0080 FB68     		ldr	r3, [r7, #12]
 1820 0082 93F84430 		ldrb	r3, [r3, #68]
 1821 0086 DBB2     		uxtb	r3, r3
 1822 0088 012B     		cmp	r3, #1
 1823 008a 0CBF     		ite	eq
 1824 008c 0123     		moveq	r3, #1
 1825 008e 0023     		movne	r3, #0
 1826 0090 DBB2     		uxtb	r3, r3
 1827 0092 22E0     		b	.L158
 1828              	.L157:
 1829 0094 BB68     		ldr	r3, [r7, #8]
 1830 0096 042B     		cmp	r3, #4
 1831 0098 09D1     		bne	.L159
 1832 009a FB68     		ldr	r3, [r7, #12]
 1833 009c 93F84530 		ldrb	r3, [r3, #69]
 1834 00a0 DBB2     		uxtb	r3, r3
 1835 00a2 012B     		cmp	r3, #1
 1836 00a4 0CBF     		ite	eq
 1837 00a6 0123     		moveq	r3, #1
 1838 00a8 0023     		movne	r3, #0
 1839 00aa DBB2     		uxtb	r3, r3
 1840 00ac 15E0     		b	.L158
 1841              	.L159:
 1842 00ae BB68     		ldr	r3, [r7, #8]
 1843 00b0 082B     		cmp	r3, #8
 1844 00b2 09D1     		bne	.L161
 1845 00b4 FB68     		ldr	r3, [r7, #12]
 1846 00b6 93F84630 		ldrb	r3, [r3, #70]
 1847 00ba DBB2     		uxtb	r3, r3
 1848 00bc 012B     		cmp	r3, #1
 1849 00be 0CBF     		ite	eq
 1850 00c0 0123     		moveq	r3, #1
 1851 00c2 0023     		movne	r3, #0
 1852 00c4 DBB2     		uxtb	r3, r3
 1853 00c6 08E0     		b	.L158
ARM GAS  C:\msys64\tmp\ccXaZRRw.s 			page 33


 1854              	.L161:
 1855 00c8 FB68     		ldr	r3, [r7, #12]
 1856 00ca 93F84730 		ldrb	r3, [r3, #71]
 1857 00ce DBB2     		uxtb	r3, r3
 1858 00d0 012B     		cmp	r3, #1
 1859 00d2 0CBF     		ite	eq
 1860 00d4 0123     		moveq	r3, #1
 1861 00d6 0023     		movne	r3, #0
 1862 00d8 DBB2     		uxtb	r3, r3
 1863              	.L158:
 1864 00da 002B     		cmp	r3, #0
 1865 00dc 24D0     		beq	.L163
 1866 00de 7B68     		ldr	r3, [r7, #4]
 1867 00e0 002B     		cmp	r3, #0
 1868 00e2 02D0     		beq	.L164
 1869 00e4 7B88     		ldrh	r3, [r7, #2]
 1870 00e6 002B     		cmp	r3, #0
 1871 00e8 01D1     		bne	.L165
 1872              	.L164:
 1873 00ea 0123     		movs	r3, #1
 1874 00ec F5E0     		b	.L156
 1875              	.L165:
 1876 00ee BB68     		ldr	r3, [r7, #8]
 1877 00f0 002B     		cmp	r3, #0
 1878 00f2 04D1     		bne	.L166
 1879 00f4 FB68     		ldr	r3, [r7, #12]
 1880 00f6 0222     		movs	r2, #2
 1881 00f8 83F84420 		strb	r2, [r3, #68]
 1882 00fc 16E0     		b	.L167
 1883              	.L166:
 1884 00fe BB68     		ldr	r3, [r7, #8]
 1885 0100 042B     		cmp	r3, #4
 1886 0102 04D1     		bne	.L168
 1887 0104 FB68     		ldr	r3, [r7, #12]
 1888 0106 0222     		movs	r2, #2
 1889 0108 83F84520 		strb	r2, [r3, #69]
 1890 010c 0EE0     		b	.L167
 1891              	.L168:
 1892 010e BB68     		ldr	r3, [r7, #8]
 1893 0110 082B     		cmp	r3, #8
 1894 0112 04D1     		bne	.L170
 1895 0114 FB68     		ldr	r3, [r7, #12]
 1896 0116 0222     		movs	r2, #2
 1897 0118 83F84620 		strb	r2, [r3, #70]
 1898 011c 06E0     		b	.L167
 1899              	.L170:
 1900 011e FB68     		ldr	r3, [r7, #12]
 1901 0120 0222     		movs	r2, #2
 1902 0122 83F84720 		strb	r2, [r3, #71]
 1903 0126 01E0     		b	.L167
 1904              	.L163:
 1905 0128 0123     		movs	r3, #1
 1906 012a D6E0     		b	.L156
 1907              	.L167:
 1908 012c BB68     		ldr	r3, [r7, #8]
 1909 012e 082B     		cmp	r3, #8
 1910 0130 51D0     		beq	.L172
ARM GAS  C:\msys64\tmp\ccXaZRRw.s 			page 34


 1911 0132 BB68     		ldr	r3, [r7, #8]
 1912 0134 082B     		cmp	r3, #8
 1913 0136 72D8     		bhi	.L173
 1914 0138 BB68     		ldr	r3, [r7, #8]
 1915 013a 002B     		cmp	r3, #0
 1916 013c 03D0     		beq	.L174
 1917 013e BB68     		ldr	r3, [r7, #8]
 1918 0140 042B     		cmp	r3, #4
 1919 0142 24D0     		beq	.L175
 1920 0144 6BE0     		b	.L173
 1921              	.L174:
 1922 0146 FB68     		ldr	r3, [r7, #12]
 1923 0148 5B6A     		ldr	r3, [r3, #36]
 1924 014a 664A     		ldr	r2, .L185
 1925 014c DA63     		str	r2, [r3, #60]
 1926 014e FB68     		ldr	r3, [r7, #12]
 1927 0150 5B6A     		ldr	r3, [r3, #36]
 1928 0152 654A     		ldr	r2, .L185+4
 1929 0154 1A64     		str	r2, [r3, #64]
 1930 0156 FB68     		ldr	r3, [r7, #12]
 1931 0158 5B6A     		ldr	r3, [r3, #36]
 1932 015a 644A     		ldr	r2, .L185+8
 1933 015c DA64     		str	r2, [r3, #76]
 1934 015e FB68     		ldr	r3, [r7, #12]
 1935 0160 586A     		ldr	r0, [r3, #36]
 1936 0162 7968     		ldr	r1, [r7, #4]
 1937 0164 FB68     		ldr	r3, [r7, #12]
 1938 0166 1B68     		ldr	r3, [r3]
 1939 0168 3433     		adds	r3, r3, #52
 1940 016a 1A46     		mov	r2, r3
 1941 016c 7B88     		ldrh	r3, [r7, #2]
 1942 016e FFF7FEFF 		bl	HAL_DMA_Start_IT
 1943 0172 0346     		mov	r3, r0
 1944 0174 002B     		cmp	r3, #0
 1945 0176 01D0     		beq	.L176
 1946 0178 0123     		movs	r3, #1
 1947 017a AEE0     		b	.L156
 1948              	.L176:
 1949 017c FB68     		ldr	r3, [r7, #12]
 1950 017e 1B68     		ldr	r3, [r3]
 1951 0180 DA68     		ldr	r2, [r3, #12]
 1952 0182 FB68     		ldr	r3, [r7, #12]
 1953 0184 1B68     		ldr	r3, [r3]
 1954 0186 42F40072 		orr	r2, r2, #512
 1955 018a DA60     		str	r2, [r3, #12]
 1956 018c 4AE0     		b	.L177
 1957              	.L175:
 1958 018e FB68     		ldr	r3, [r7, #12]
 1959 0190 9B6A     		ldr	r3, [r3, #40]
 1960 0192 544A     		ldr	r2, .L185
 1961 0194 DA63     		str	r2, [r3, #60]
 1962 0196 FB68     		ldr	r3, [r7, #12]
 1963 0198 9B6A     		ldr	r3, [r3, #40]
 1964 019a 534A     		ldr	r2, .L185+4
 1965 019c 1A64     		str	r2, [r3, #64]
 1966 019e FB68     		ldr	r3, [r7, #12]
 1967 01a0 9B6A     		ldr	r3, [r3, #40]
ARM GAS  C:\msys64\tmp\ccXaZRRw.s 			page 35


 1968 01a2 524A     		ldr	r2, .L185+8
 1969 01a4 DA64     		str	r2, [r3, #76]
 1970 01a6 FB68     		ldr	r3, [r7, #12]
 1971 01a8 986A     		ldr	r0, [r3, #40]
 1972 01aa 7968     		ldr	r1, [r7, #4]
 1973 01ac FB68     		ldr	r3, [r7, #12]
 1974 01ae 1B68     		ldr	r3, [r3]
 1975 01b0 3833     		adds	r3, r3, #56
 1976 01b2 1A46     		mov	r2, r3
 1977 01b4 7B88     		ldrh	r3, [r7, #2]
 1978 01b6 FFF7FEFF 		bl	HAL_DMA_Start_IT
 1979 01ba 0346     		mov	r3, r0
 1980 01bc 002B     		cmp	r3, #0
 1981 01be 01D0     		beq	.L178
 1982 01c0 0123     		movs	r3, #1
 1983 01c2 8AE0     		b	.L156
 1984              	.L178:
 1985 01c4 FB68     		ldr	r3, [r7, #12]
 1986 01c6 1B68     		ldr	r3, [r3]
 1987 01c8 DA68     		ldr	r2, [r3, #12]
 1988 01ca FB68     		ldr	r3, [r7, #12]
 1989 01cc 1B68     		ldr	r3, [r3]
 1990 01ce 42F48062 		orr	r2, r2, #1024
 1991 01d2 DA60     		str	r2, [r3, #12]
 1992 01d4 26E0     		b	.L177
 1993              	.L172:
 1994 01d6 FB68     		ldr	r3, [r7, #12]
 1995 01d8 DB6A     		ldr	r3, [r3, #44]
 1996 01da 424A     		ldr	r2, .L185
 1997 01dc DA63     		str	r2, [r3, #60]
 1998 01de FB68     		ldr	r3, [r7, #12]
 1999 01e0 DB6A     		ldr	r3, [r3, #44]
 2000 01e2 414A     		ldr	r2, .L185+4
 2001 01e4 1A64     		str	r2, [r3, #64]
 2002 01e6 FB68     		ldr	r3, [r7, #12]
 2003 01e8 DB6A     		ldr	r3, [r3, #44]
 2004 01ea 404A     		ldr	r2, .L185+8
 2005 01ec DA64     		str	r2, [r3, #76]
 2006 01ee FB68     		ldr	r3, [r7, #12]
 2007 01f0 D86A     		ldr	r0, [r3, #44]
 2008 01f2 7968     		ldr	r1, [r7, #4]
 2009 01f4 FB68     		ldr	r3, [r7, #12]
 2010 01f6 1B68     		ldr	r3, [r3]
 2011 01f8 3C33     		adds	r3, r3, #60
 2012 01fa 1A46     		mov	r2, r3
 2013 01fc 7B88     		ldrh	r3, [r7, #2]
 2014 01fe FFF7FEFF 		bl	HAL_DMA_Start_IT
 2015 0202 0346     		mov	r3, r0
 2016 0204 002B     		cmp	r3, #0
 2017 0206 01D0     		beq	.L179
 2018 0208 0123     		movs	r3, #1
 2019 020a 66E0     		b	.L156
 2020              	.L179:
 2021 020c FB68     		ldr	r3, [r7, #12]
 2022 020e 1B68     		ldr	r3, [r3]
 2023 0210 DA68     		ldr	r2, [r3, #12]
 2024 0212 FB68     		ldr	r3, [r7, #12]
ARM GAS  C:\msys64\tmp\ccXaZRRw.s 			page 36


 2025 0214 1B68     		ldr	r3, [r3]
 2026 0216 42F40062 		orr	r2, r2, #2048
 2027 021a DA60     		str	r2, [r3, #12]
 2028 021c 02E0     		b	.L177
 2029              	.L173:
 2030 021e 0123     		movs	r3, #1
 2031 0220 FB75     		strb	r3, [r7, #23]
 2032 0222 00BF     		nop
 2033              	.L177:
 2034 0224 FB7D     		ldrb	r3, [r7, #23]	@ zero_extendqisi2
 2035 0226 002B     		cmp	r3, #0
 2036 0228 56D1     		bne	.L180
 2037 022a FB68     		ldr	r3, [r7, #12]
 2038 022c 1B68     		ldr	r3, [r3]
 2039 022e 0422     		movs	r2, #4
 2040 0230 B968     		ldr	r1, [r7, #8]
 2041 0232 1846     		mov	r0, r3
 2042 0234 FFF7FEFF 		bl	TIM_CCxNChannelCmd
 2043 0238 FB68     		ldr	r3, [r7, #12]
 2044 023a 1B68     		ldr	r3, [r3]
 2045 023c 5A6C     		ldr	r2, [r3, #68]
 2046 023e FB68     		ldr	r3, [r7, #12]
 2047 0240 1B68     		ldr	r3, [r3]
 2048 0242 42F40042 		orr	r2, r2, #32768
 2049 0246 5A64     		str	r2, [r3, #68]
 2050 0248 FB68     		ldr	r3, [r7, #12]
 2051 024a 1B68     		ldr	r3, [r3]
 2052 024c 284A     		ldr	r2, .L185+12
 2053 024e 9342     		cmp	r3, r2
 2054 0250 22D0     		beq	.L181
 2055 0252 FB68     		ldr	r3, [r7, #12]
 2056 0254 1B68     		ldr	r3, [r3]
 2057 0256 B3F1804F 		cmp	r3, #1073741824
 2058 025a 1DD0     		beq	.L181
 2059 025c FB68     		ldr	r3, [r7, #12]
 2060 025e 1B68     		ldr	r3, [r3]
 2061 0260 244A     		ldr	r2, .L185+16
 2062 0262 9342     		cmp	r3, r2
 2063 0264 18D0     		beq	.L181
 2064 0266 FB68     		ldr	r3, [r7, #12]
 2065 0268 1B68     		ldr	r3, [r3]
 2066 026a 234A     		ldr	r2, .L185+20
 2067 026c 9342     		cmp	r3, r2
 2068 026e 13D0     		beq	.L181
 2069 0270 FB68     		ldr	r3, [r7, #12]
 2070 0272 1B68     		ldr	r3, [r3]
 2071 0274 214A     		ldr	r2, .L185+24
 2072 0276 9342     		cmp	r3, r2
 2073 0278 0ED0     		beq	.L181
 2074 027a FB68     		ldr	r3, [r7, #12]
 2075 027c 1B68     		ldr	r3, [r3]
 2076 027e 204A     		ldr	r2, .L185+28
 2077 0280 9342     		cmp	r3, r2
 2078 0282 09D0     		beq	.L181
 2079 0284 FB68     		ldr	r3, [r7, #12]
 2080 0286 1B68     		ldr	r3, [r3]
 2081 0288 1E4A     		ldr	r2, .L185+32
ARM GAS  C:\msys64\tmp\ccXaZRRw.s 			page 37


 2082 028a 9342     		cmp	r3, r2
 2083 028c 04D0     		beq	.L181
 2084 028e FB68     		ldr	r3, [r7, #12]
 2085 0290 1B68     		ldr	r3, [r3]
 2086 0292 1D4A     		ldr	r2, .L185+36
 2087 0294 9342     		cmp	r3, r2
 2088 0296 15D1     		bne	.L182
 2089              	.L181:
 2090 0298 FB68     		ldr	r3, [r7, #12]
 2091 029a 1B68     		ldr	r3, [r3]
 2092 029c 9A68     		ldr	r2, [r3, #8]
 2093 029e 1B4B     		ldr	r3, .L185+40
 2094 02a0 1340     		ands	r3, r3, r2
 2095 02a2 3B61     		str	r3, [r7, #16]
 2096 02a4 3B69     		ldr	r3, [r7, #16]
 2097 02a6 062B     		cmp	r3, #6
 2098 02a8 15D0     		beq	.L184
 2099 02aa 3B69     		ldr	r3, [r7, #16]
 2100 02ac B3F5803F 		cmp	r3, #65536
 2101 02b0 11D0     		beq	.L184
 2102 02b2 FB68     		ldr	r3, [r7, #12]
 2103 02b4 1B68     		ldr	r3, [r3]
 2104 02b6 1A68     		ldr	r2, [r3]
 2105 02b8 FB68     		ldr	r3, [r7, #12]
 2106 02ba 1B68     		ldr	r3, [r3]
 2107 02bc 42F00102 		orr	r2, r2, #1
 2108 02c0 1A60     		str	r2, [r3]
 2109 02c2 08E0     		b	.L184
 2110              	.L182:
 2111 02c4 FB68     		ldr	r3, [r7, #12]
 2112 02c6 1B68     		ldr	r3, [r3]
 2113 02c8 1A68     		ldr	r2, [r3]
 2114 02ca FB68     		ldr	r3, [r7, #12]
 2115 02cc 1B68     		ldr	r3, [r3]
 2116 02ce 42F00102 		orr	r2, r2, #1
 2117 02d2 1A60     		str	r2, [r3]
 2118 02d4 00E0     		b	.L180
 2119              	.L184:
 2120 02d6 00BF     		nop
 2121              	.L180:
 2122 02d8 FB7D     		ldrb	r3, [r7, #23]	@ zero_extendqisi2
 2123              	.L156:
 2124 02da 1846     		mov	r0, r3
 2125 02dc 1837     		adds	r7, r7, #24
 2126 02de BD46     		mov	sp, r7
 2127              		@ sp needed
 2128 02e0 80BD     		pop	{r7, pc}
 2129              	.L186:
 2130 02e2 00BF     		.align	2
 2131              	.L185:
 2132 02e4 00000000 		.word	TIM_DMADelayPulseNCplt
 2133 02e8 00000000 		.word	TIM_DMADelayPulseHalfCplt
 2134 02ec 00000000 		.word	TIM_DMAErrorCCxN
 2135 02f0 00000140 		.word	1073807360
 2136 02f4 00040040 		.word	1073742848
 2137 02f8 00080040 		.word	1073743872
 2138 02fc 000C0040 		.word	1073744896
ARM GAS  C:\msys64\tmp\ccXaZRRw.s 			page 38


 2139 0300 00040140 		.word	1073808384
 2140 0304 00400140 		.word	1073823744
 2141 0308 00180040 		.word	1073747968
 2142 030c 07000100 		.word	65543
 2144              		.section	.text.HAL_TIMEx_OCN_Stop_DMA,"ax",%progbits
 2145              		.align	1
 2146              		.global	HAL_TIMEx_OCN_Stop_DMA
 2147              		.syntax unified
 2148              		.thumb
 2149              		.thumb_func
 2151              	HAL_TIMEx_OCN_Stop_DMA:
 2152              		@ args = 0, pretend = 0, frame = 16
 2153              		@ frame_needed = 1, uses_anonymous_args = 0
 2154 0000 80B5     		push	{r7, lr}
 2155 0002 84B0     		sub	sp, sp, #16
 2156 0004 00AF     		add	r7, sp, #0
 2157 0006 7860     		str	r0, [r7, #4]
 2158 0008 3960     		str	r1, [r7]
 2159 000a 0023     		movs	r3, #0
 2160 000c FB73     		strb	r3, [r7, #15]
 2161 000e 3B68     		ldr	r3, [r7]
 2162 0010 082B     		cmp	r3, #8
 2163 0012 25D0     		beq	.L188
 2164 0014 3B68     		ldr	r3, [r7]
 2165 0016 082B     		cmp	r3, #8
 2166 0018 30D8     		bhi	.L189
 2167 001a 3B68     		ldr	r3, [r7]
 2168 001c 002B     		cmp	r3, #0
 2169 001e 03D0     		beq	.L190
 2170 0020 3B68     		ldr	r3, [r7]
 2171 0022 042B     		cmp	r3, #4
 2172 0024 0ED0     		beq	.L191
 2173 0026 29E0     		b	.L189
 2174              	.L190:
 2175 0028 7B68     		ldr	r3, [r7, #4]
 2176 002a 1B68     		ldr	r3, [r3]
 2177 002c DA68     		ldr	r2, [r3, #12]
 2178 002e 7B68     		ldr	r3, [r7, #4]
 2179 0030 1B68     		ldr	r3, [r3]
 2180 0032 22F40072 		bic	r2, r2, #512
 2181 0036 DA60     		str	r2, [r3, #12]
 2182 0038 7B68     		ldr	r3, [r7, #4]
 2183 003a 5B6A     		ldr	r3, [r3, #36]
 2184 003c 1846     		mov	r0, r3
 2185 003e FFF7FEFF 		bl	HAL_DMA_Abort_IT
 2186 0042 1EE0     		b	.L192
 2187              	.L191:
 2188 0044 7B68     		ldr	r3, [r7, #4]
 2189 0046 1B68     		ldr	r3, [r3]
 2190 0048 DA68     		ldr	r2, [r3, #12]
 2191 004a 7B68     		ldr	r3, [r7, #4]
 2192 004c 1B68     		ldr	r3, [r3]
 2193 004e 22F48062 		bic	r2, r2, #1024
 2194 0052 DA60     		str	r2, [r3, #12]
 2195 0054 7B68     		ldr	r3, [r7, #4]
 2196 0056 9B6A     		ldr	r3, [r3, #40]
 2197 0058 1846     		mov	r0, r3
ARM GAS  C:\msys64\tmp\ccXaZRRw.s 			page 39


 2198 005a FFF7FEFF 		bl	HAL_DMA_Abort_IT
 2199 005e 10E0     		b	.L192
 2200              	.L188:
 2201 0060 7B68     		ldr	r3, [r7, #4]
 2202 0062 1B68     		ldr	r3, [r3]
 2203 0064 DA68     		ldr	r2, [r3, #12]
 2204 0066 7B68     		ldr	r3, [r7, #4]
 2205 0068 1B68     		ldr	r3, [r3]
 2206 006a 22F40062 		bic	r2, r2, #2048
 2207 006e DA60     		str	r2, [r3, #12]
 2208 0070 7B68     		ldr	r3, [r7, #4]
 2209 0072 DB6A     		ldr	r3, [r3, #44]
 2210 0074 1846     		mov	r0, r3
 2211 0076 FFF7FEFF 		bl	HAL_DMA_Abort_IT
 2212 007a 02E0     		b	.L192
 2213              	.L189:
 2214 007c 0123     		movs	r3, #1
 2215 007e FB73     		strb	r3, [r7, #15]
 2216 0080 00BF     		nop
 2217              	.L192:
 2218 0082 FB7B     		ldrb	r3, [r7, #15]	@ zero_extendqisi2
 2219 0084 002B     		cmp	r3, #0
 2220 0086 50D1     		bne	.L193
 2221 0088 7B68     		ldr	r3, [r7, #4]
 2222 008a 1B68     		ldr	r3, [r3]
 2223 008c 0022     		movs	r2, #0
 2224 008e 3968     		ldr	r1, [r7]
 2225 0090 1846     		mov	r0, r3
 2226 0092 FFF7FEFF 		bl	TIM_CCxNChannelCmd
 2227 0096 7B68     		ldr	r3, [r7, #4]
 2228 0098 1B68     		ldr	r3, [r3]
 2229 009a 1A6A     		ldr	r2, [r3, #32]
 2230 009c 254B     		ldr	r3, .L202
 2231 009e 1340     		ands	r3, r3, r2
 2232 00a0 002B     		cmp	r3, #0
 2233 00a2 0FD1     		bne	.L194
 2234 00a4 7B68     		ldr	r3, [r7, #4]
 2235 00a6 1B68     		ldr	r3, [r3]
 2236 00a8 1A6A     		ldr	r2, [r3, #32]
 2237 00aa 40F24443 		movw	r3, #1092
 2238 00ae 1340     		ands	r3, r3, r2
 2239 00b0 002B     		cmp	r3, #0
 2240 00b2 07D1     		bne	.L194
 2241 00b4 7B68     		ldr	r3, [r7, #4]
 2242 00b6 1B68     		ldr	r3, [r3]
 2243 00b8 5A6C     		ldr	r2, [r3, #68]
 2244 00ba 7B68     		ldr	r3, [r7, #4]
 2245 00bc 1B68     		ldr	r3, [r3]
 2246 00be 22F40042 		bic	r2, r2, #32768
 2247 00c2 5A64     		str	r2, [r3, #68]
 2248              	.L194:
 2249 00c4 7B68     		ldr	r3, [r7, #4]
 2250 00c6 1B68     		ldr	r3, [r3]
 2251 00c8 1A6A     		ldr	r2, [r3, #32]
 2252 00ca 1A4B     		ldr	r3, .L202
 2253 00cc 1340     		ands	r3, r3, r2
 2254 00ce 002B     		cmp	r3, #0
ARM GAS  C:\msys64\tmp\ccXaZRRw.s 			page 40


 2255 00d0 0FD1     		bne	.L195
 2256 00d2 7B68     		ldr	r3, [r7, #4]
 2257 00d4 1B68     		ldr	r3, [r3]
 2258 00d6 1A6A     		ldr	r2, [r3, #32]
 2259 00d8 40F24443 		movw	r3, #1092
 2260 00dc 1340     		ands	r3, r3, r2
 2261 00de 002B     		cmp	r3, #0
 2262 00e0 07D1     		bne	.L195
 2263 00e2 7B68     		ldr	r3, [r7, #4]
 2264 00e4 1B68     		ldr	r3, [r3]
 2265 00e6 1A68     		ldr	r2, [r3]
 2266 00e8 7B68     		ldr	r3, [r7, #4]
 2267 00ea 1B68     		ldr	r3, [r3]
 2268 00ec 22F00102 		bic	r2, r2, #1
 2269 00f0 1A60     		str	r2, [r3]
 2270              	.L195:
 2271 00f2 3B68     		ldr	r3, [r7]
 2272 00f4 002B     		cmp	r3, #0
 2273 00f6 04D1     		bne	.L196
 2274 00f8 7B68     		ldr	r3, [r7, #4]
 2275 00fa 0122     		movs	r2, #1
 2276 00fc 83F84420 		strb	r2, [r3, #68]
 2277 0100 13E0     		b	.L193
 2278              	.L196:
 2279 0102 3B68     		ldr	r3, [r7]
 2280 0104 042B     		cmp	r3, #4
 2281 0106 04D1     		bne	.L197
 2282 0108 7B68     		ldr	r3, [r7, #4]
 2283 010a 0122     		movs	r2, #1
 2284 010c 83F84520 		strb	r2, [r3, #69]
 2285 0110 0BE0     		b	.L193
 2286              	.L197:
 2287 0112 3B68     		ldr	r3, [r7]
 2288 0114 082B     		cmp	r3, #8
 2289 0116 04D1     		bne	.L199
 2290 0118 7B68     		ldr	r3, [r7, #4]
 2291 011a 0122     		movs	r2, #1
 2292 011c 83F84620 		strb	r2, [r3, #70]
 2293 0120 03E0     		b	.L193
 2294              	.L199:
 2295 0122 7B68     		ldr	r3, [r7, #4]
 2296 0124 0122     		movs	r2, #1
 2297 0126 83F84720 		strb	r2, [r3, #71]
 2298              	.L193:
 2299 012a FB7B     		ldrb	r3, [r7, #15]	@ zero_extendqisi2
 2300 012c 1846     		mov	r0, r3
 2301 012e 1037     		adds	r7, r7, #16
 2302 0130 BD46     		mov	sp, r7
 2303              		@ sp needed
 2304 0132 80BD     		pop	{r7, pc}
 2305              	.L203:
 2306              		.align	2
 2307              	.L202:
 2308 0134 11111100 		.word	1118481
 2310              		.section	.text.HAL_TIMEx_PWMN_Start,"ax",%progbits
 2311              		.align	1
 2312              		.global	HAL_TIMEx_PWMN_Start
ARM GAS  C:\msys64\tmp\ccXaZRRw.s 			page 41


 2313              		.syntax unified
 2314              		.thumb
 2315              		.thumb_func
 2317              	HAL_TIMEx_PWMN_Start:
 2318              		@ args = 0, pretend = 0, frame = 16
 2319              		@ frame_needed = 1, uses_anonymous_args = 0
 2320 0000 80B5     		push	{r7, lr}
 2321 0002 84B0     		sub	sp, sp, #16
 2322 0004 00AF     		add	r7, sp, #0
 2323 0006 7860     		str	r0, [r7, #4]
 2324 0008 3960     		str	r1, [r7]
 2325 000a 3B68     		ldr	r3, [r7]
 2326 000c 002B     		cmp	r3, #0
 2327 000e 09D1     		bne	.L205
 2328 0010 7B68     		ldr	r3, [r7, #4]
 2329 0012 93F84430 		ldrb	r3, [r3, #68]
 2330 0016 DBB2     		uxtb	r3, r3
 2331 0018 012B     		cmp	r3, #1
 2332 001a 14BF     		ite	ne
 2333 001c 0123     		movne	r3, #1
 2334 001e 0023     		moveq	r3, #0
 2335 0020 DBB2     		uxtb	r3, r3
 2336 0022 22E0     		b	.L206
 2337              	.L205:
 2338 0024 3B68     		ldr	r3, [r7]
 2339 0026 042B     		cmp	r3, #4
 2340 0028 09D1     		bne	.L207
 2341 002a 7B68     		ldr	r3, [r7, #4]
 2342 002c 93F84530 		ldrb	r3, [r3, #69]
 2343 0030 DBB2     		uxtb	r3, r3
 2344 0032 012B     		cmp	r3, #1
 2345 0034 14BF     		ite	ne
 2346 0036 0123     		movne	r3, #1
 2347 0038 0023     		moveq	r3, #0
 2348 003a DBB2     		uxtb	r3, r3
 2349 003c 15E0     		b	.L206
 2350              	.L207:
 2351 003e 3B68     		ldr	r3, [r7]
 2352 0040 082B     		cmp	r3, #8
 2353 0042 09D1     		bne	.L209
 2354 0044 7B68     		ldr	r3, [r7, #4]
 2355 0046 93F84630 		ldrb	r3, [r3, #70]
 2356 004a DBB2     		uxtb	r3, r3
 2357 004c 012B     		cmp	r3, #1
 2358 004e 14BF     		ite	ne
 2359 0050 0123     		movne	r3, #1
 2360 0052 0023     		moveq	r3, #0
 2361 0054 DBB2     		uxtb	r3, r3
 2362 0056 08E0     		b	.L206
 2363              	.L209:
 2364 0058 7B68     		ldr	r3, [r7, #4]
 2365 005a 93F84730 		ldrb	r3, [r3, #71]
 2366 005e DBB2     		uxtb	r3, r3
 2367 0060 012B     		cmp	r3, #1
 2368 0062 14BF     		ite	ne
 2369 0064 0123     		movne	r3, #1
 2370 0066 0023     		moveq	r3, #0
ARM GAS  C:\msys64\tmp\ccXaZRRw.s 			page 42


 2371 0068 DBB2     		uxtb	r3, r3
 2372              	.L206:
 2373 006a 002B     		cmp	r3, #0
 2374 006c 01D0     		beq	.L211
 2375 006e 0123     		movs	r3, #1
 2376 0070 73E0     		b	.L212
 2377              	.L211:
 2378 0072 3B68     		ldr	r3, [r7]
 2379 0074 002B     		cmp	r3, #0
 2380 0076 04D1     		bne	.L213
 2381 0078 7B68     		ldr	r3, [r7, #4]
 2382 007a 0222     		movs	r2, #2
 2383 007c 83F84420 		strb	r2, [r3, #68]
 2384 0080 13E0     		b	.L214
 2385              	.L213:
 2386 0082 3B68     		ldr	r3, [r7]
 2387 0084 042B     		cmp	r3, #4
 2388 0086 04D1     		bne	.L215
 2389 0088 7B68     		ldr	r3, [r7, #4]
 2390 008a 0222     		movs	r2, #2
 2391 008c 83F84520 		strb	r2, [r3, #69]
 2392 0090 0BE0     		b	.L214
 2393              	.L215:
 2394 0092 3B68     		ldr	r3, [r7]
 2395 0094 082B     		cmp	r3, #8
 2396 0096 04D1     		bne	.L217
 2397 0098 7B68     		ldr	r3, [r7, #4]
 2398 009a 0222     		movs	r2, #2
 2399 009c 83F84620 		strb	r2, [r3, #70]
 2400 00a0 03E0     		b	.L214
 2401              	.L217:
 2402 00a2 7B68     		ldr	r3, [r7, #4]
 2403 00a4 0222     		movs	r2, #2
 2404 00a6 83F84720 		strb	r2, [r3, #71]
 2405              	.L214:
 2406 00aa 7B68     		ldr	r3, [r7, #4]
 2407 00ac 1B68     		ldr	r3, [r3]
 2408 00ae 0422     		movs	r2, #4
 2409 00b0 3968     		ldr	r1, [r7]
 2410 00b2 1846     		mov	r0, r3
 2411 00b4 FFF7FEFF 		bl	TIM_CCxNChannelCmd
 2412 00b8 7B68     		ldr	r3, [r7, #4]
 2413 00ba 1B68     		ldr	r3, [r3]
 2414 00bc 5A6C     		ldr	r2, [r3, #68]
 2415 00be 7B68     		ldr	r3, [r7, #4]
 2416 00c0 1B68     		ldr	r3, [r3]
 2417 00c2 42F40042 		orr	r2, r2, #32768
 2418 00c6 5A64     		str	r2, [r3, #68]
 2419 00c8 7B68     		ldr	r3, [r7, #4]
 2420 00ca 1B68     		ldr	r3, [r3]
 2421 00cc 254A     		ldr	r2, .L224
 2422 00ce 9342     		cmp	r3, r2
 2423 00d0 22D0     		beq	.L219
 2424 00d2 7B68     		ldr	r3, [r7, #4]
 2425 00d4 1B68     		ldr	r3, [r3]
 2426 00d6 B3F1804F 		cmp	r3, #1073741824
 2427 00da 1DD0     		beq	.L219
ARM GAS  C:\msys64\tmp\ccXaZRRw.s 			page 43


 2428 00dc 7B68     		ldr	r3, [r7, #4]
 2429 00de 1B68     		ldr	r3, [r3]
 2430 00e0 214A     		ldr	r2, .L224+4
 2431 00e2 9342     		cmp	r3, r2
 2432 00e4 18D0     		beq	.L219
 2433 00e6 7B68     		ldr	r3, [r7, #4]
 2434 00e8 1B68     		ldr	r3, [r3]
 2435 00ea 204A     		ldr	r2, .L224+8
 2436 00ec 9342     		cmp	r3, r2
 2437 00ee 13D0     		beq	.L219
 2438 00f0 7B68     		ldr	r3, [r7, #4]
 2439 00f2 1B68     		ldr	r3, [r3]
 2440 00f4 1E4A     		ldr	r2, .L224+12
 2441 00f6 9342     		cmp	r3, r2
 2442 00f8 0ED0     		beq	.L219
 2443 00fa 7B68     		ldr	r3, [r7, #4]
 2444 00fc 1B68     		ldr	r3, [r3]
 2445 00fe 1D4A     		ldr	r2, .L224+16
 2446 0100 9342     		cmp	r3, r2
 2447 0102 09D0     		beq	.L219
 2448 0104 7B68     		ldr	r3, [r7, #4]
 2449 0106 1B68     		ldr	r3, [r3]
 2450 0108 1B4A     		ldr	r2, .L224+20
 2451 010a 9342     		cmp	r3, r2
 2452 010c 04D0     		beq	.L219
 2453 010e 7B68     		ldr	r3, [r7, #4]
 2454 0110 1B68     		ldr	r3, [r3]
 2455 0112 1A4A     		ldr	r2, .L224+24
 2456 0114 9342     		cmp	r3, r2
 2457 0116 15D1     		bne	.L220
 2458              	.L219:
 2459 0118 7B68     		ldr	r3, [r7, #4]
 2460 011a 1B68     		ldr	r3, [r3]
 2461 011c 9A68     		ldr	r2, [r3, #8]
 2462 011e 184B     		ldr	r3, .L224+28
 2463 0120 1340     		ands	r3, r3, r2
 2464 0122 FB60     		str	r3, [r7, #12]
 2465 0124 FB68     		ldr	r3, [r7, #12]
 2466 0126 062B     		cmp	r3, #6
 2467 0128 15D0     		beq	.L223
 2468 012a FB68     		ldr	r3, [r7, #12]
 2469 012c B3F5803F 		cmp	r3, #65536
 2470 0130 11D0     		beq	.L223
 2471 0132 7B68     		ldr	r3, [r7, #4]
 2472 0134 1B68     		ldr	r3, [r3]
 2473 0136 1A68     		ldr	r2, [r3]
 2474 0138 7B68     		ldr	r3, [r7, #4]
 2475 013a 1B68     		ldr	r3, [r3]
 2476 013c 42F00102 		orr	r2, r2, #1
 2477 0140 1A60     		str	r2, [r3]
 2478 0142 08E0     		b	.L223
 2479              	.L220:
 2480 0144 7B68     		ldr	r3, [r7, #4]
 2481 0146 1B68     		ldr	r3, [r3]
 2482 0148 1A68     		ldr	r2, [r3]
 2483 014a 7B68     		ldr	r3, [r7, #4]
 2484 014c 1B68     		ldr	r3, [r3]
ARM GAS  C:\msys64\tmp\ccXaZRRw.s 			page 44


 2485 014e 42F00102 		orr	r2, r2, #1
 2486 0152 1A60     		str	r2, [r3]
 2487 0154 00E0     		b	.L222
 2488              	.L223:
 2489 0156 00BF     		nop
 2490              	.L222:
 2491 0158 0023     		movs	r3, #0
 2492              	.L212:
 2493 015a 1846     		mov	r0, r3
 2494 015c 1037     		adds	r7, r7, #16
 2495 015e BD46     		mov	sp, r7
 2496              		@ sp needed
 2497 0160 80BD     		pop	{r7, pc}
 2498              	.L225:
 2499 0162 00BF     		.align	2
 2500              	.L224:
 2501 0164 00000140 		.word	1073807360
 2502 0168 00040040 		.word	1073742848
 2503 016c 00080040 		.word	1073743872
 2504 0170 000C0040 		.word	1073744896
 2505 0174 00040140 		.word	1073808384
 2506 0178 00400140 		.word	1073823744
 2507 017c 00180040 		.word	1073747968
 2508 0180 07000100 		.word	65543
 2510              		.section	.text.HAL_TIMEx_PWMN_Stop,"ax",%progbits
 2511              		.align	1
 2512              		.global	HAL_TIMEx_PWMN_Stop
 2513              		.syntax unified
 2514              		.thumb
 2515              		.thumb_func
 2517              	HAL_TIMEx_PWMN_Stop:
 2518              		@ args = 0, pretend = 0, frame = 8
 2519              		@ frame_needed = 1, uses_anonymous_args = 0
 2520 0000 80B5     		push	{r7, lr}
 2521 0002 82B0     		sub	sp, sp, #8
 2522 0004 00AF     		add	r7, sp, #0
 2523 0006 7860     		str	r0, [r7, #4]
 2524 0008 3960     		str	r1, [r7]
 2525 000a 7B68     		ldr	r3, [r7, #4]
 2526 000c 1B68     		ldr	r3, [r3]
 2527 000e 0022     		movs	r2, #0
 2528 0010 3968     		ldr	r1, [r7]
 2529 0012 1846     		mov	r0, r3
 2530 0014 FFF7FEFF 		bl	TIM_CCxNChannelCmd
 2531 0018 7B68     		ldr	r3, [r7, #4]
 2532 001a 1B68     		ldr	r3, [r3]
 2533 001c 1A6A     		ldr	r2, [r3, #32]
 2534 001e 264B     		ldr	r3, .L236
 2535 0020 1340     		ands	r3, r3, r2
 2536 0022 002B     		cmp	r3, #0
 2537 0024 0FD1     		bne	.L227
 2538 0026 7B68     		ldr	r3, [r7, #4]
 2539 0028 1B68     		ldr	r3, [r3]
 2540 002a 1A6A     		ldr	r2, [r3, #32]
 2541 002c 40F24443 		movw	r3, #1092
 2542 0030 1340     		ands	r3, r3, r2
 2543 0032 002B     		cmp	r3, #0
ARM GAS  C:\msys64\tmp\ccXaZRRw.s 			page 45


 2544 0034 07D1     		bne	.L227
 2545 0036 7B68     		ldr	r3, [r7, #4]
 2546 0038 1B68     		ldr	r3, [r3]
 2547 003a 5A6C     		ldr	r2, [r3, #68]
 2548 003c 7B68     		ldr	r3, [r7, #4]
 2549 003e 1B68     		ldr	r3, [r3]
 2550 0040 22F40042 		bic	r2, r2, #32768
 2551 0044 5A64     		str	r2, [r3, #68]
 2552              	.L227:
 2553 0046 7B68     		ldr	r3, [r7, #4]
 2554 0048 1B68     		ldr	r3, [r3]
 2555 004a 1A6A     		ldr	r2, [r3, #32]
 2556 004c 1A4B     		ldr	r3, .L236
 2557 004e 1340     		ands	r3, r3, r2
 2558 0050 002B     		cmp	r3, #0
 2559 0052 0FD1     		bne	.L228
 2560 0054 7B68     		ldr	r3, [r7, #4]
 2561 0056 1B68     		ldr	r3, [r3]
 2562 0058 1A6A     		ldr	r2, [r3, #32]
 2563 005a 40F24443 		movw	r3, #1092
 2564 005e 1340     		ands	r3, r3, r2
 2565 0060 002B     		cmp	r3, #0
 2566 0062 07D1     		bne	.L228
 2567 0064 7B68     		ldr	r3, [r7, #4]
 2568 0066 1B68     		ldr	r3, [r3]
 2569 0068 1A68     		ldr	r2, [r3]
 2570 006a 7B68     		ldr	r3, [r7, #4]
 2571 006c 1B68     		ldr	r3, [r3]
 2572 006e 22F00102 		bic	r2, r2, #1
 2573 0072 1A60     		str	r2, [r3]
 2574              	.L228:
 2575 0074 3B68     		ldr	r3, [r7]
 2576 0076 002B     		cmp	r3, #0
 2577 0078 04D1     		bne	.L229
 2578 007a 7B68     		ldr	r3, [r7, #4]
 2579 007c 0122     		movs	r2, #1
 2580 007e 83F84420 		strb	r2, [r3, #68]
 2581 0082 13E0     		b	.L230
 2582              	.L229:
 2583 0084 3B68     		ldr	r3, [r7]
 2584 0086 042B     		cmp	r3, #4
 2585 0088 04D1     		bne	.L231
 2586 008a 7B68     		ldr	r3, [r7, #4]
 2587 008c 0122     		movs	r2, #1
 2588 008e 83F84520 		strb	r2, [r3, #69]
 2589 0092 0BE0     		b	.L230
 2590              	.L231:
 2591 0094 3B68     		ldr	r3, [r7]
 2592 0096 082B     		cmp	r3, #8
 2593 0098 04D1     		bne	.L233
 2594 009a 7B68     		ldr	r3, [r7, #4]
 2595 009c 0122     		movs	r2, #1
 2596 009e 83F84620 		strb	r2, [r3, #70]
 2597 00a2 03E0     		b	.L230
 2598              	.L233:
 2599 00a4 7B68     		ldr	r3, [r7, #4]
 2600 00a6 0122     		movs	r2, #1
ARM GAS  C:\msys64\tmp\ccXaZRRw.s 			page 46


 2601 00a8 83F84720 		strb	r2, [r3, #71]
 2602              	.L230:
 2603 00ac 0023     		movs	r3, #0
 2604 00ae 1846     		mov	r0, r3
 2605 00b0 0837     		adds	r7, r7, #8
 2606 00b2 BD46     		mov	sp, r7
 2607              		@ sp needed
 2608 00b4 80BD     		pop	{r7, pc}
 2609              	.L237:
 2610 00b6 00BF     		.align	2
 2611              	.L236:
 2612 00b8 11111100 		.word	1118481
 2614              		.section	.text.HAL_TIMEx_PWMN_Start_IT,"ax",%progbits
 2615              		.align	1
 2616              		.global	HAL_TIMEx_PWMN_Start_IT
 2617              		.syntax unified
 2618              		.thumb
 2619              		.thumb_func
 2621              	HAL_TIMEx_PWMN_Start_IT:
 2622              		@ args = 0, pretend = 0, frame = 16
 2623              		@ frame_needed = 1, uses_anonymous_args = 0
 2624 0000 80B5     		push	{r7, lr}
 2625 0002 84B0     		sub	sp, sp, #16
 2626 0004 00AF     		add	r7, sp, #0
 2627 0006 7860     		str	r0, [r7, #4]
 2628 0008 3960     		str	r1, [r7]
 2629 000a 0023     		movs	r3, #0
 2630 000c FB73     		strb	r3, [r7, #15]
 2631 000e 3B68     		ldr	r3, [r7]
 2632 0010 002B     		cmp	r3, #0
 2633 0012 09D1     		bne	.L239
 2634 0014 7B68     		ldr	r3, [r7, #4]
 2635 0016 93F84430 		ldrb	r3, [r3, #68]
 2636 001a DBB2     		uxtb	r3, r3
 2637 001c 012B     		cmp	r3, #1
 2638 001e 14BF     		ite	ne
 2639 0020 0123     		movne	r3, #1
 2640 0022 0023     		moveq	r3, #0
 2641 0024 DBB2     		uxtb	r3, r3
 2642 0026 22E0     		b	.L240
 2643              	.L239:
 2644 0028 3B68     		ldr	r3, [r7]
 2645 002a 042B     		cmp	r3, #4
 2646 002c 09D1     		bne	.L241
 2647 002e 7B68     		ldr	r3, [r7, #4]
 2648 0030 93F84530 		ldrb	r3, [r3, #69]
 2649 0034 DBB2     		uxtb	r3, r3
 2650 0036 012B     		cmp	r3, #1
 2651 0038 14BF     		ite	ne
 2652 003a 0123     		movne	r3, #1
 2653 003c 0023     		moveq	r3, #0
 2654 003e DBB2     		uxtb	r3, r3
 2655 0040 15E0     		b	.L240
 2656              	.L241:
 2657 0042 3B68     		ldr	r3, [r7]
 2658 0044 082B     		cmp	r3, #8
 2659 0046 09D1     		bne	.L243
ARM GAS  C:\msys64\tmp\ccXaZRRw.s 			page 47


 2660 0048 7B68     		ldr	r3, [r7, #4]
 2661 004a 93F84630 		ldrb	r3, [r3, #70]
 2662 004e DBB2     		uxtb	r3, r3
 2663 0050 012B     		cmp	r3, #1
 2664 0052 14BF     		ite	ne
 2665 0054 0123     		movne	r3, #1
 2666 0056 0023     		moveq	r3, #0
 2667 0058 DBB2     		uxtb	r3, r3
 2668 005a 08E0     		b	.L240
 2669              	.L243:
 2670 005c 7B68     		ldr	r3, [r7, #4]
 2671 005e 93F84730 		ldrb	r3, [r3, #71]
 2672 0062 DBB2     		uxtb	r3, r3
 2673 0064 012B     		cmp	r3, #1
 2674 0066 14BF     		ite	ne
 2675 0068 0123     		movne	r3, #1
 2676 006a 0023     		moveq	r3, #0
 2677 006c DBB2     		uxtb	r3, r3
 2678              	.L240:
 2679 006e 002B     		cmp	r3, #0
 2680 0070 01D0     		beq	.L245
 2681 0072 0123     		movs	r3, #1
 2682 0074 A9E0     		b	.L246
 2683              	.L245:
 2684 0076 3B68     		ldr	r3, [r7]
 2685 0078 002B     		cmp	r3, #0
 2686 007a 04D1     		bne	.L247
 2687 007c 7B68     		ldr	r3, [r7, #4]
 2688 007e 0222     		movs	r2, #2
 2689 0080 83F84420 		strb	r2, [r3, #68]
 2690 0084 13E0     		b	.L248
 2691              	.L247:
 2692 0086 3B68     		ldr	r3, [r7]
 2693 0088 042B     		cmp	r3, #4
 2694 008a 04D1     		bne	.L249
 2695 008c 7B68     		ldr	r3, [r7, #4]
 2696 008e 0222     		movs	r2, #2
 2697 0090 83F84520 		strb	r2, [r3, #69]
 2698 0094 0BE0     		b	.L248
 2699              	.L249:
 2700 0096 3B68     		ldr	r3, [r7]
 2701 0098 082B     		cmp	r3, #8
 2702 009a 04D1     		bne	.L251
 2703 009c 7B68     		ldr	r3, [r7, #4]
 2704 009e 0222     		movs	r2, #2
 2705 00a0 83F84620 		strb	r2, [r3, #70]
 2706 00a4 03E0     		b	.L248
 2707              	.L251:
 2708 00a6 7B68     		ldr	r3, [r7, #4]
 2709 00a8 0222     		movs	r2, #2
 2710 00aa 83F84720 		strb	r2, [r3, #71]
 2711              	.L248:
 2712 00ae 3B68     		ldr	r3, [r7]
 2713 00b0 082B     		cmp	r3, #8
 2714 00b2 1BD0     		beq	.L253
 2715 00b4 3B68     		ldr	r3, [r7]
 2716 00b6 082B     		cmp	r3, #8
ARM GAS  C:\msys64\tmp\ccXaZRRw.s 			page 48


 2717 00b8 21D8     		bhi	.L254
 2718 00ba 3B68     		ldr	r3, [r7]
 2719 00bc 002B     		cmp	r3, #0
 2720 00be 03D0     		beq	.L255
 2721 00c0 3B68     		ldr	r3, [r7]
 2722 00c2 042B     		cmp	r3, #4
 2723 00c4 09D0     		beq	.L256
 2724 00c6 1AE0     		b	.L254
 2725              	.L255:
 2726 00c8 7B68     		ldr	r3, [r7, #4]
 2727 00ca 1B68     		ldr	r3, [r3]
 2728 00cc DA68     		ldr	r2, [r3, #12]
 2729 00ce 7B68     		ldr	r3, [r7, #4]
 2730 00d0 1B68     		ldr	r3, [r3]
 2731 00d2 42F00202 		orr	r2, r2, #2
 2732 00d6 DA60     		str	r2, [r3, #12]
 2733 00d8 14E0     		b	.L257
 2734              	.L256:
 2735 00da 7B68     		ldr	r3, [r7, #4]
 2736 00dc 1B68     		ldr	r3, [r3]
 2737 00de DA68     		ldr	r2, [r3, #12]
 2738 00e0 7B68     		ldr	r3, [r7, #4]
 2739 00e2 1B68     		ldr	r3, [r3]
 2740 00e4 42F00402 		orr	r2, r2, #4
 2741 00e8 DA60     		str	r2, [r3, #12]
 2742 00ea 0BE0     		b	.L257
 2743              	.L253:
 2744 00ec 7B68     		ldr	r3, [r7, #4]
 2745 00ee 1B68     		ldr	r3, [r3]
 2746 00f0 DA68     		ldr	r2, [r3, #12]
 2747 00f2 7B68     		ldr	r3, [r7, #4]
 2748 00f4 1B68     		ldr	r3, [r3]
 2749 00f6 42F00802 		orr	r2, r2, #8
 2750 00fa DA60     		str	r2, [r3, #12]
 2751 00fc 02E0     		b	.L257
 2752              	.L254:
 2753 00fe 0123     		movs	r3, #1
 2754 0100 FB73     		strb	r3, [r7, #15]
 2755 0102 00BF     		nop
 2756              	.L257:
 2757 0104 FB7B     		ldrb	r3, [r7, #15]	@ zero_extendqisi2
 2758 0106 002B     		cmp	r3, #0
 2759 0108 5ED1     		bne	.L258
 2760 010a 7B68     		ldr	r3, [r7, #4]
 2761 010c 1B68     		ldr	r3, [r3]
 2762 010e DA68     		ldr	r2, [r3, #12]
 2763 0110 7B68     		ldr	r3, [r7, #4]
 2764 0112 1B68     		ldr	r3, [r3]
 2765 0114 42F08002 		orr	r2, r2, #128
 2766 0118 DA60     		str	r2, [r3, #12]
 2767 011a 7B68     		ldr	r3, [r7, #4]
 2768 011c 1B68     		ldr	r3, [r3]
 2769 011e 0422     		movs	r2, #4
 2770 0120 3968     		ldr	r1, [r7]
 2771 0122 1846     		mov	r0, r3
 2772 0124 FFF7FEFF 		bl	TIM_CCxNChannelCmd
 2773 0128 7B68     		ldr	r3, [r7, #4]
ARM GAS  C:\msys64\tmp\ccXaZRRw.s 			page 49


 2774 012a 1B68     		ldr	r3, [r3]
 2775 012c 5A6C     		ldr	r2, [r3, #68]
 2776 012e 7B68     		ldr	r3, [r7, #4]
 2777 0130 1B68     		ldr	r3, [r3]
 2778 0132 42F40042 		orr	r2, r2, #32768
 2779 0136 5A64     		str	r2, [r3, #68]
 2780 0138 7B68     		ldr	r3, [r7, #4]
 2781 013a 1B68     		ldr	r3, [r3]
 2782 013c 254A     		ldr	r2, .L263
 2783 013e 9342     		cmp	r3, r2
 2784 0140 22D0     		beq	.L259
 2785 0142 7B68     		ldr	r3, [r7, #4]
 2786 0144 1B68     		ldr	r3, [r3]
 2787 0146 B3F1804F 		cmp	r3, #1073741824
 2788 014a 1DD0     		beq	.L259
 2789 014c 7B68     		ldr	r3, [r7, #4]
 2790 014e 1B68     		ldr	r3, [r3]
 2791 0150 214A     		ldr	r2, .L263+4
 2792 0152 9342     		cmp	r3, r2
 2793 0154 18D0     		beq	.L259
 2794 0156 7B68     		ldr	r3, [r7, #4]
 2795 0158 1B68     		ldr	r3, [r3]
 2796 015a 204A     		ldr	r2, .L263+8
 2797 015c 9342     		cmp	r3, r2
 2798 015e 13D0     		beq	.L259
 2799 0160 7B68     		ldr	r3, [r7, #4]
 2800 0162 1B68     		ldr	r3, [r3]
 2801 0164 1E4A     		ldr	r2, .L263+12
 2802 0166 9342     		cmp	r3, r2
 2803 0168 0ED0     		beq	.L259
 2804 016a 7B68     		ldr	r3, [r7, #4]
 2805 016c 1B68     		ldr	r3, [r3]
 2806 016e 1D4A     		ldr	r2, .L263+16
 2807 0170 9342     		cmp	r3, r2
 2808 0172 09D0     		beq	.L259
 2809 0174 7B68     		ldr	r3, [r7, #4]
 2810 0176 1B68     		ldr	r3, [r3]
 2811 0178 1B4A     		ldr	r2, .L263+20
 2812 017a 9342     		cmp	r3, r2
 2813 017c 04D0     		beq	.L259
 2814 017e 7B68     		ldr	r3, [r7, #4]
 2815 0180 1B68     		ldr	r3, [r3]
 2816 0182 1A4A     		ldr	r2, .L263+24
 2817 0184 9342     		cmp	r3, r2
 2818 0186 15D1     		bne	.L260
 2819              	.L259:
 2820 0188 7B68     		ldr	r3, [r7, #4]
 2821 018a 1B68     		ldr	r3, [r3]
 2822 018c 9A68     		ldr	r2, [r3, #8]
 2823 018e 184B     		ldr	r3, .L263+28
 2824 0190 1340     		ands	r3, r3, r2
 2825 0192 BB60     		str	r3, [r7, #8]
 2826 0194 BB68     		ldr	r3, [r7, #8]
 2827 0196 062B     		cmp	r3, #6
 2828 0198 15D0     		beq	.L262
 2829 019a BB68     		ldr	r3, [r7, #8]
 2830 019c B3F5803F 		cmp	r3, #65536
ARM GAS  C:\msys64\tmp\ccXaZRRw.s 			page 50


 2831 01a0 11D0     		beq	.L262
 2832 01a2 7B68     		ldr	r3, [r7, #4]
 2833 01a4 1B68     		ldr	r3, [r3]
 2834 01a6 1A68     		ldr	r2, [r3]
 2835 01a8 7B68     		ldr	r3, [r7, #4]
 2836 01aa 1B68     		ldr	r3, [r3]
 2837 01ac 42F00102 		orr	r2, r2, #1
 2838 01b0 1A60     		str	r2, [r3]
 2839 01b2 08E0     		b	.L262
 2840              	.L260:
 2841 01b4 7B68     		ldr	r3, [r7, #4]
 2842 01b6 1B68     		ldr	r3, [r3]
 2843 01b8 1A68     		ldr	r2, [r3]
 2844 01ba 7B68     		ldr	r3, [r7, #4]
 2845 01bc 1B68     		ldr	r3, [r3]
 2846 01be 42F00102 		orr	r2, r2, #1
 2847 01c2 1A60     		str	r2, [r3]
 2848 01c4 00E0     		b	.L258
 2849              	.L262:
 2850 01c6 00BF     		nop
 2851              	.L258:
 2852 01c8 FB7B     		ldrb	r3, [r7, #15]	@ zero_extendqisi2
 2853              	.L246:
 2854 01ca 1846     		mov	r0, r3
 2855 01cc 1037     		adds	r7, r7, #16
 2856 01ce BD46     		mov	sp, r7
 2857              		@ sp needed
 2858 01d0 80BD     		pop	{r7, pc}
 2859              	.L264:
 2860 01d2 00BF     		.align	2
 2861              	.L263:
 2862 01d4 00000140 		.word	1073807360
 2863 01d8 00040040 		.word	1073742848
 2864 01dc 00080040 		.word	1073743872
 2865 01e0 000C0040 		.word	1073744896
 2866 01e4 00040140 		.word	1073808384
 2867 01e8 00400140 		.word	1073823744
 2868 01ec 00180040 		.word	1073747968
 2869 01f0 07000100 		.word	65543
 2871              		.section	.text.HAL_TIMEx_PWMN_Stop_IT,"ax",%progbits
 2872              		.align	1
 2873              		.global	HAL_TIMEx_PWMN_Stop_IT
 2874              		.syntax unified
 2875              		.thumb
 2876              		.thumb_func
 2878              	HAL_TIMEx_PWMN_Stop_IT:
 2879              		@ args = 0, pretend = 0, frame = 16
 2880              		@ frame_needed = 1, uses_anonymous_args = 0
 2881 0000 80B5     		push	{r7, lr}
 2882 0002 84B0     		sub	sp, sp, #16
 2883 0004 00AF     		add	r7, sp, #0
 2884 0006 7860     		str	r0, [r7, #4]
 2885 0008 3960     		str	r1, [r7]
 2886 000a 0023     		movs	r3, #0
 2887 000c FB73     		strb	r3, [r7, #15]
 2888 000e 3B68     		ldr	r3, [r7]
 2889 0010 082B     		cmp	r3, #8
ARM GAS  C:\msys64\tmp\ccXaZRRw.s 			page 51


 2890 0012 1BD0     		beq	.L266
 2891 0014 3B68     		ldr	r3, [r7]
 2892 0016 082B     		cmp	r3, #8
 2893 0018 21D8     		bhi	.L267
 2894 001a 3B68     		ldr	r3, [r7]
 2895 001c 002B     		cmp	r3, #0
 2896 001e 03D0     		beq	.L268
 2897 0020 3B68     		ldr	r3, [r7]
 2898 0022 042B     		cmp	r3, #4
 2899 0024 09D0     		beq	.L269
 2900 0026 1AE0     		b	.L267
 2901              	.L268:
 2902 0028 7B68     		ldr	r3, [r7, #4]
 2903 002a 1B68     		ldr	r3, [r3]
 2904 002c DA68     		ldr	r2, [r3, #12]
 2905 002e 7B68     		ldr	r3, [r7, #4]
 2906 0030 1B68     		ldr	r3, [r3]
 2907 0032 22F00202 		bic	r2, r2, #2
 2908 0036 DA60     		str	r2, [r3, #12]
 2909 0038 14E0     		b	.L270
 2910              	.L269:
 2911 003a 7B68     		ldr	r3, [r7, #4]
 2912 003c 1B68     		ldr	r3, [r3]
 2913 003e DA68     		ldr	r2, [r3, #12]
 2914 0040 7B68     		ldr	r3, [r7, #4]
 2915 0042 1B68     		ldr	r3, [r3]
 2916 0044 22F00402 		bic	r2, r2, #4
 2917 0048 DA60     		str	r2, [r3, #12]
 2918 004a 0BE0     		b	.L270
 2919              	.L266:
 2920 004c 7B68     		ldr	r3, [r7, #4]
 2921 004e 1B68     		ldr	r3, [r3]
 2922 0050 DA68     		ldr	r2, [r3, #12]
 2923 0052 7B68     		ldr	r3, [r7, #4]
 2924 0054 1B68     		ldr	r3, [r3]
 2925 0056 22F00802 		bic	r2, r2, #8
 2926 005a DA60     		str	r2, [r3, #12]
 2927 005c 02E0     		b	.L270
 2928              	.L267:
 2929 005e 0123     		movs	r3, #1
 2930 0060 FB73     		strb	r3, [r7, #15]
 2931 0062 00BF     		nop
 2932              	.L270:
 2933 0064 FB7B     		ldrb	r3, [r7, #15]	@ zero_extendqisi2
 2934 0066 002B     		cmp	r3, #0
 2935 0068 62D1     		bne	.L271
 2936 006a 7B68     		ldr	r3, [r7, #4]
 2937 006c 1B68     		ldr	r3, [r3]
 2938 006e 0022     		movs	r2, #0
 2939 0070 3968     		ldr	r1, [r7]
 2940 0072 1846     		mov	r0, r3
 2941 0074 FFF7FEFF 		bl	TIM_CCxNChannelCmd
 2942 0078 7B68     		ldr	r3, [r7, #4]
 2943 007a 1B68     		ldr	r3, [r3]
 2944 007c 1B6A     		ldr	r3, [r3, #32]
 2945 007e BB60     		str	r3, [r7, #8]
 2946 0080 BA68     		ldr	r2, [r7, #8]
ARM GAS  C:\msys64\tmp\ccXaZRRw.s 			page 52


 2947 0082 40F24443 		movw	r3, #1092
 2948 0086 1340     		ands	r3, r3, r2
 2949 0088 002B     		cmp	r3, #0
 2950 008a 07D1     		bne	.L272
 2951 008c 7B68     		ldr	r3, [r7, #4]
 2952 008e 1B68     		ldr	r3, [r3]
 2953 0090 DA68     		ldr	r2, [r3, #12]
 2954 0092 7B68     		ldr	r3, [r7, #4]
 2955 0094 1B68     		ldr	r3, [r3]
 2956 0096 22F08002 		bic	r2, r2, #128
 2957 009a DA60     		str	r2, [r3, #12]
 2958              	.L272:
 2959 009c 7B68     		ldr	r3, [r7, #4]
 2960 009e 1B68     		ldr	r3, [r3]
 2961 00a0 1A6A     		ldr	r2, [r3, #32]
 2962 00a2 264B     		ldr	r3, .L281
 2963 00a4 1340     		ands	r3, r3, r2
 2964 00a6 002B     		cmp	r3, #0
 2965 00a8 0FD1     		bne	.L273
 2966 00aa 7B68     		ldr	r3, [r7, #4]
 2967 00ac 1B68     		ldr	r3, [r3]
 2968 00ae 1A6A     		ldr	r2, [r3, #32]
 2969 00b0 40F24443 		movw	r3, #1092
 2970 00b4 1340     		ands	r3, r3, r2
 2971 00b6 002B     		cmp	r3, #0
 2972 00b8 07D1     		bne	.L273
 2973 00ba 7B68     		ldr	r3, [r7, #4]
 2974 00bc 1B68     		ldr	r3, [r3]
 2975 00be 5A6C     		ldr	r2, [r3, #68]
 2976 00c0 7B68     		ldr	r3, [r7, #4]
 2977 00c2 1B68     		ldr	r3, [r3]
 2978 00c4 22F40042 		bic	r2, r2, #32768
 2979 00c8 5A64     		str	r2, [r3, #68]
 2980              	.L273:
 2981 00ca 7B68     		ldr	r3, [r7, #4]
 2982 00cc 1B68     		ldr	r3, [r3]
 2983 00ce 1A6A     		ldr	r2, [r3, #32]
 2984 00d0 1A4B     		ldr	r3, .L281
 2985 00d2 1340     		ands	r3, r3, r2
 2986 00d4 002B     		cmp	r3, #0
 2987 00d6 0FD1     		bne	.L274
 2988 00d8 7B68     		ldr	r3, [r7, #4]
 2989 00da 1B68     		ldr	r3, [r3]
 2990 00dc 1A6A     		ldr	r2, [r3, #32]
 2991 00de 40F24443 		movw	r3, #1092
 2992 00e2 1340     		ands	r3, r3, r2
 2993 00e4 002B     		cmp	r3, #0
 2994 00e6 07D1     		bne	.L274
 2995 00e8 7B68     		ldr	r3, [r7, #4]
 2996 00ea 1B68     		ldr	r3, [r3]
 2997 00ec 1A68     		ldr	r2, [r3]
 2998 00ee 7B68     		ldr	r3, [r7, #4]
 2999 00f0 1B68     		ldr	r3, [r3]
 3000 00f2 22F00102 		bic	r2, r2, #1
 3001 00f6 1A60     		str	r2, [r3]
 3002              	.L274:
 3003 00f8 3B68     		ldr	r3, [r7]
ARM GAS  C:\msys64\tmp\ccXaZRRw.s 			page 53


 3004 00fa 002B     		cmp	r3, #0
 3005 00fc 04D1     		bne	.L275
 3006 00fe 7B68     		ldr	r3, [r7, #4]
 3007 0100 0122     		movs	r2, #1
 3008 0102 83F84420 		strb	r2, [r3, #68]
 3009 0106 13E0     		b	.L271
 3010              	.L275:
 3011 0108 3B68     		ldr	r3, [r7]
 3012 010a 042B     		cmp	r3, #4
 3013 010c 04D1     		bne	.L276
 3014 010e 7B68     		ldr	r3, [r7, #4]
 3015 0110 0122     		movs	r2, #1
 3016 0112 83F84520 		strb	r2, [r3, #69]
 3017 0116 0BE0     		b	.L271
 3018              	.L276:
 3019 0118 3B68     		ldr	r3, [r7]
 3020 011a 082B     		cmp	r3, #8
 3021 011c 04D1     		bne	.L278
 3022 011e 7B68     		ldr	r3, [r7, #4]
 3023 0120 0122     		movs	r2, #1
 3024 0122 83F84620 		strb	r2, [r3, #70]
 3025 0126 03E0     		b	.L271
 3026              	.L278:
 3027 0128 7B68     		ldr	r3, [r7, #4]
 3028 012a 0122     		movs	r2, #1
 3029 012c 83F84720 		strb	r2, [r3, #71]
 3030              	.L271:
 3031 0130 FB7B     		ldrb	r3, [r7, #15]	@ zero_extendqisi2
 3032 0132 1846     		mov	r0, r3
 3033 0134 1037     		adds	r7, r7, #16
 3034 0136 BD46     		mov	sp, r7
 3035              		@ sp needed
 3036 0138 80BD     		pop	{r7, pc}
 3037              	.L282:
 3038 013a 00BF     		.align	2
 3039              	.L281:
 3040 013c 11111100 		.word	1118481
 3042              		.section	.text.HAL_TIMEx_PWMN_Start_DMA,"ax",%progbits
 3043              		.align	1
 3044              		.global	HAL_TIMEx_PWMN_Start_DMA
 3045              		.syntax unified
 3046              		.thumb
 3047              		.thumb_func
 3049              	HAL_TIMEx_PWMN_Start_DMA:
 3050              		@ args = 0, pretend = 0, frame = 24
 3051              		@ frame_needed = 1, uses_anonymous_args = 0
 3052 0000 80B5     		push	{r7, lr}
 3053 0002 86B0     		sub	sp, sp, #24
 3054 0004 00AF     		add	r7, sp, #0
 3055 0006 F860     		str	r0, [r7, #12]
 3056 0008 B960     		str	r1, [r7, #8]
 3057 000a 7A60     		str	r2, [r7, #4]
 3058 000c 7B80     		strh	r3, [r7, #2]	@ movhi
 3059 000e 0023     		movs	r3, #0
 3060 0010 FB75     		strb	r3, [r7, #23]
 3061 0012 BB68     		ldr	r3, [r7, #8]
 3062 0014 002B     		cmp	r3, #0
ARM GAS  C:\msys64\tmp\ccXaZRRw.s 			page 54


 3063 0016 09D1     		bne	.L284
 3064 0018 FB68     		ldr	r3, [r7, #12]
 3065 001a 93F84430 		ldrb	r3, [r3, #68]
 3066 001e DBB2     		uxtb	r3, r3
 3067 0020 022B     		cmp	r3, #2
 3068 0022 0CBF     		ite	eq
 3069 0024 0123     		moveq	r3, #1
 3070 0026 0023     		movne	r3, #0
 3071 0028 DBB2     		uxtb	r3, r3
 3072 002a 22E0     		b	.L285
 3073              	.L284:
 3074 002c BB68     		ldr	r3, [r7, #8]
 3075 002e 042B     		cmp	r3, #4
 3076 0030 09D1     		bne	.L286
 3077 0032 FB68     		ldr	r3, [r7, #12]
 3078 0034 93F84530 		ldrb	r3, [r3, #69]
 3079 0038 DBB2     		uxtb	r3, r3
 3080 003a 022B     		cmp	r3, #2
 3081 003c 0CBF     		ite	eq
 3082 003e 0123     		moveq	r3, #1
 3083 0040 0023     		movne	r3, #0
 3084 0042 DBB2     		uxtb	r3, r3
 3085 0044 15E0     		b	.L285
 3086              	.L286:
 3087 0046 BB68     		ldr	r3, [r7, #8]
 3088 0048 082B     		cmp	r3, #8
 3089 004a 09D1     		bne	.L288
 3090 004c FB68     		ldr	r3, [r7, #12]
 3091 004e 93F84630 		ldrb	r3, [r3, #70]
 3092 0052 DBB2     		uxtb	r3, r3
 3093 0054 022B     		cmp	r3, #2
 3094 0056 0CBF     		ite	eq
 3095 0058 0123     		moveq	r3, #1
 3096 005a 0023     		movne	r3, #0
 3097 005c DBB2     		uxtb	r3, r3
 3098 005e 08E0     		b	.L285
 3099              	.L288:
 3100 0060 FB68     		ldr	r3, [r7, #12]
 3101 0062 93F84730 		ldrb	r3, [r3, #71]
 3102 0066 DBB2     		uxtb	r3, r3
 3103 0068 022B     		cmp	r3, #2
 3104 006a 0CBF     		ite	eq
 3105 006c 0123     		moveq	r3, #1
 3106 006e 0023     		movne	r3, #0
 3107 0070 DBB2     		uxtb	r3, r3
 3108              	.L285:
 3109 0072 002B     		cmp	r3, #0
 3110 0074 01D0     		beq	.L290
 3111 0076 0223     		movs	r3, #2
 3112 0078 2FE1     		b	.L291
 3113              	.L290:
 3114 007a BB68     		ldr	r3, [r7, #8]
 3115 007c 002B     		cmp	r3, #0
 3116 007e 09D1     		bne	.L292
 3117 0080 FB68     		ldr	r3, [r7, #12]
 3118 0082 93F84430 		ldrb	r3, [r3, #68]
 3119 0086 DBB2     		uxtb	r3, r3
ARM GAS  C:\msys64\tmp\ccXaZRRw.s 			page 55


 3120 0088 012B     		cmp	r3, #1
 3121 008a 0CBF     		ite	eq
 3122 008c 0123     		moveq	r3, #1
 3123 008e 0023     		movne	r3, #0
 3124 0090 DBB2     		uxtb	r3, r3
 3125 0092 22E0     		b	.L293
 3126              	.L292:
 3127 0094 BB68     		ldr	r3, [r7, #8]
 3128 0096 042B     		cmp	r3, #4
 3129 0098 09D1     		bne	.L294
 3130 009a FB68     		ldr	r3, [r7, #12]
 3131 009c 93F84530 		ldrb	r3, [r3, #69]
 3132 00a0 DBB2     		uxtb	r3, r3
 3133 00a2 012B     		cmp	r3, #1
 3134 00a4 0CBF     		ite	eq
 3135 00a6 0123     		moveq	r3, #1
 3136 00a8 0023     		movne	r3, #0
 3137 00aa DBB2     		uxtb	r3, r3
 3138 00ac 15E0     		b	.L293
 3139              	.L294:
 3140 00ae BB68     		ldr	r3, [r7, #8]
 3141 00b0 082B     		cmp	r3, #8
 3142 00b2 09D1     		bne	.L296
 3143 00b4 FB68     		ldr	r3, [r7, #12]
 3144 00b6 93F84630 		ldrb	r3, [r3, #70]
 3145 00ba DBB2     		uxtb	r3, r3
 3146 00bc 012B     		cmp	r3, #1
 3147 00be 0CBF     		ite	eq
 3148 00c0 0123     		moveq	r3, #1
 3149 00c2 0023     		movne	r3, #0
 3150 00c4 DBB2     		uxtb	r3, r3
 3151 00c6 08E0     		b	.L293
 3152              	.L296:
 3153 00c8 FB68     		ldr	r3, [r7, #12]
 3154 00ca 93F84730 		ldrb	r3, [r3, #71]
 3155 00ce DBB2     		uxtb	r3, r3
 3156 00d0 012B     		cmp	r3, #1
 3157 00d2 0CBF     		ite	eq
 3158 00d4 0123     		moveq	r3, #1
 3159 00d6 0023     		movne	r3, #0
 3160 00d8 DBB2     		uxtb	r3, r3
 3161              	.L293:
 3162 00da 002B     		cmp	r3, #0
 3163 00dc 24D0     		beq	.L298
 3164 00de 7B68     		ldr	r3, [r7, #4]
 3165 00e0 002B     		cmp	r3, #0
 3166 00e2 02D0     		beq	.L299
 3167 00e4 7B88     		ldrh	r3, [r7, #2]
 3168 00e6 002B     		cmp	r3, #0
 3169 00e8 01D1     		bne	.L300
 3170              	.L299:
 3171 00ea 0123     		movs	r3, #1
 3172 00ec F5E0     		b	.L291
 3173              	.L300:
 3174 00ee BB68     		ldr	r3, [r7, #8]
 3175 00f0 002B     		cmp	r3, #0
 3176 00f2 04D1     		bne	.L301
ARM GAS  C:\msys64\tmp\ccXaZRRw.s 			page 56


 3177 00f4 FB68     		ldr	r3, [r7, #12]
 3178 00f6 0222     		movs	r2, #2
 3179 00f8 83F84420 		strb	r2, [r3, #68]
 3180 00fc 16E0     		b	.L302
 3181              	.L301:
 3182 00fe BB68     		ldr	r3, [r7, #8]
 3183 0100 042B     		cmp	r3, #4
 3184 0102 04D1     		bne	.L303
 3185 0104 FB68     		ldr	r3, [r7, #12]
 3186 0106 0222     		movs	r2, #2
 3187 0108 83F84520 		strb	r2, [r3, #69]
 3188 010c 0EE0     		b	.L302
 3189              	.L303:
 3190 010e BB68     		ldr	r3, [r7, #8]
 3191 0110 082B     		cmp	r3, #8
 3192 0112 04D1     		bne	.L305
 3193 0114 FB68     		ldr	r3, [r7, #12]
 3194 0116 0222     		movs	r2, #2
 3195 0118 83F84620 		strb	r2, [r3, #70]
 3196 011c 06E0     		b	.L302
 3197              	.L305:
 3198 011e FB68     		ldr	r3, [r7, #12]
 3199 0120 0222     		movs	r2, #2
 3200 0122 83F84720 		strb	r2, [r3, #71]
 3201 0126 01E0     		b	.L302
 3202              	.L298:
 3203 0128 0123     		movs	r3, #1
 3204 012a D6E0     		b	.L291
 3205              	.L302:
 3206 012c BB68     		ldr	r3, [r7, #8]
 3207 012e 082B     		cmp	r3, #8
 3208 0130 51D0     		beq	.L307
 3209 0132 BB68     		ldr	r3, [r7, #8]
 3210 0134 082B     		cmp	r3, #8
 3211 0136 72D8     		bhi	.L308
 3212 0138 BB68     		ldr	r3, [r7, #8]
 3213 013a 002B     		cmp	r3, #0
 3214 013c 03D0     		beq	.L309
 3215 013e BB68     		ldr	r3, [r7, #8]
 3216 0140 042B     		cmp	r3, #4
 3217 0142 24D0     		beq	.L310
 3218 0144 6BE0     		b	.L308
 3219              	.L309:
 3220 0146 FB68     		ldr	r3, [r7, #12]
 3221 0148 5B6A     		ldr	r3, [r3, #36]
 3222 014a 664A     		ldr	r2, .L320
 3223 014c DA63     		str	r2, [r3, #60]
 3224 014e FB68     		ldr	r3, [r7, #12]
 3225 0150 5B6A     		ldr	r3, [r3, #36]
 3226 0152 654A     		ldr	r2, .L320+4
 3227 0154 1A64     		str	r2, [r3, #64]
 3228 0156 FB68     		ldr	r3, [r7, #12]
 3229 0158 5B6A     		ldr	r3, [r3, #36]
 3230 015a 644A     		ldr	r2, .L320+8
 3231 015c DA64     		str	r2, [r3, #76]
 3232 015e FB68     		ldr	r3, [r7, #12]
 3233 0160 586A     		ldr	r0, [r3, #36]
ARM GAS  C:\msys64\tmp\ccXaZRRw.s 			page 57


 3234 0162 7968     		ldr	r1, [r7, #4]
 3235 0164 FB68     		ldr	r3, [r7, #12]
 3236 0166 1B68     		ldr	r3, [r3]
 3237 0168 3433     		adds	r3, r3, #52
 3238 016a 1A46     		mov	r2, r3
 3239 016c 7B88     		ldrh	r3, [r7, #2]
 3240 016e FFF7FEFF 		bl	HAL_DMA_Start_IT
 3241 0172 0346     		mov	r3, r0
 3242 0174 002B     		cmp	r3, #0
 3243 0176 01D0     		beq	.L311
 3244 0178 0123     		movs	r3, #1
 3245 017a AEE0     		b	.L291
 3246              	.L311:
 3247 017c FB68     		ldr	r3, [r7, #12]
 3248 017e 1B68     		ldr	r3, [r3]
 3249 0180 DA68     		ldr	r2, [r3, #12]
 3250 0182 FB68     		ldr	r3, [r7, #12]
 3251 0184 1B68     		ldr	r3, [r3]
 3252 0186 42F40072 		orr	r2, r2, #512
 3253 018a DA60     		str	r2, [r3, #12]
 3254 018c 4AE0     		b	.L312
 3255              	.L310:
 3256 018e FB68     		ldr	r3, [r7, #12]
 3257 0190 9B6A     		ldr	r3, [r3, #40]
 3258 0192 544A     		ldr	r2, .L320
 3259 0194 DA63     		str	r2, [r3, #60]
 3260 0196 FB68     		ldr	r3, [r7, #12]
 3261 0198 9B6A     		ldr	r3, [r3, #40]
 3262 019a 534A     		ldr	r2, .L320+4
 3263 019c 1A64     		str	r2, [r3, #64]
 3264 019e FB68     		ldr	r3, [r7, #12]
 3265 01a0 9B6A     		ldr	r3, [r3, #40]
 3266 01a2 524A     		ldr	r2, .L320+8
 3267 01a4 DA64     		str	r2, [r3, #76]
 3268 01a6 FB68     		ldr	r3, [r7, #12]
 3269 01a8 986A     		ldr	r0, [r3, #40]
 3270 01aa 7968     		ldr	r1, [r7, #4]
 3271 01ac FB68     		ldr	r3, [r7, #12]
 3272 01ae 1B68     		ldr	r3, [r3]
 3273 01b0 3833     		adds	r3, r3, #56
 3274 01b2 1A46     		mov	r2, r3
 3275 01b4 7B88     		ldrh	r3, [r7, #2]
 3276 01b6 FFF7FEFF 		bl	HAL_DMA_Start_IT
 3277 01ba 0346     		mov	r3, r0
 3278 01bc 002B     		cmp	r3, #0
 3279 01be 01D0     		beq	.L313
 3280 01c0 0123     		movs	r3, #1
 3281 01c2 8AE0     		b	.L291
 3282              	.L313:
 3283 01c4 FB68     		ldr	r3, [r7, #12]
 3284 01c6 1B68     		ldr	r3, [r3]
 3285 01c8 DA68     		ldr	r2, [r3, #12]
 3286 01ca FB68     		ldr	r3, [r7, #12]
 3287 01cc 1B68     		ldr	r3, [r3]
 3288 01ce 42F48062 		orr	r2, r2, #1024
 3289 01d2 DA60     		str	r2, [r3, #12]
 3290 01d4 26E0     		b	.L312
ARM GAS  C:\msys64\tmp\ccXaZRRw.s 			page 58


 3291              	.L307:
 3292 01d6 FB68     		ldr	r3, [r7, #12]
 3293 01d8 DB6A     		ldr	r3, [r3, #44]
 3294 01da 424A     		ldr	r2, .L320
 3295 01dc DA63     		str	r2, [r3, #60]
 3296 01de FB68     		ldr	r3, [r7, #12]
 3297 01e0 DB6A     		ldr	r3, [r3, #44]
 3298 01e2 414A     		ldr	r2, .L320+4
 3299 01e4 1A64     		str	r2, [r3, #64]
 3300 01e6 FB68     		ldr	r3, [r7, #12]
 3301 01e8 DB6A     		ldr	r3, [r3, #44]
 3302 01ea 404A     		ldr	r2, .L320+8
 3303 01ec DA64     		str	r2, [r3, #76]
 3304 01ee FB68     		ldr	r3, [r7, #12]
 3305 01f0 D86A     		ldr	r0, [r3, #44]
 3306 01f2 7968     		ldr	r1, [r7, #4]
 3307 01f4 FB68     		ldr	r3, [r7, #12]
 3308 01f6 1B68     		ldr	r3, [r3]
 3309 01f8 3C33     		adds	r3, r3, #60
 3310 01fa 1A46     		mov	r2, r3
 3311 01fc 7B88     		ldrh	r3, [r7, #2]
 3312 01fe FFF7FEFF 		bl	HAL_DMA_Start_IT
 3313 0202 0346     		mov	r3, r0
 3314 0204 002B     		cmp	r3, #0
 3315 0206 01D0     		beq	.L314
 3316 0208 0123     		movs	r3, #1
 3317 020a 66E0     		b	.L291
 3318              	.L314:
 3319 020c FB68     		ldr	r3, [r7, #12]
 3320 020e 1B68     		ldr	r3, [r3]
 3321 0210 DA68     		ldr	r2, [r3, #12]
 3322 0212 FB68     		ldr	r3, [r7, #12]
 3323 0214 1B68     		ldr	r3, [r3]
 3324 0216 42F40062 		orr	r2, r2, #2048
 3325 021a DA60     		str	r2, [r3, #12]
 3326 021c 02E0     		b	.L312
 3327              	.L308:
 3328 021e 0123     		movs	r3, #1
 3329 0220 FB75     		strb	r3, [r7, #23]
 3330 0222 00BF     		nop
 3331              	.L312:
 3332 0224 FB7D     		ldrb	r3, [r7, #23]	@ zero_extendqisi2
 3333 0226 002B     		cmp	r3, #0
 3334 0228 56D1     		bne	.L315
 3335 022a FB68     		ldr	r3, [r7, #12]
 3336 022c 1B68     		ldr	r3, [r3]
 3337 022e 0422     		movs	r2, #4
 3338 0230 B968     		ldr	r1, [r7, #8]
 3339 0232 1846     		mov	r0, r3
 3340 0234 FFF7FEFF 		bl	TIM_CCxNChannelCmd
 3341 0238 FB68     		ldr	r3, [r7, #12]
 3342 023a 1B68     		ldr	r3, [r3]
 3343 023c 5A6C     		ldr	r2, [r3, #68]
 3344 023e FB68     		ldr	r3, [r7, #12]
 3345 0240 1B68     		ldr	r3, [r3]
 3346 0242 42F40042 		orr	r2, r2, #32768
 3347 0246 5A64     		str	r2, [r3, #68]
ARM GAS  C:\msys64\tmp\ccXaZRRw.s 			page 59


 3348 0248 FB68     		ldr	r3, [r7, #12]
 3349 024a 1B68     		ldr	r3, [r3]
 3350 024c 284A     		ldr	r2, .L320+12
 3351 024e 9342     		cmp	r3, r2
 3352 0250 22D0     		beq	.L316
 3353 0252 FB68     		ldr	r3, [r7, #12]
 3354 0254 1B68     		ldr	r3, [r3]
 3355 0256 B3F1804F 		cmp	r3, #1073741824
 3356 025a 1DD0     		beq	.L316
 3357 025c FB68     		ldr	r3, [r7, #12]
 3358 025e 1B68     		ldr	r3, [r3]
 3359 0260 244A     		ldr	r2, .L320+16
 3360 0262 9342     		cmp	r3, r2
 3361 0264 18D0     		beq	.L316
 3362 0266 FB68     		ldr	r3, [r7, #12]
 3363 0268 1B68     		ldr	r3, [r3]
 3364 026a 234A     		ldr	r2, .L320+20
 3365 026c 9342     		cmp	r3, r2
 3366 026e 13D0     		beq	.L316
 3367 0270 FB68     		ldr	r3, [r7, #12]
 3368 0272 1B68     		ldr	r3, [r3]
 3369 0274 214A     		ldr	r2, .L320+24
 3370 0276 9342     		cmp	r3, r2
 3371 0278 0ED0     		beq	.L316
 3372 027a FB68     		ldr	r3, [r7, #12]
 3373 027c 1B68     		ldr	r3, [r3]
 3374 027e 204A     		ldr	r2, .L320+28
 3375 0280 9342     		cmp	r3, r2
 3376 0282 09D0     		beq	.L316
 3377 0284 FB68     		ldr	r3, [r7, #12]
 3378 0286 1B68     		ldr	r3, [r3]
 3379 0288 1E4A     		ldr	r2, .L320+32
 3380 028a 9342     		cmp	r3, r2
 3381 028c 04D0     		beq	.L316
 3382 028e FB68     		ldr	r3, [r7, #12]
 3383 0290 1B68     		ldr	r3, [r3]
 3384 0292 1D4A     		ldr	r2, .L320+36
 3385 0294 9342     		cmp	r3, r2
 3386 0296 15D1     		bne	.L317
 3387              	.L316:
 3388 0298 FB68     		ldr	r3, [r7, #12]
 3389 029a 1B68     		ldr	r3, [r3]
 3390 029c 9A68     		ldr	r2, [r3, #8]
 3391 029e 1B4B     		ldr	r3, .L320+40
 3392 02a0 1340     		ands	r3, r3, r2
 3393 02a2 3B61     		str	r3, [r7, #16]
 3394 02a4 3B69     		ldr	r3, [r7, #16]
 3395 02a6 062B     		cmp	r3, #6
 3396 02a8 15D0     		beq	.L319
 3397 02aa 3B69     		ldr	r3, [r7, #16]
 3398 02ac B3F5803F 		cmp	r3, #65536
 3399 02b0 11D0     		beq	.L319
 3400 02b2 FB68     		ldr	r3, [r7, #12]
 3401 02b4 1B68     		ldr	r3, [r3]
 3402 02b6 1A68     		ldr	r2, [r3]
 3403 02b8 FB68     		ldr	r3, [r7, #12]
 3404 02ba 1B68     		ldr	r3, [r3]
ARM GAS  C:\msys64\tmp\ccXaZRRw.s 			page 60


 3405 02bc 42F00102 		orr	r2, r2, #1
 3406 02c0 1A60     		str	r2, [r3]
 3407 02c2 08E0     		b	.L319
 3408              	.L317:
 3409 02c4 FB68     		ldr	r3, [r7, #12]
 3410 02c6 1B68     		ldr	r3, [r3]
 3411 02c8 1A68     		ldr	r2, [r3]
 3412 02ca FB68     		ldr	r3, [r7, #12]
 3413 02cc 1B68     		ldr	r3, [r3]
 3414 02ce 42F00102 		orr	r2, r2, #1
 3415 02d2 1A60     		str	r2, [r3]
 3416 02d4 00E0     		b	.L315
 3417              	.L319:
 3418 02d6 00BF     		nop
 3419              	.L315:
 3420 02d8 FB7D     		ldrb	r3, [r7, #23]	@ zero_extendqisi2
 3421              	.L291:
 3422 02da 1846     		mov	r0, r3
 3423 02dc 1837     		adds	r7, r7, #24
 3424 02de BD46     		mov	sp, r7
 3425              		@ sp needed
 3426 02e0 80BD     		pop	{r7, pc}
 3427              	.L321:
 3428 02e2 00BF     		.align	2
 3429              	.L320:
 3430 02e4 00000000 		.word	TIM_DMADelayPulseNCplt
 3431 02e8 00000000 		.word	TIM_DMADelayPulseHalfCplt
 3432 02ec 00000000 		.word	TIM_DMAErrorCCxN
 3433 02f0 00000140 		.word	1073807360
 3434 02f4 00040040 		.word	1073742848
 3435 02f8 00080040 		.word	1073743872
 3436 02fc 000C0040 		.word	1073744896
 3437 0300 00040140 		.word	1073808384
 3438 0304 00400140 		.word	1073823744
 3439 0308 00180040 		.word	1073747968
 3440 030c 07000100 		.word	65543
 3442              		.section	.text.HAL_TIMEx_PWMN_Stop_DMA,"ax",%progbits
 3443              		.align	1
 3444              		.global	HAL_TIMEx_PWMN_Stop_DMA
 3445              		.syntax unified
 3446              		.thumb
 3447              		.thumb_func
 3449              	HAL_TIMEx_PWMN_Stop_DMA:
 3450              		@ args = 0, pretend = 0, frame = 16
 3451              		@ frame_needed = 1, uses_anonymous_args = 0
 3452 0000 80B5     		push	{r7, lr}
 3453 0002 84B0     		sub	sp, sp, #16
 3454 0004 00AF     		add	r7, sp, #0
 3455 0006 7860     		str	r0, [r7, #4]
 3456 0008 3960     		str	r1, [r7]
 3457 000a 0023     		movs	r3, #0
 3458 000c FB73     		strb	r3, [r7, #15]
 3459 000e 3B68     		ldr	r3, [r7]
 3460 0010 082B     		cmp	r3, #8
 3461 0012 25D0     		beq	.L323
 3462 0014 3B68     		ldr	r3, [r7]
 3463 0016 082B     		cmp	r3, #8
ARM GAS  C:\msys64\tmp\ccXaZRRw.s 			page 61


 3464 0018 30D8     		bhi	.L324
 3465 001a 3B68     		ldr	r3, [r7]
 3466 001c 002B     		cmp	r3, #0
 3467 001e 03D0     		beq	.L325
 3468 0020 3B68     		ldr	r3, [r7]
 3469 0022 042B     		cmp	r3, #4
 3470 0024 0ED0     		beq	.L326
 3471 0026 29E0     		b	.L324
 3472              	.L325:
 3473 0028 7B68     		ldr	r3, [r7, #4]
 3474 002a 1B68     		ldr	r3, [r3]
 3475 002c DA68     		ldr	r2, [r3, #12]
 3476 002e 7B68     		ldr	r3, [r7, #4]
 3477 0030 1B68     		ldr	r3, [r3]
 3478 0032 22F40072 		bic	r2, r2, #512
 3479 0036 DA60     		str	r2, [r3, #12]
 3480 0038 7B68     		ldr	r3, [r7, #4]
 3481 003a 5B6A     		ldr	r3, [r3, #36]
 3482 003c 1846     		mov	r0, r3
 3483 003e FFF7FEFF 		bl	HAL_DMA_Abort_IT
 3484 0042 1EE0     		b	.L327
 3485              	.L326:
 3486 0044 7B68     		ldr	r3, [r7, #4]
 3487 0046 1B68     		ldr	r3, [r3]
 3488 0048 DA68     		ldr	r2, [r3, #12]
 3489 004a 7B68     		ldr	r3, [r7, #4]
 3490 004c 1B68     		ldr	r3, [r3]
 3491 004e 22F48062 		bic	r2, r2, #1024
 3492 0052 DA60     		str	r2, [r3, #12]
 3493 0054 7B68     		ldr	r3, [r7, #4]
 3494 0056 9B6A     		ldr	r3, [r3, #40]
 3495 0058 1846     		mov	r0, r3
 3496 005a FFF7FEFF 		bl	HAL_DMA_Abort_IT
 3497 005e 10E0     		b	.L327
 3498              	.L323:
 3499 0060 7B68     		ldr	r3, [r7, #4]
 3500 0062 1B68     		ldr	r3, [r3]
 3501 0064 DA68     		ldr	r2, [r3, #12]
 3502 0066 7B68     		ldr	r3, [r7, #4]
 3503 0068 1B68     		ldr	r3, [r3]
 3504 006a 22F40062 		bic	r2, r2, #2048
 3505 006e DA60     		str	r2, [r3, #12]
 3506 0070 7B68     		ldr	r3, [r7, #4]
 3507 0072 DB6A     		ldr	r3, [r3, #44]
 3508 0074 1846     		mov	r0, r3
 3509 0076 FFF7FEFF 		bl	HAL_DMA_Abort_IT
 3510 007a 02E0     		b	.L327
 3511              	.L324:
 3512 007c 0123     		movs	r3, #1
 3513 007e FB73     		strb	r3, [r7, #15]
 3514 0080 00BF     		nop
 3515              	.L327:
 3516 0082 FB7B     		ldrb	r3, [r7, #15]	@ zero_extendqisi2
 3517 0084 002B     		cmp	r3, #0
 3518 0086 50D1     		bne	.L328
 3519 0088 7B68     		ldr	r3, [r7, #4]
 3520 008a 1B68     		ldr	r3, [r3]
ARM GAS  C:\msys64\tmp\ccXaZRRw.s 			page 62


 3521 008c 0022     		movs	r2, #0
 3522 008e 3968     		ldr	r1, [r7]
 3523 0090 1846     		mov	r0, r3
 3524 0092 FFF7FEFF 		bl	TIM_CCxNChannelCmd
 3525 0096 7B68     		ldr	r3, [r7, #4]
 3526 0098 1B68     		ldr	r3, [r3]
 3527 009a 1A6A     		ldr	r2, [r3, #32]
 3528 009c 254B     		ldr	r3, .L337
 3529 009e 1340     		ands	r3, r3, r2
 3530 00a0 002B     		cmp	r3, #0
 3531 00a2 0FD1     		bne	.L329
 3532 00a4 7B68     		ldr	r3, [r7, #4]
 3533 00a6 1B68     		ldr	r3, [r3]
 3534 00a8 1A6A     		ldr	r2, [r3, #32]
 3535 00aa 40F24443 		movw	r3, #1092
 3536 00ae 1340     		ands	r3, r3, r2
 3537 00b0 002B     		cmp	r3, #0
 3538 00b2 07D1     		bne	.L329
 3539 00b4 7B68     		ldr	r3, [r7, #4]
 3540 00b6 1B68     		ldr	r3, [r3]
 3541 00b8 5A6C     		ldr	r2, [r3, #68]
 3542 00ba 7B68     		ldr	r3, [r7, #4]
 3543 00bc 1B68     		ldr	r3, [r3]
 3544 00be 22F40042 		bic	r2, r2, #32768
 3545 00c2 5A64     		str	r2, [r3, #68]
 3546              	.L329:
 3547 00c4 7B68     		ldr	r3, [r7, #4]
 3548 00c6 1B68     		ldr	r3, [r3]
 3549 00c8 1A6A     		ldr	r2, [r3, #32]
 3550 00ca 1A4B     		ldr	r3, .L337
 3551 00cc 1340     		ands	r3, r3, r2
 3552 00ce 002B     		cmp	r3, #0
 3553 00d0 0FD1     		bne	.L330
 3554 00d2 7B68     		ldr	r3, [r7, #4]
 3555 00d4 1B68     		ldr	r3, [r3]
 3556 00d6 1A6A     		ldr	r2, [r3, #32]
 3557 00d8 40F24443 		movw	r3, #1092
 3558 00dc 1340     		ands	r3, r3, r2
 3559 00de 002B     		cmp	r3, #0
 3560 00e0 07D1     		bne	.L330
 3561 00e2 7B68     		ldr	r3, [r7, #4]
 3562 00e4 1B68     		ldr	r3, [r3]
 3563 00e6 1A68     		ldr	r2, [r3]
 3564 00e8 7B68     		ldr	r3, [r7, #4]
 3565 00ea 1B68     		ldr	r3, [r3]
 3566 00ec 22F00102 		bic	r2, r2, #1
 3567 00f0 1A60     		str	r2, [r3]
 3568              	.L330:
 3569 00f2 3B68     		ldr	r3, [r7]
 3570 00f4 002B     		cmp	r3, #0
 3571 00f6 04D1     		bne	.L331
 3572 00f8 7B68     		ldr	r3, [r7, #4]
 3573 00fa 0122     		movs	r2, #1
 3574 00fc 83F84420 		strb	r2, [r3, #68]
 3575 0100 13E0     		b	.L328
 3576              	.L331:
 3577 0102 3B68     		ldr	r3, [r7]
ARM GAS  C:\msys64\tmp\ccXaZRRw.s 			page 63


 3578 0104 042B     		cmp	r3, #4
 3579 0106 04D1     		bne	.L332
 3580 0108 7B68     		ldr	r3, [r7, #4]
 3581 010a 0122     		movs	r2, #1
 3582 010c 83F84520 		strb	r2, [r3, #69]
 3583 0110 0BE0     		b	.L328
 3584              	.L332:
 3585 0112 3B68     		ldr	r3, [r7]
 3586 0114 082B     		cmp	r3, #8
 3587 0116 04D1     		bne	.L334
 3588 0118 7B68     		ldr	r3, [r7, #4]
 3589 011a 0122     		movs	r2, #1
 3590 011c 83F84620 		strb	r2, [r3, #70]
 3591 0120 03E0     		b	.L328
 3592              	.L334:
 3593 0122 7B68     		ldr	r3, [r7, #4]
 3594 0124 0122     		movs	r2, #1
 3595 0126 83F84720 		strb	r2, [r3, #71]
 3596              	.L328:
 3597 012a FB7B     		ldrb	r3, [r7, #15]	@ zero_extendqisi2
 3598 012c 1846     		mov	r0, r3
 3599 012e 1037     		adds	r7, r7, #16
 3600 0130 BD46     		mov	sp, r7
 3601              		@ sp needed
 3602 0132 80BD     		pop	{r7, pc}
 3603              	.L338:
 3604              		.align	2
 3605              	.L337:
 3606 0134 11111100 		.word	1118481
 3608              		.section	.text.HAL_TIMEx_OnePulseN_Start,"ax",%progbits
 3609              		.align	1
 3610              		.global	HAL_TIMEx_OnePulseN_Start
 3611              		.syntax unified
 3612              		.thumb
 3613              		.thumb_func
 3615              	HAL_TIMEx_OnePulseN_Start:
 3616              		@ args = 0, pretend = 0, frame = 16
 3617              		@ frame_needed = 1, uses_anonymous_args = 0
 3618 0000 80B5     		push	{r7, lr}
 3619 0002 84B0     		sub	sp, sp, #16
 3620 0004 00AF     		add	r7, sp, #0
 3621 0006 7860     		str	r0, [r7, #4]
 3622 0008 3960     		str	r1, [r7]
 3623 000a 3B68     		ldr	r3, [r7]
 3624 000c 002B     		cmp	r3, #0
 3625 000e 01D1     		bne	.L340
 3626 0010 0423     		movs	r3, #4
 3627 0012 00E0     		b	.L341
 3628              	.L340:
 3629 0014 0023     		movs	r3, #0
 3630              	.L341:
 3631 0016 FB60     		str	r3, [r7, #12]
 3632 0018 7B68     		ldr	r3, [r7, #4]
 3633 001a 93F83E30 		ldrb	r3, [r3, #62]
 3634 001e FB72     		strb	r3, [r7, #11]
 3635 0020 7B68     		ldr	r3, [r7, #4]
 3636 0022 93F83F30 		ldrb	r3, [r3, #63]
ARM GAS  C:\msys64\tmp\ccXaZRRw.s 			page 64


 3637 0026 BB72     		strb	r3, [r7, #10]
 3638 0028 7B68     		ldr	r3, [r7, #4]
 3639 002a 93F84430 		ldrb	r3, [r3, #68]
 3640 002e 7B72     		strb	r3, [r7, #9]
 3641 0030 7B68     		ldr	r3, [r7, #4]
 3642 0032 93F84530 		ldrb	r3, [r3, #69]
 3643 0036 3B72     		strb	r3, [r7, #8]
 3644 0038 FB7A     		ldrb	r3, [r7, #11]	@ zero_extendqisi2
 3645 003a 012B     		cmp	r3, #1
 3646 003c 08D1     		bne	.L342
 3647 003e BB7A     		ldrb	r3, [r7, #10]	@ zero_extendqisi2
 3648 0040 012B     		cmp	r3, #1
 3649 0042 05D1     		bne	.L342
 3650 0044 7B7A     		ldrb	r3, [r7, #9]	@ zero_extendqisi2
 3651 0046 012B     		cmp	r3, #1
 3652 0048 02D1     		bne	.L342
 3653 004a 3B7A     		ldrb	r3, [r7, #8]	@ zero_extendqisi2
 3654 004c 012B     		cmp	r3, #1
 3655 004e 01D0     		beq	.L343
 3656              	.L342:
 3657 0050 0123     		movs	r3, #1
 3658 0052 26E0     		b	.L344
 3659              	.L343:
 3660 0054 7B68     		ldr	r3, [r7, #4]
 3661 0056 0222     		movs	r2, #2
 3662 0058 83F83E20 		strb	r2, [r3, #62]
 3663 005c 7B68     		ldr	r3, [r7, #4]
 3664 005e 0222     		movs	r2, #2
 3665 0060 83F83F20 		strb	r2, [r3, #63]
 3666 0064 7B68     		ldr	r3, [r7, #4]
 3667 0066 0222     		movs	r2, #2
 3668 0068 83F84420 		strb	r2, [r3, #68]
 3669 006c 7B68     		ldr	r3, [r7, #4]
 3670 006e 0222     		movs	r2, #2
 3671 0070 83F84520 		strb	r2, [r3, #69]
 3672 0074 7B68     		ldr	r3, [r7, #4]
 3673 0076 1B68     		ldr	r3, [r3]
 3674 0078 0422     		movs	r2, #4
 3675 007a 3968     		ldr	r1, [r7]
 3676 007c 1846     		mov	r0, r3
 3677 007e FFF7FEFF 		bl	TIM_CCxNChannelCmd
 3678 0082 7B68     		ldr	r3, [r7, #4]
 3679 0084 1B68     		ldr	r3, [r3]
 3680 0086 0122     		movs	r2, #1
 3681 0088 F968     		ldr	r1, [r7, #12]
 3682 008a 1846     		mov	r0, r3
 3683 008c FFF7FEFF 		bl	TIM_CCxChannelCmd
 3684 0090 7B68     		ldr	r3, [r7, #4]
 3685 0092 1B68     		ldr	r3, [r3]
 3686 0094 5A6C     		ldr	r2, [r3, #68]
 3687 0096 7B68     		ldr	r3, [r7, #4]
 3688 0098 1B68     		ldr	r3, [r3]
 3689 009a 42F40042 		orr	r2, r2, #32768
 3690 009e 5A64     		str	r2, [r3, #68]
 3691 00a0 0023     		movs	r3, #0
 3692              	.L344:
 3693 00a2 1846     		mov	r0, r3
ARM GAS  C:\msys64\tmp\ccXaZRRw.s 			page 65


 3694 00a4 1037     		adds	r7, r7, #16
 3695 00a6 BD46     		mov	sp, r7
 3696              		@ sp needed
 3697 00a8 80BD     		pop	{r7, pc}
 3699              		.section	.text.HAL_TIMEx_OnePulseN_Stop,"ax",%progbits
 3700              		.align	1
 3701              		.global	HAL_TIMEx_OnePulseN_Stop
 3702              		.syntax unified
 3703              		.thumb
 3704              		.thumb_func
 3706              	HAL_TIMEx_OnePulseN_Stop:
 3707              		@ args = 0, pretend = 0, frame = 16
 3708              		@ frame_needed = 1, uses_anonymous_args = 0
 3709 0000 80B5     		push	{r7, lr}
 3710 0002 84B0     		sub	sp, sp, #16
 3711 0004 00AF     		add	r7, sp, #0
 3712 0006 7860     		str	r0, [r7, #4]
 3713 0008 3960     		str	r1, [r7]
 3714 000a 3B68     		ldr	r3, [r7]
 3715 000c 002B     		cmp	r3, #0
 3716 000e 01D1     		bne	.L346
 3717 0010 0423     		movs	r3, #4
 3718 0012 00E0     		b	.L347
 3719              	.L346:
 3720 0014 0023     		movs	r3, #0
 3721              	.L347:
 3722 0016 FB60     		str	r3, [r7, #12]
 3723 0018 7B68     		ldr	r3, [r7, #4]
 3724 001a 1B68     		ldr	r3, [r3]
 3725 001c 0022     		movs	r2, #0
 3726 001e 3968     		ldr	r1, [r7]
 3727 0020 1846     		mov	r0, r3
 3728 0022 FFF7FEFF 		bl	TIM_CCxNChannelCmd
 3729 0026 7B68     		ldr	r3, [r7, #4]
 3730 0028 1B68     		ldr	r3, [r3]
 3731 002a 0022     		movs	r2, #0
 3732 002c F968     		ldr	r1, [r7, #12]
 3733 002e 1846     		mov	r0, r3
 3734 0030 FFF7FEFF 		bl	TIM_CCxChannelCmd
 3735 0034 7B68     		ldr	r3, [r7, #4]
 3736 0036 1B68     		ldr	r3, [r3]
 3737 0038 1A6A     		ldr	r2, [r3, #32]
 3738 003a 204B     		ldr	r3, .L351
 3739 003c 1340     		ands	r3, r3, r2
 3740 003e 002B     		cmp	r3, #0
 3741 0040 0FD1     		bne	.L348
 3742 0042 7B68     		ldr	r3, [r7, #4]
 3743 0044 1B68     		ldr	r3, [r3]
 3744 0046 1A6A     		ldr	r2, [r3, #32]
 3745 0048 40F24443 		movw	r3, #1092
 3746 004c 1340     		ands	r3, r3, r2
 3747 004e 002B     		cmp	r3, #0
 3748 0050 07D1     		bne	.L348
 3749 0052 7B68     		ldr	r3, [r7, #4]
 3750 0054 1B68     		ldr	r3, [r3]
 3751 0056 5A6C     		ldr	r2, [r3, #68]
 3752 0058 7B68     		ldr	r3, [r7, #4]
ARM GAS  C:\msys64\tmp\ccXaZRRw.s 			page 66


 3753 005a 1B68     		ldr	r3, [r3]
 3754 005c 22F40042 		bic	r2, r2, #32768
 3755 0060 5A64     		str	r2, [r3, #68]
 3756              	.L348:
 3757 0062 7B68     		ldr	r3, [r7, #4]
 3758 0064 1B68     		ldr	r3, [r3]
 3759 0066 1A6A     		ldr	r2, [r3, #32]
 3760 0068 144B     		ldr	r3, .L351
 3761 006a 1340     		ands	r3, r3, r2
 3762 006c 002B     		cmp	r3, #0
 3763 006e 0FD1     		bne	.L349
 3764 0070 7B68     		ldr	r3, [r7, #4]
 3765 0072 1B68     		ldr	r3, [r3]
 3766 0074 1A6A     		ldr	r2, [r3, #32]
 3767 0076 40F24443 		movw	r3, #1092
 3768 007a 1340     		ands	r3, r3, r2
 3769 007c 002B     		cmp	r3, #0
 3770 007e 07D1     		bne	.L349
 3771 0080 7B68     		ldr	r3, [r7, #4]
 3772 0082 1B68     		ldr	r3, [r3]
 3773 0084 1A68     		ldr	r2, [r3]
 3774 0086 7B68     		ldr	r3, [r7, #4]
 3775 0088 1B68     		ldr	r3, [r3]
 3776 008a 22F00102 		bic	r2, r2, #1
 3777 008e 1A60     		str	r2, [r3]
 3778              	.L349:
 3779 0090 7B68     		ldr	r3, [r7, #4]
 3780 0092 0122     		movs	r2, #1
 3781 0094 83F83E20 		strb	r2, [r3, #62]
 3782 0098 7B68     		ldr	r3, [r7, #4]
 3783 009a 0122     		movs	r2, #1
 3784 009c 83F83F20 		strb	r2, [r3, #63]
 3785 00a0 7B68     		ldr	r3, [r7, #4]
 3786 00a2 0122     		movs	r2, #1
 3787 00a4 83F84420 		strb	r2, [r3, #68]
 3788 00a8 7B68     		ldr	r3, [r7, #4]
 3789 00aa 0122     		movs	r2, #1
 3790 00ac 83F84520 		strb	r2, [r3, #69]
 3791 00b0 0023     		movs	r3, #0
 3792 00b2 1846     		mov	r0, r3
 3793 00b4 1037     		adds	r7, r7, #16
 3794 00b6 BD46     		mov	sp, r7
 3795              		@ sp needed
 3796 00b8 80BD     		pop	{r7, pc}
 3797              	.L352:
 3798 00ba 00BF     		.align	2
 3799              	.L351:
 3800 00bc 11111100 		.word	1118481
 3802              		.section	.text.HAL_TIMEx_OnePulseN_Start_IT,"ax",%progbits
 3803              		.align	1
 3804              		.global	HAL_TIMEx_OnePulseN_Start_IT
 3805              		.syntax unified
 3806              		.thumb
 3807              		.thumb_func
 3809              	HAL_TIMEx_OnePulseN_Start_IT:
 3810              		@ args = 0, pretend = 0, frame = 16
 3811              		@ frame_needed = 1, uses_anonymous_args = 0
ARM GAS  C:\msys64\tmp\ccXaZRRw.s 			page 67


 3812 0000 80B5     		push	{r7, lr}
 3813 0002 84B0     		sub	sp, sp, #16
 3814 0004 00AF     		add	r7, sp, #0
 3815 0006 7860     		str	r0, [r7, #4]
 3816 0008 3960     		str	r1, [r7]
 3817 000a 3B68     		ldr	r3, [r7]
 3818 000c 002B     		cmp	r3, #0
 3819 000e 01D1     		bne	.L354
 3820 0010 0423     		movs	r3, #4
 3821 0012 00E0     		b	.L355
 3822              	.L354:
 3823 0014 0023     		movs	r3, #0
 3824              	.L355:
 3825 0016 FB60     		str	r3, [r7, #12]
 3826 0018 7B68     		ldr	r3, [r7, #4]
 3827 001a 93F83E30 		ldrb	r3, [r3, #62]
 3828 001e FB72     		strb	r3, [r7, #11]
 3829 0020 7B68     		ldr	r3, [r7, #4]
 3830 0022 93F83F30 		ldrb	r3, [r3, #63]
 3831 0026 BB72     		strb	r3, [r7, #10]
 3832 0028 7B68     		ldr	r3, [r7, #4]
 3833 002a 93F84430 		ldrb	r3, [r3, #68]
 3834 002e 7B72     		strb	r3, [r7, #9]
 3835 0030 7B68     		ldr	r3, [r7, #4]
 3836 0032 93F84530 		ldrb	r3, [r3, #69]
 3837 0036 3B72     		strb	r3, [r7, #8]
 3838 0038 FB7A     		ldrb	r3, [r7, #11]	@ zero_extendqisi2
 3839 003a 012B     		cmp	r3, #1
 3840 003c 08D1     		bne	.L356
 3841 003e BB7A     		ldrb	r3, [r7, #10]	@ zero_extendqisi2
 3842 0040 012B     		cmp	r3, #1
 3843 0042 05D1     		bne	.L356
 3844 0044 7B7A     		ldrb	r3, [r7, #9]	@ zero_extendqisi2
 3845 0046 012B     		cmp	r3, #1
 3846 0048 02D1     		bne	.L356
 3847 004a 3B7A     		ldrb	r3, [r7, #8]	@ zero_extendqisi2
 3848 004c 012B     		cmp	r3, #1
 3849 004e 01D0     		beq	.L357
 3850              	.L356:
 3851 0050 0123     		movs	r3, #1
 3852 0052 36E0     		b	.L358
 3853              	.L357:
 3854 0054 7B68     		ldr	r3, [r7, #4]
 3855 0056 0222     		movs	r2, #2
 3856 0058 83F83E20 		strb	r2, [r3, #62]
 3857 005c 7B68     		ldr	r3, [r7, #4]
 3858 005e 0222     		movs	r2, #2
 3859 0060 83F83F20 		strb	r2, [r3, #63]
 3860 0064 7B68     		ldr	r3, [r7, #4]
 3861 0066 0222     		movs	r2, #2
 3862 0068 83F84420 		strb	r2, [r3, #68]
 3863 006c 7B68     		ldr	r3, [r7, #4]
 3864 006e 0222     		movs	r2, #2
 3865 0070 83F84520 		strb	r2, [r3, #69]
 3866 0074 7B68     		ldr	r3, [r7, #4]
 3867 0076 1B68     		ldr	r3, [r3]
 3868 0078 DA68     		ldr	r2, [r3, #12]
ARM GAS  C:\msys64\tmp\ccXaZRRw.s 			page 68


 3869 007a 7B68     		ldr	r3, [r7, #4]
 3870 007c 1B68     		ldr	r3, [r3]
 3871 007e 42F00202 		orr	r2, r2, #2
 3872 0082 DA60     		str	r2, [r3, #12]
 3873 0084 7B68     		ldr	r3, [r7, #4]
 3874 0086 1B68     		ldr	r3, [r3]
 3875 0088 DA68     		ldr	r2, [r3, #12]
 3876 008a 7B68     		ldr	r3, [r7, #4]
 3877 008c 1B68     		ldr	r3, [r3]
 3878 008e 42F00402 		orr	r2, r2, #4
 3879 0092 DA60     		str	r2, [r3, #12]
 3880 0094 7B68     		ldr	r3, [r7, #4]
 3881 0096 1B68     		ldr	r3, [r3]
 3882 0098 0422     		movs	r2, #4
 3883 009a 3968     		ldr	r1, [r7]
 3884 009c 1846     		mov	r0, r3
 3885 009e FFF7FEFF 		bl	TIM_CCxNChannelCmd
 3886 00a2 7B68     		ldr	r3, [r7, #4]
 3887 00a4 1B68     		ldr	r3, [r3]
 3888 00a6 0122     		movs	r2, #1
 3889 00a8 F968     		ldr	r1, [r7, #12]
 3890 00aa 1846     		mov	r0, r3
 3891 00ac FFF7FEFF 		bl	TIM_CCxChannelCmd
 3892 00b0 7B68     		ldr	r3, [r7, #4]
 3893 00b2 1B68     		ldr	r3, [r3]
 3894 00b4 5A6C     		ldr	r2, [r3, #68]
 3895 00b6 7B68     		ldr	r3, [r7, #4]
 3896 00b8 1B68     		ldr	r3, [r3]
 3897 00ba 42F40042 		orr	r2, r2, #32768
 3898 00be 5A64     		str	r2, [r3, #68]
 3899 00c0 0023     		movs	r3, #0
 3900              	.L358:
 3901 00c2 1846     		mov	r0, r3
 3902 00c4 1037     		adds	r7, r7, #16
 3903 00c6 BD46     		mov	sp, r7
 3904              		@ sp needed
 3905 00c8 80BD     		pop	{r7, pc}
 3907              		.section	.text.HAL_TIMEx_OnePulseN_Stop_IT,"ax",%progbits
 3908              		.align	1
 3909              		.global	HAL_TIMEx_OnePulseN_Stop_IT
 3910              		.syntax unified
 3911              		.thumb
 3912              		.thumb_func
 3914              	HAL_TIMEx_OnePulseN_Stop_IT:
 3915              		@ args = 0, pretend = 0, frame = 16
 3916              		@ frame_needed = 1, uses_anonymous_args = 0
 3917 0000 80B5     		push	{r7, lr}
 3918 0002 84B0     		sub	sp, sp, #16
 3919 0004 00AF     		add	r7, sp, #0
 3920 0006 7860     		str	r0, [r7, #4]
 3921 0008 3960     		str	r1, [r7]
 3922 000a 3B68     		ldr	r3, [r7]
 3923 000c 002B     		cmp	r3, #0
 3924 000e 01D1     		bne	.L360
 3925 0010 0423     		movs	r3, #4
 3926 0012 00E0     		b	.L361
 3927              	.L360:
ARM GAS  C:\msys64\tmp\ccXaZRRw.s 			page 69


 3928 0014 0023     		movs	r3, #0
 3929              	.L361:
 3930 0016 FB60     		str	r3, [r7, #12]
 3931 0018 7B68     		ldr	r3, [r7, #4]
 3932 001a 1B68     		ldr	r3, [r3]
 3933 001c DA68     		ldr	r2, [r3, #12]
 3934 001e 7B68     		ldr	r3, [r7, #4]
 3935 0020 1B68     		ldr	r3, [r3]
 3936 0022 22F00202 		bic	r2, r2, #2
 3937 0026 DA60     		str	r2, [r3, #12]
 3938 0028 7B68     		ldr	r3, [r7, #4]
 3939 002a 1B68     		ldr	r3, [r3]
 3940 002c DA68     		ldr	r2, [r3, #12]
 3941 002e 7B68     		ldr	r3, [r7, #4]
 3942 0030 1B68     		ldr	r3, [r3]
 3943 0032 22F00402 		bic	r2, r2, #4
 3944 0036 DA60     		str	r2, [r3, #12]
 3945 0038 7B68     		ldr	r3, [r7, #4]
 3946 003a 1B68     		ldr	r3, [r3]
 3947 003c 0022     		movs	r2, #0
 3948 003e 3968     		ldr	r1, [r7]
 3949 0040 1846     		mov	r0, r3
 3950 0042 FFF7FEFF 		bl	TIM_CCxNChannelCmd
 3951 0046 7B68     		ldr	r3, [r7, #4]
 3952 0048 1B68     		ldr	r3, [r3]
 3953 004a 0022     		movs	r2, #0
 3954 004c F968     		ldr	r1, [r7, #12]
 3955 004e 1846     		mov	r0, r3
 3956 0050 FFF7FEFF 		bl	TIM_CCxChannelCmd
 3957 0054 7B68     		ldr	r3, [r7, #4]
 3958 0056 1B68     		ldr	r3, [r3]
 3959 0058 1A6A     		ldr	r2, [r3, #32]
 3960 005a 204B     		ldr	r3, .L365
 3961 005c 1340     		ands	r3, r3, r2
 3962 005e 002B     		cmp	r3, #0
 3963 0060 0FD1     		bne	.L362
 3964 0062 7B68     		ldr	r3, [r7, #4]
 3965 0064 1B68     		ldr	r3, [r3]
 3966 0066 1A6A     		ldr	r2, [r3, #32]
 3967 0068 40F24443 		movw	r3, #1092
 3968 006c 1340     		ands	r3, r3, r2
 3969 006e 002B     		cmp	r3, #0
 3970 0070 07D1     		bne	.L362
 3971 0072 7B68     		ldr	r3, [r7, #4]
 3972 0074 1B68     		ldr	r3, [r3]
 3973 0076 5A6C     		ldr	r2, [r3, #68]
 3974 0078 7B68     		ldr	r3, [r7, #4]
 3975 007a 1B68     		ldr	r3, [r3]
 3976 007c 22F40042 		bic	r2, r2, #32768
 3977 0080 5A64     		str	r2, [r3, #68]
 3978              	.L362:
 3979 0082 7B68     		ldr	r3, [r7, #4]
 3980 0084 1B68     		ldr	r3, [r3]
 3981 0086 1A6A     		ldr	r2, [r3, #32]
 3982 0088 144B     		ldr	r3, .L365
 3983 008a 1340     		ands	r3, r3, r2
 3984 008c 002B     		cmp	r3, #0
ARM GAS  C:\msys64\tmp\ccXaZRRw.s 			page 70


 3985 008e 0FD1     		bne	.L363
 3986 0090 7B68     		ldr	r3, [r7, #4]
 3987 0092 1B68     		ldr	r3, [r3]
 3988 0094 1A6A     		ldr	r2, [r3, #32]
 3989 0096 40F24443 		movw	r3, #1092
 3990 009a 1340     		ands	r3, r3, r2
 3991 009c 002B     		cmp	r3, #0
 3992 009e 07D1     		bne	.L363
 3993 00a0 7B68     		ldr	r3, [r7, #4]
 3994 00a2 1B68     		ldr	r3, [r3]
 3995 00a4 1A68     		ldr	r2, [r3]
 3996 00a6 7B68     		ldr	r3, [r7, #4]
 3997 00a8 1B68     		ldr	r3, [r3]
 3998 00aa 22F00102 		bic	r2, r2, #1
 3999 00ae 1A60     		str	r2, [r3]
 4000              	.L363:
 4001 00b0 7B68     		ldr	r3, [r7, #4]
 4002 00b2 0122     		movs	r2, #1
 4003 00b4 83F83E20 		strb	r2, [r3, #62]
 4004 00b8 7B68     		ldr	r3, [r7, #4]
 4005 00ba 0122     		movs	r2, #1
 4006 00bc 83F83F20 		strb	r2, [r3, #63]
 4007 00c0 7B68     		ldr	r3, [r7, #4]
 4008 00c2 0122     		movs	r2, #1
 4009 00c4 83F84420 		strb	r2, [r3, #68]
 4010 00c8 7B68     		ldr	r3, [r7, #4]
 4011 00ca 0122     		movs	r2, #1
 4012 00cc 83F84520 		strb	r2, [r3, #69]
 4013 00d0 0023     		movs	r3, #0
 4014 00d2 1846     		mov	r0, r3
 4015 00d4 1037     		adds	r7, r7, #16
 4016 00d6 BD46     		mov	sp, r7
 4017              		@ sp needed
 4018 00d8 80BD     		pop	{r7, pc}
 4019              	.L366:
 4020 00da 00BF     		.align	2
 4021              	.L365:
 4022 00dc 11111100 		.word	1118481
 4024              		.section	.text.HAL_TIMEx_ConfigCommutEvent,"ax",%progbits
 4025              		.align	1
 4026              		.global	HAL_TIMEx_ConfigCommutEvent
 4027              		.syntax unified
 4028              		.thumb
 4029              		.thumb_func
 4031              	HAL_TIMEx_ConfigCommutEvent:
 4032              		@ args = 0, pretend = 0, frame = 16
 4033              		@ frame_needed = 1, uses_anonymous_args = 0
 4034              		@ link register save eliminated.
 4035 0000 80B4     		push	{r7}
 4036 0002 85B0     		sub	sp, sp, #20
 4037 0004 00AF     		add	r7, sp, #0
 4038 0006 F860     		str	r0, [r7, #12]
 4039 0008 B960     		str	r1, [r7, #8]
 4040 000a 7A60     		str	r2, [r7, #4]
 4041 000c FB68     		ldr	r3, [r7, #12]
 4042 000e 93F83C30 		ldrb	r3, [r3, #60]	@ zero_extendqisi2
 4043 0012 012B     		cmp	r3, #1
ARM GAS  C:\msys64\tmp\ccXaZRRw.s 			page 71


 4044 0014 01D1     		bne	.L368
 4045 0016 0223     		movs	r3, #2
 4046 0018 4CE0     		b	.L369
 4047              	.L368:
 4048 001a FB68     		ldr	r3, [r7, #12]
 4049 001c 0122     		movs	r2, #1
 4050 001e 83F83C20 		strb	r2, [r3, #60]
 4051 0022 BB68     		ldr	r3, [r7, #8]
 4052 0024 002B     		cmp	r3, #0
 4053 0026 08D0     		beq	.L370
 4054 0028 BB68     		ldr	r3, [r7, #8]
 4055 002a 102B     		cmp	r3, #16
 4056 002c 05D0     		beq	.L370
 4057 002e BB68     		ldr	r3, [r7, #8]
 4058 0030 202B     		cmp	r3, #32
 4059 0032 02D0     		beq	.L370
 4060 0034 BB68     		ldr	r3, [r7, #8]
 4061 0036 302B     		cmp	r3, #48
 4062 0038 0FD1     		bne	.L371
 4063              	.L370:
 4064 003a FB68     		ldr	r3, [r7, #12]
 4065 003c 1B68     		ldr	r3, [r3]
 4066 003e 9A68     		ldr	r2, [r3, #8]
 4067 0040 FB68     		ldr	r3, [r7, #12]
 4068 0042 1B68     		ldr	r3, [r3]
 4069 0044 22F07002 		bic	r2, r2, #112
 4070 0048 9A60     		str	r2, [r3, #8]
 4071 004a FB68     		ldr	r3, [r7, #12]
 4072 004c 1B68     		ldr	r3, [r3]
 4073 004e 9968     		ldr	r1, [r3, #8]
 4074 0050 FB68     		ldr	r3, [r7, #12]
 4075 0052 1B68     		ldr	r3, [r3]
 4076 0054 BA68     		ldr	r2, [r7, #8]
 4077 0056 0A43     		orrs	r2, r2, r1
 4078 0058 9A60     		str	r2, [r3, #8]
 4079              	.L371:
 4080 005a FB68     		ldr	r3, [r7, #12]
 4081 005c 1B68     		ldr	r3, [r3]
 4082 005e 5A68     		ldr	r2, [r3, #4]
 4083 0060 FB68     		ldr	r3, [r7, #12]
 4084 0062 1B68     		ldr	r3, [r3]
 4085 0064 42F00102 		orr	r2, r2, #1
 4086 0068 5A60     		str	r2, [r3, #4]
 4087 006a FB68     		ldr	r3, [r7, #12]
 4088 006c 1B68     		ldr	r3, [r3]
 4089 006e 5A68     		ldr	r2, [r3, #4]
 4090 0070 FB68     		ldr	r3, [r7, #12]
 4091 0072 1B68     		ldr	r3, [r3]
 4092 0074 22F00402 		bic	r2, r2, #4
 4093 0078 5A60     		str	r2, [r3, #4]
 4094 007a FB68     		ldr	r3, [r7, #12]
 4095 007c 1B68     		ldr	r3, [r3]
 4096 007e 5968     		ldr	r1, [r3, #4]
 4097 0080 FB68     		ldr	r3, [r7, #12]
 4098 0082 1B68     		ldr	r3, [r3]
 4099 0084 7A68     		ldr	r2, [r7, #4]
 4100 0086 0A43     		orrs	r2, r2, r1
ARM GAS  C:\msys64\tmp\ccXaZRRw.s 			page 72


 4101 0088 5A60     		str	r2, [r3, #4]
 4102 008a FB68     		ldr	r3, [r7, #12]
 4103 008c 1B68     		ldr	r3, [r3]
 4104 008e DA68     		ldr	r2, [r3, #12]
 4105 0090 FB68     		ldr	r3, [r7, #12]
 4106 0092 1B68     		ldr	r3, [r3]
 4107 0094 22F02002 		bic	r2, r2, #32
 4108 0098 DA60     		str	r2, [r3, #12]
 4109 009a FB68     		ldr	r3, [r7, #12]
 4110 009c 1B68     		ldr	r3, [r3]
 4111 009e DA68     		ldr	r2, [r3, #12]
 4112 00a0 FB68     		ldr	r3, [r7, #12]
 4113 00a2 1B68     		ldr	r3, [r3]
 4114 00a4 22F40052 		bic	r2, r2, #8192
 4115 00a8 DA60     		str	r2, [r3, #12]
 4116 00aa FB68     		ldr	r3, [r7, #12]
 4117 00ac 0022     		movs	r2, #0
 4118 00ae 83F83C20 		strb	r2, [r3, #60]
 4119 00b2 0023     		movs	r3, #0
 4120              	.L369:
 4121 00b4 1846     		mov	r0, r3
 4122 00b6 1437     		adds	r7, r7, #20
 4123 00b8 BD46     		mov	sp, r7
 4124              		@ sp needed
 4125 00ba 5DF8047B 		ldr	r7, [sp], #4
 4126 00be 7047     		bx	lr
 4128              		.section	.text.HAL_TIMEx_ConfigCommutEvent_IT,"ax",%progbits
 4129              		.align	1
 4130              		.global	HAL_TIMEx_ConfigCommutEvent_IT
 4131              		.syntax unified
 4132              		.thumb
 4133              		.thumb_func
 4135              	HAL_TIMEx_ConfigCommutEvent_IT:
 4136              		@ args = 0, pretend = 0, frame = 16
 4137              		@ frame_needed = 1, uses_anonymous_args = 0
 4138              		@ link register save eliminated.
 4139 0000 80B4     		push	{r7}
 4140 0002 85B0     		sub	sp, sp, #20
 4141 0004 00AF     		add	r7, sp, #0
 4142 0006 F860     		str	r0, [r7, #12]
 4143 0008 B960     		str	r1, [r7, #8]
 4144 000a 7A60     		str	r2, [r7, #4]
 4145 000c FB68     		ldr	r3, [r7, #12]
 4146 000e 93F83C30 		ldrb	r3, [r3, #60]	@ zero_extendqisi2
 4147 0012 012B     		cmp	r3, #1
 4148 0014 01D1     		bne	.L373
 4149 0016 0223     		movs	r3, #2
 4150 0018 4CE0     		b	.L374
 4151              	.L373:
 4152 001a FB68     		ldr	r3, [r7, #12]
 4153 001c 0122     		movs	r2, #1
 4154 001e 83F83C20 		strb	r2, [r3, #60]
 4155 0022 BB68     		ldr	r3, [r7, #8]
 4156 0024 002B     		cmp	r3, #0
 4157 0026 08D0     		beq	.L375
 4158 0028 BB68     		ldr	r3, [r7, #8]
 4159 002a 102B     		cmp	r3, #16
ARM GAS  C:\msys64\tmp\ccXaZRRw.s 			page 73


 4160 002c 05D0     		beq	.L375
 4161 002e BB68     		ldr	r3, [r7, #8]
 4162 0030 202B     		cmp	r3, #32
 4163 0032 02D0     		beq	.L375
 4164 0034 BB68     		ldr	r3, [r7, #8]
 4165 0036 302B     		cmp	r3, #48
 4166 0038 0FD1     		bne	.L376
 4167              	.L375:
 4168 003a FB68     		ldr	r3, [r7, #12]
 4169 003c 1B68     		ldr	r3, [r3]
 4170 003e 9A68     		ldr	r2, [r3, #8]
 4171 0040 FB68     		ldr	r3, [r7, #12]
 4172 0042 1B68     		ldr	r3, [r3]
 4173 0044 22F07002 		bic	r2, r2, #112
 4174 0048 9A60     		str	r2, [r3, #8]
 4175 004a FB68     		ldr	r3, [r7, #12]
 4176 004c 1B68     		ldr	r3, [r3]
 4177 004e 9968     		ldr	r1, [r3, #8]
 4178 0050 FB68     		ldr	r3, [r7, #12]
 4179 0052 1B68     		ldr	r3, [r3]
 4180 0054 BA68     		ldr	r2, [r7, #8]
 4181 0056 0A43     		orrs	r2, r2, r1
 4182 0058 9A60     		str	r2, [r3, #8]
 4183              	.L376:
 4184 005a FB68     		ldr	r3, [r7, #12]
 4185 005c 1B68     		ldr	r3, [r3]
 4186 005e 5A68     		ldr	r2, [r3, #4]
 4187 0060 FB68     		ldr	r3, [r7, #12]
 4188 0062 1B68     		ldr	r3, [r3]
 4189 0064 42F00102 		orr	r2, r2, #1
 4190 0068 5A60     		str	r2, [r3, #4]
 4191 006a FB68     		ldr	r3, [r7, #12]
 4192 006c 1B68     		ldr	r3, [r3]
 4193 006e 5A68     		ldr	r2, [r3, #4]
 4194 0070 FB68     		ldr	r3, [r7, #12]
 4195 0072 1B68     		ldr	r3, [r3]
 4196 0074 22F00402 		bic	r2, r2, #4
 4197 0078 5A60     		str	r2, [r3, #4]
 4198 007a FB68     		ldr	r3, [r7, #12]
 4199 007c 1B68     		ldr	r3, [r3]
 4200 007e 5968     		ldr	r1, [r3, #4]
 4201 0080 FB68     		ldr	r3, [r7, #12]
 4202 0082 1B68     		ldr	r3, [r3]
 4203 0084 7A68     		ldr	r2, [r7, #4]
 4204 0086 0A43     		orrs	r2, r2, r1
 4205 0088 5A60     		str	r2, [r3, #4]
 4206 008a FB68     		ldr	r3, [r7, #12]
 4207 008c 1B68     		ldr	r3, [r3]
 4208 008e DA68     		ldr	r2, [r3, #12]
 4209 0090 FB68     		ldr	r3, [r7, #12]
 4210 0092 1B68     		ldr	r3, [r3]
 4211 0094 22F40052 		bic	r2, r2, #8192
 4212 0098 DA60     		str	r2, [r3, #12]
 4213 009a FB68     		ldr	r3, [r7, #12]
 4214 009c 1B68     		ldr	r3, [r3]
 4215 009e DA68     		ldr	r2, [r3, #12]
 4216 00a0 FB68     		ldr	r3, [r7, #12]
ARM GAS  C:\msys64\tmp\ccXaZRRw.s 			page 74


 4217 00a2 1B68     		ldr	r3, [r3]
 4218 00a4 42F02002 		orr	r2, r2, #32
 4219 00a8 DA60     		str	r2, [r3, #12]
 4220 00aa FB68     		ldr	r3, [r7, #12]
 4221 00ac 0022     		movs	r2, #0
 4222 00ae 83F83C20 		strb	r2, [r3, #60]
 4223 00b2 0023     		movs	r3, #0
 4224              	.L374:
 4225 00b4 1846     		mov	r0, r3
 4226 00b6 1437     		adds	r7, r7, #20
 4227 00b8 BD46     		mov	sp, r7
 4228              		@ sp needed
 4229 00ba 5DF8047B 		ldr	r7, [sp], #4
 4230 00be 7047     		bx	lr
 4232              		.section	.text.HAL_TIMEx_ConfigCommutEvent_DMA,"ax",%progbits
 4233              		.align	1
 4234              		.global	HAL_TIMEx_ConfigCommutEvent_DMA
 4235              		.syntax unified
 4236              		.thumb
 4237              		.thumb_func
 4239              	HAL_TIMEx_ConfigCommutEvent_DMA:
 4240              		@ args = 0, pretend = 0, frame = 16
 4241              		@ frame_needed = 1, uses_anonymous_args = 0
 4242              		@ link register save eliminated.
 4243 0000 80B4     		push	{r7}
 4244 0002 85B0     		sub	sp, sp, #20
 4245 0004 00AF     		add	r7, sp, #0
 4246 0006 F860     		str	r0, [r7, #12]
 4247 0008 B960     		str	r1, [r7, #8]
 4248 000a 7A60     		str	r2, [r7, #4]
 4249 000c FB68     		ldr	r3, [r7, #12]
 4250 000e 93F83C30 		ldrb	r3, [r3, #60]	@ zero_extendqisi2
 4251 0012 012B     		cmp	r3, #1
 4252 0014 01D1     		bne	.L378
 4253 0016 0223     		movs	r3, #2
 4254 0018 58E0     		b	.L379
 4255              	.L378:
 4256 001a FB68     		ldr	r3, [r7, #12]
 4257 001c 0122     		movs	r2, #1
 4258 001e 83F83C20 		strb	r2, [r3, #60]
 4259 0022 BB68     		ldr	r3, [r7, #8]
 4260 0024 002B     		cmp	r3, #0
 4261 0026 08D0     		beq	.L380
 4262 0028 BB68     		ldr	r3, [r7, #8]
 4263 002a 102B     		cmp	r3, #16
 4264 002c 05D0     		beq	.L380
 4265 002e BB68     		ldr	r3, [r7, #8]
 4266 0030 202B     		cmp	r3, #32
 4267 0032 02D0     		beq	.L380
 4268 0034 BB68     		ldr	r3, [r7, #8]
 4269 0036 302B     		cmp	r3, #48
 4270 0038 0FD1     		bne	.L381
 4271              	.L380:
 4272 003a FB68     		ldr	r3, [r7, #12]
 4273 003c 1B68     		ldr	r3, [r3]
 4274 003e 9A68     		ldr	r2, [r3, #8]
 4275 0040 FB68     		ldr	r3, [r7, #12]
ARM GAS  C:\msys64\tmp\ccXaZRRw.s 			page 75


 4276 0042 1B68     		ldr	r3, [r3]
 4277 0044 22F07002 		bic	r2, r2, #112
 4278 0048 9A60     		str	r2, [r3, #8]
 4279 004a FB68     		ldr	r3, [r7, #12]
 4280 004c 1B68     		ldr	r3, [r3]
 4281 004e 9968     		ldr	r1, [r3, #8]
 4282 0050 FB68     		ldr	r3, [r7, #12]
 4283 0052 1B68     		ldr	r3, [r3]
 4284 0054 BA68     		ldr	r2, [r7, #8]
 4285 0056 0A43     		orrs	r2, r2, r1
 4286 0058 9A60     		str	r2, [r3, #8]
 4287              	.L381:
 4288 005a FB68     		ldr	r3, [r7, #12]
 4289 005c 1B68     		ldr	r3, [r3]
 4290 005e 5A68     		ldr	r2, [r3, #4]
 4291 0060 FB68     		ldr	r3, [r7, #12]
 4292 0062 1B68     		ldr	r3, [r3]
 4293 0064 42F00102 		orr	r2, r2, #1
 4294 0068 5A60     		str	r2, [r3, #4]
 4295 006a FB68     		ldr	r3, [r7, #12]
 4296 006c 1B68     		ldr	r3, [r3]
 4297 006e 5A68     		ldr	r2, [r3, #4]
 4298 0070 FB68     		ldr	r3, [r7, #12]
 4299 0072 1B68     		ldr	r3, [r3]
 4300 0074 22F00402 		bic	r2, r2, #4
 4301 0078 5A60     		str	r2, [r3, #4]
 4302 007a FB68     		ldr	r3, [r7, #12]
 4303 007c 1B68     		ldr	r3, [r3]
 4304 007e 5968     		ldr	r1, [r3, #4]
 4305 0080 FB68     		ldr	r3, [r7, #12]
 4306 0082 1B68     		ldr	r3, [r3]
 4307 0084 7A68     		ldr	r2, [r7, #4]
 4308 0086 0A43     		orrs	r2, r2, r1
 4309 0088 5A60     		str	r2, [r3, #4]
 4310 008a FB68     		ldr	r3, [r7, #12]
 4311 008c 5B6B     		ldr	r3, [r3, #52]
 4312 008e 124A     		ldr	r2, .L382
 4313 0090 DA63     		str	r2, [r3, #60]
 4314 0092 FB68     		ldr	r3, [r7, #12]
 4315 0094 5B6B     		ldr	r3, [r3, #52]
 4316 0096 114A     		ldr	r2, .L382+4
 4317 0098 1A64     		str	r2, [r3, #64]
 4318 009a FB68     		ldr	r3, [r7, #12]
 4319 009c 5B6B     		ldr	r3, [r3, #52]
 4320 009e 104A     		ldr	r2, .L382+8
 4321 00a0 DA64     		str	r2, [r3, #76]
 4322 00a2 FB68     		ldr	r3, [r7, #12]
 4323 00a4 1B68     		ldr	r3, [r3]
 4324 00a6 DA68     		ldr	r2, [r3, #12]
 4325 00a8 FB68     		ldr	r3, [r7, #12]
 4326 00aa 1B68     		ldr	r3, [r3]
 4327 00ac 22F02002 		bic	r2, r2, #32
 4328 00b0 DA60     		str	r2, [r3, #12]
 4329 00b2 FB68     		ldr	r3, [r7, #12]
 4330 00b4 1B68     		ldr	r3, [r3]
 4331 00b6 DA68     		ldr	r2, [r3, #12]
 4332 00b8 FB68     		ldr	r3, [r7, #12]
ARM GAS  C:\msys64\tmp\ccXaZRRw.s 			page 76


 4333 00ba 1B68     		ldr	r3, [r3]
 4334 00bc 42F40052 		orr	r2, r2, #8192
 4335 00c0 DA60     		str	r2, [r3, #12]
 4336 00c2 FB68     		ldr	r3, [r7, #12]
 4337 00c4 0022     		movs	r2, #0
 4338 00c6 83F83C20 		strb	r2, [r3, #60]
 4339 00ca 0023     		movs	r3, #0
 4340              	.L379:
 4341 00cc 1846     		mov	r0, r3
 4342 00ce 1437     		adds	r7, r7, #20
 4343 00d0 BD46     		mov	sp, r7
 4344              		@ sp needed
 4345 00d2 5DF8047B 		ldr	r7, [sp], #4
 4346 00d6 7047     		bx	lr
 4347              	.L383:
 4348              		.align	2
 4349              	.L382:
 4350 00d8 00000000 		.word	TIMEx_DMACommutationCplt
 4351 00dc 00000000 		.word	TIMEx_DMACommutationHalfCplt
 4352 00e0 00000000 		.word	TIM_DMAError
 4354              		.section	.text.HAL_TIMEx_MasterConfigSynchronization,"ax",%progbits
 4355              		.align	1
 4356              		.global	HAL_TIMEx_MasterConfigSynchronization
 4357              		.syntax unified
 4358              		.thumb
 4359              		.thumb_func
 4361              	HAL_TIMEx_MasterConfigSynchronization:
 4362              		@ args = 0, pretend = 0, frame = 16
 4363              		@ frame_needed = 1, uses_anonymous_args = 0
 4364              		@ link register save eliminated.
 4365 0000 80B4     		push	{r7}
 4366 0002 85B0     		sub	sp, sp, #20
 4367 0004 00AF     		add	r7, sp, #0
 4368 0006 7860     		str	r0, [r7, #4]
 4369 0008 3960     		str	r1, [r7]
 4370 000a 7B68     		ldr	r3, [r7, #4]
 4371 000c 93F83C30 		ldrb	r3, [r3, #60]	@ zero_extendqisi2
 4372 0010 012B     		cmp	r3, #1
 4373 0012 01D1     		bne	.L385
 4374 0014 0223     		movs	r3, #2
 4375 0016 6DE0     		b	.L386
 4376              	.L385:
 4377 0018 7B68     		ldr	r3, [r7, #4]
 4378 001a 0122     		movs	r2, #1
 4379 001c 83F83C20 		strb	r2, [r3, #60]
 4380 0020 7B68     		ldr	r3, [r7, #4]
 4381 0022 0222     		movs	r2, #2
 4382 0024 83F83D20 		strb	r2, [r3, #61]
 4383 0028 7B68     		ldr	r3, [r7, #4]
 4384 002a 1B68     		ldr	r3, [r3]
 4385 002c 5B68     		ldr	r3, [r3, #4]
 4386 002e FB60     		str	r3, [r7, #12]
 4387 0030 7B68     		ldr	r3, [r7, #4]
 4388 0032 1B68     		ldr	r3, [r3]
 4389 0034 9B68     		ldr	r3, [r3, #8]
 4390 0036 BB60     		str	r3, [r7, #8]
 4391 0038 7B68     		ldr	r3, [r7, #4]
ARM GAS  C:\msys64\tmp\ccXaZRRw.s 			page 77


 4392 003a 1B68     		ldr	r3, [r3]
 4393 003c 304A     		ldr	r2, .L391
 4394 003e 9342     		cmp	r3, r2
 4395 0040 04D0     		beq	.L387
 4396 0042 7B68     		ldr	r3, [r7, #4]
 4397 0044 1B68     		ldr	r3, [r3]
 4398 0046 2F4A     		ldr	r2, .L391+4
 4399 0048 9342     		cmp	r3, r2
 4400 004a 08D1     		bne	.L388
 4401              	.L387:
 4402 004c FB68     		ldr	r3, [r7, #12]
 4403 004e 23F47003 		bic	r3, r3, #15728640
 4404 0052 FB60     		str	r3, [r7, #12]
 4405 0054 3B68     		ldr	r3, [r7]
 4406 0056 5B68     		ldr	r3, [r3, #4]
 4407 0058 FA68     		ldr	r2, [r7, #12]
 4408 005a 1343     		orrs	r3, r3, r2
 4409 005c FB60     		str	r3, [r7, #12]
 4410              	.L388:
 4411 005e FB68     		ldr	r3, [r7, #12]
 4412 0060 23F07003 		bic	r3, r3, #112
 4413 0064 FB60     		str	r3, [r7, #12]
 4414 0066 3B68     		ldr	r3, [r7]
 4415 0068 1B68     		ldr	r3, [r3]
 4416 006a FA68     		ldr	r2, [r7, #12]
 4417 006c 1343     		orrs	r3, r3, r2
 4418 006e FB60     		str	r3, [r7, #12]
 4419 0070 7B68     		ldr	r3, [r7, #4]
 4420 0072 1B68     		ldr	r3, [r3]
 4421 0074 FA68     		ldr	r2, [r7, #12]
 4422 0076 5A60     		str	r2, [r3, #4]
 4423 0078 7B68     		ldr	r3, [r7, #4]
 4424 007a 1B68     		ldr	r3, [r3]
 4425 007c 204A     		ldr	r2, .L391
 4426 007e 9342     		cmp	r3, r2
 4427 0080 22D0     		beq	.L389
 4428 0082 7B68     		ldr	r3, [r7, #4]
 4429 0084 1B68     		ldr	r3, [r3]
 4430 0086 B3F1804F 		cmp	r3, #1073741824
 4431 008a 1DD0     		beq	.L389
 4432 008c 7B68     		ldr	r3, [r7, #4]
 4433 008e 1B68     		ldr	r3, [r3]
 4434 0090 1D4A     		ldr	r2, .L391+8
 4435 0092 9342     		cmp	r3, r2
 4436 0094 18D0     		beq	.L389
 4437 0096 7B68     		ldr	r3, [r7, #4]
 4438 0098 1B68     		ldr	r3, [r3]
 4439 009a 1C4A     		ldr	r2, .L391+12
 4440 009c 9342     		cmp	r3, r2
 4441 009e 13D0     		beq	.L389
 4442 00a0 7B68     		ldr	r3, [r7, #4]
 4443 00a2 1B68     		ldr	r3, [r3]
 4444 00a4 1A4A     		ldr	r2, .L391+16
 4445 00a6 9342     		cmp	r3, r2
 4446 00a8 0ED0     		beq	.L389
 4447 00aa 7B68     		ldr	r3, [r7, #4]
 4448 00ac 1B68     		ldr	r3, [r3]
ARM GAS  C:\msys64\tmp\ccXaZRRw.s 			page 78


 4449 00ae 154A     		ldr	r2, .L391+4
 4450 00b0 9342     		cmp	r3, r2
 4451 00b2 09D0     		beq	.L389
 4452 00b4 7B68     		ldr	r3, [r7, #4]
 4453 00b6 1B68     		ldr	r3, [r3]
 4454 00b8 164A     		ldr	r2, .L391+20
 4455 00ba 9342     		cmp	r3, r2
 4456 00bc 04D0     		beq	.L389
 4457 00be 7B68     		ldr	r3, [r7, #4]
 4458 00c0 1B68     		ldr	r3, [r3]
 4459 00c2 154A     		ldr	r2, .L391+24
 4460 00c4 9342     		cmp	r3, r2
 4461 00c6 0CD1     		bne	.L390
 4462              	.L389:
 4463 00c8 BB68     		ldr	r3, [r7, #8]
 4464 00ca 23F08003 		bic	r3, r3, #128
 4465 00ce BB60     		str	r3, [r7, #8]
 4466 00d0 3B68     		ldr	r3, [r7]
 4467 00d2 9B68     		ldr	r3, [r3, #8]
 4468 00d4 BA68     		ldr	r2, [r7, #8]
 4469 00d6 1343     		orrs	r3, r3, r2
 4470 00d8 BB60     		str	r3, [r7, #8]
 4471 00da 7B68     		ldr	r3, [r7, #4]
 4472 00dc 1B68     		ldr	r3, [r3]
 4473 00de BA68     		ldr	r2, [r7, #8]
 4474 00e0 9A60     		str	r2, [r3, #8]
 4475              	.L390:
 4476 00e2 7B68     		ldr	r3, [r7, #4]
 4477 00e4 0122     		movs	r2, #1
 4478 00e6 83F83D20 		strb	r2, [r3, #61]
 4479 00ea 7B68     		ldr	r3, [r7, #4]
 4480 00ec 0022     		movs	r2, #0
 4481 00ee 83F83C20 		strb	r2, [r3, #60]
 4482 00f2 0023     		movs	r3, #0
 4483              	.L386:
 4484 00f4 1846     		mov	r0, r3
 4485 00f6 1437     		adds	r7, r7, #20
 4486 00f8 BD46     		mov	sp, r7
 4487              		@ sp needed
 4488 00fa 5DF8047B 		ldr	r7, [sp], #4
 4489 00fe 7047     		bx	lr
 4490              	.L392:
 4491              		.align	2
 4492              	.L391:
 4493 0100 00000140 		.word	1073807360
 4494 0104 00040140 		.word	1073808384
 4495 0108 00040040 		.word	1073742848
 4496 010c 00080040 		.word	1073743872
 4497 0110 000C0040 		.word	1073744896
 4498 0114 00400140 		.word	1073823744
 4499 0118 00180040 		.word	1073747968
 4501              		.section	.text.HAL_TIMEx_ConfigBreakDeadTime,"ax",%progbits
 4502              		.align	1
 4503              		.global	HAL_TIMEx_ConfigBreakDeadTime
 4504              		.syntax unified
 4505              		.thumb
 4506              		.thumb_func
ARM GAS  C:\msys64\tmp\ccXaZRRw.s 			page 79


 4508              	HAL_TIMEx_ConfigBreakDeadTime:
 4509              		@ args = 0, pretend = 0, frame = 16
 4510              		@ frame_needed = 1, uses_anonymous_args = 0
 4511              		@ link register save eliminated.
 4512 0000 80B4     		push	{r7}
 4513 0002 85B0     		sub	sp, sp, #20
 4514 0004 00AF     		add	r7, sp, #0
 4515 0006 7860     		str	r0, [r7, #4]
 4516 0008 3960     		str	r1, [r7]
 4517 000a 0023     		movs	r3, #0
 4518 000c FB60     		str	r3, [r7, #12]
 4519 000e 7B68     		ldr	r3, [r7, #4]
 4520 0010 93F83C30 		ldrb	r3, [r3, #60]	@ zero_extendqisi2
 4521 0014 012B     		cmp	r3, #1
 4522 0016 01D1     		bne	.L394
 4523 0018 0223     		movs	r3, #2
 4524 001a 65E0     		b	.L395
 4525              	.L394:
 4526 001c 7B68     		ldr	r3, [r7, #4]
 4527 001e 0122     		movs	r2, #1
 4528 0020 83F83C20 		strb	r2, [r3, #60]
 4529 0024 FB68     		ldr	r3, [r7, #12]
 4530 0026 23F0FF02 		bic	r2, r3, #255
 4531 002a 3B68     		ldr	r3, [r7]
 4532 002c DB68     		ldr	r3, [r3, #12]
 4533 002e 1343     		orrs	r3, r3, r2
 4534 0030 FB60     		str	r3, [r7, #12]
 4535 0032 FB68     		ldr	r3, [r7, #12]
 4536 0034 23F44072 		bic	r2, r3, #768
 4537 0038 3B68     		ldr	r3, [r7]
 4538 003a 9B68     		ldr	r3, [r3, #8]
 4539 003c 1343     		orrs	r3, r3, r2
 4540 003e FB60     		str	r3, [r7, #12]
 4541 0040 FB68     		ldr	r3, [r7, #12]
 4542 0042 23F48062 		bic	r2, r3, #1024
 4543 0046 3B68     		ldr	r3, [r7]
 4544 0048 5B68     		ldr	r3, [r3, #4]
 4545 004a 1343     		orrs	r3, r3, r2
 4546 004c FB60     		str	r3, [r7, #12]
 4547 004e FB68     		ldr	r3, [r7, #12]
 4548 0050 23F40062 		bic	r2, r3, #2048
 4549 0054 3B68     		ldr	r3, [r7]
 4550 0056 1B68     		ldr	r3, [r3]
 4551 0058 1343     		orrs	r3, r3, r2
 4552 005a FB60     		str	r3, [r7, #12]
 4553 005c FB68     		ldr	r3, [r7, #12]
 4554 005e 23F48052 		bic	r2, r3, #4096
 4555 0062 3B68     		ldr	r3, [r7]
 4556 0064 1B69     		ldr	r3, [r3, #16]
 4557 0066 1343     		orrs	r3, r3, r2
 4558 0068 FB60     		str	r3, [r7, #12]
 4559 006a FB68     		ldr	r3, [r7, #12]
 4560 006c 23F40052 		bic	r2, r3, #8192
 4561 0070 3B68     		ldr	r3, [r7]
 4562 0072 5B69     		ldr	r3, [r3, #20]
 4563 0074 1343     		orrs	r3, r3, r2
 4564 0076 FB60     		str	r3, [r7, #12]
ARM GAS  C:\msys64\tmp\ccXaZRRw.s 			page 80


 4565 0078 FB68     		ldr	r3, [r7, #12]
 4566 007a 23F48042 		bic	r2, r3, #16384
 4567 007e 3B68     		ldr	r3, [r7]
 4568 0080 9B6A     		ldr	r3, [r3, #40]
 4569 0082 1343     		orrs	r3, r3, r2
 4570 0084 FB60     		str	r3, [r7, #12]
 4571 0086 FB68     		ldr	r3, [r7, #12]
 4572 0088 23F47022 		bic	r2, r3, #983040
 4573 008c 3B68     		ldr	r3, [r7]
 4574 008e 9B69     		ldr	r3, [r3, #24]
 4575 0090 1B04     		lsls	r3, r3, #16
 4576 0092 1343     		orrs	r3, r3, r2
 4577 0094 FB60     		str	r3, [r7, #12]
 4578 0096 7B68     		ldr	r3, [r7, #4]
 4579 0098 1B68     		ldr	r3, [r3]
 4580 009a 164A     		ldr	r2, .L398
 4581 009c 9342     		cmp	r3, r2
 4582 009e 04D0     		beq	.L396
 4583 00a0 7B68     		ldr	r3, [r7, #4]
 4584 00a2 1B68     		ldr	r3, [r3]
 4585 00a4 144A     		ldr	r2, .L398+4
 4586 00a6 9342     		cmp	r3, r2
 4587 00a8 15D1     		bne	.L397
 4588              	.L396:
 4589 00aa FB68     		ldr	r3, [r7, #12]
 4590 00ac 23F47002 		bic	r2, r3, #15728640
 4591 00b0 3B68     		ldr	r3, [r7]
 4592 00b2 5B6A     		ldr	r3, [r3, #36]
 4593 00b4 1B05     		lsls	r3, r3, #20
 4594 00b6 1343     		orrs	r3, r3, r2
 4595 00b8 FB60     		str	r3, [r7, #12]
 4596 00ba FB68     		ldr	r3, [r7, #12]
 4597 00bc 23F08072 		bic	r2, r3, #16777216
 4598 00c0 3B68     		ldr	r3, [r7]
 4599 00c2 DB69     		ldr	r3, [r3, #28]
 4600 00c4 1343     		orrs	r3, r3, r2
 4601 00c6 FB60     		str	r3, [r7, #12]
 4602 00c8 FB68     		ldr	r3, [r7, #12]
 4603 00ca 23F00072 		bic	r2, r3, #33554432
 4604 00ce 3B68     		ldr	r3, [r7]
 4605 00d0 1B6A     		ldr	r3, [r3, #32]
 4606 00d2 1343     		orrs	r3, r3, r2
 4607 00d4 FB60     		str	r3, [r7, #12]
 4608              	.L397:
 4609 00d6 7B68     		ldr	r3, [r7, #4]
 4610 00d8 1B68     		ldr	r3, [r3]
 4611 00da FA68     		ldr	r2, [r7, #12]
 4612 00dc 5A64     		str	r2, [r3, #68]
 4613 00de 7B68     		ldr	r3, [r7, #4]
 4614 00e0 0022     		movs	r2, #0
 4615 00e2 83F83C20 		strb	r2, [r3, #60]
 4616 00e6 0023     		movs	r3, #0
 4617              	.L395:
 4618 00e8 1846     		mov	r0, r3
 4619 00ea 1437     		adds	r7, r7, #20
 4620 00ec BD46     		mov	sp, r7
 4621              		@ sp needed
ARM GAS  C:\msys64\tmp\ccXaZRRw.s 			page 81


 4622 00ee 5DF8047B 		ldr	r7, [sp], #4
 4623 00f2 7047     		bx	lr
 4624              	.L399:
 4625              		.align	2
 4626              	.L398:
 4627 00f4 00000140 		.word	1073807360
 4628 00f8 00040140 		.word	1073808384
 4630              		.section	.text.HAL_TIMEx_RemapConfig,"ax",%progbits
 4631              		.align	1
 4632              		.global	HAL_TIMEx_RemapConfig
 4633              		.syntax unified
 4634              		.thumb
 4635              		.thumb_func
 4637              	HAL_TIMEx_RemapConfig:
 4638              		@ args = 0, pretend = 0, frame = 8
 4639              		@ frame_needed = 1, uses_anonymous_args = 0
 4640              		@ link register save eliminated.
 4641 0000 80B4     		push	{r7}
 4642 0002 83B0     		sub	sp, sp, #12
 4643 0004 00AF     		add	r7, sp, #0
 4644 0006 7860     		str	r0, [r7, #4]
 4645 0008 3960     		str	r1, [r7]
 4646 000a 7B68     		ldr	r3, [r7, #4]
 4647 000c 93F83C30 		ldrb	r3, [r3, #60]	@ zero_extendqisi2
 4648 0010 012B     		cmp	r3, #1
 4649 0012 01D1     		bne	.L401
 4650 0014 0223     		movs	r3, #2
 4651 0016 10E0     		b	.L402
 4652              	.L401:
 4653 0018 7B68     		ldr	r3, [r7, #4]
 4654 001a 0122     		movs	r2, #1
 4655 001c 83F83C20 		strb	r2, [r3, #60]
 4656 0020 7B68     		ldr	r3, [r7, #4]
 4657 0022 1B68     		ldr	r3, [r3]
 4658 0024 3A68     		ldr	r2, [r7]
 4659 0026 1A65     		str	r2, [r3, #80]
 4660 0028 7B68     		ldr	r3, [r7, #4]
 4661 002a 0122     		movs	r2, #1
 4662 002c 83F83D20 		strb	r2, [r3, #61]
 4663 0030 7B68     		ldr	r3, [r7, #4]
 4664 0032 0022     		movs	r2, #0
 4665 0034 83F83C20 		strb	r2, [r3, #60]
 4666 0038 0023     		movs	r3, #0
 4667              	.L402:
 4668 003a 1846     		mov	r0, r3
 4669 003c 0C37     		adds	r7, r7, #12
 4670 003e BD46     		mov	sp, r7
 4671              		@ sp needed
 4672 0040 5DF8047B 		ldr	r7, [sp], #4
 4673 0044 7047     		bx	lr
 4675              		.section	.text.HAL_TIMEx_GroupChannel5,"ax",%progbits
 4676              		.align	1
 4677              		.global	HAL_TIMEx_GroupChannel5
 4678              		.syntax unified
 4679              		.thumb
 4680              		.thumb_func
 4682              	HAL_TIMEx_GroupChannel5:
ARM GAS  C:\msys64\tmp\ccXaZRRw.s 			page 82


 4683              		@ args = 0, pretend = 0, frame = 8
 4684              		@ frame_needed = 1, uses_anonymous_args = 0
 4685              		@ link register save eliminated.
 4686 0000 80B4     		push	{r7}
 4687 0002 83B0     		sub	sp, sp, #12
 4688 0004 00AF     		add	r7, sp, #0
 4689 0006 7860     		str	r0, [r7, #4]
 4690 0008 3960     		str	r1, [r7]
 4691 000a 7B68     		ldr	r3, [r7, #4]
 4692 000c 93F83C30 		ldrb	r3, [r3, #60]	@ zero_extendqisi2
 4693 0010 012B     		cmp	r3, #1
 4694 0012 01D1     		bne	.L404
 4695 0014 0223     		movs	r3, #2
 4696 0016 20E0     		b	.L405
 4697              	.L404:
 4698 0018 7B68     		ldr	r3, [r7, #4]
 4699 001a 0122     		movs	r2, #1
 4700 001c 83F83C20 		strb	r2, [r3, #60]
 4701 0020 7B68     		ldr	r3, [r7, #4]
 4702 0022 0222     		movs	r2, #2
 4703 0024 83F83D20 		strb	r2, [r3, #61]
 4704 0028 7B68     		ldr	r3, [r7, #4]
 4705 002a 1B68     		ldr	r3, [r3]
 4706 002c 9A6D     		ldr	r2, [r3, #88]
 4707 002e 7B68     		ldr	r3, [r7, #4]
 4708 0030 1B68     		ldr	r3, [r3]
 4709 0032 22F06042 		bic	r2, r2, #-536870912
 4710 0036 9A65     		str	r2, [r3, #88]
 4711 0038 7B68     		ldr	r3, [r7, #4]
 4712 003a 1B68     		ldr	r3, [r3]
 4713 003c 996D     		ldr	r1, [r3, #88]
 4714 003e 7B68     		ldr	r3, [r7, #4]
 4715 0040 1B68     		ldr	r3, [r3]
 4716 0042 3A68     		ldr	r2, [r7]
 4717 0044 0A43     		orrs	r2, r2, r1
 4718 0046 9A65     		str	r2, [r3, #88]
 4719 0048 7B68     		ldr	r3, [r7, #4]
 4720 004a 0122     		movs	r2, #1
 4721 004c 83F83D20 		strb	r2, [r3, #61]
 4722 0050 7B68     		ldr	r3, [r7, #4]
 4723 0052 0022     		movs	r2, #0
 4724 0054 83F83C20 		strb	r2, [r3, #60]
 4725 0058 0023     		movs	r3, #0
 4726              	.L405:
 4727 005a 1846     		mov	r0, r3
 4728 005c 0C37     		adds	r7, r7, #12
 4729 005e BD46     		mov	sp, r7
 4730              		@ sp needed
 4731 0060 5DF8047B 		ldr	r7, [sp], #4
 4732 0064 7047     		bx	lr
 4734              		.section	.text.HAL_TIMEx_CommutCallback,"ax",%progbits
 4735              		.align	1
 4736              		.weak	HAL_TIMEx_CommutCallback
 4737              		.syntax unified
 4738              		.thumb
 4739              		.thumb_func
 4741              	HAL_TIMEx_CommutCallback:
ARM GAS  C:\msys64\tmp\ccXaZRRw.s 			page 83


 4742              		@ args = 0, pretend = 0, frame = 8
 4743              		@ frame_needed = 1, uses_anonymous_args = 0
 4744              		@ link register save eliminated.
 4745 0000 80B4     		push	{r7}
 4746 0002 83B0     		sub	sp, sp, #12
 4747 0004 00AF     		add	r7, sp, #0
 4748 0006 7860     		str	r0, [r7, #4]
 4749 0008 00BF     		nop
 4750 000a 0C37     		adds	r7, r7, #12
 4751 000c BD46     		mov	sp, r7
 4752              		@ sp needed
 4753 000e 5DF8047B 		ldr	r7, [sp], #4
 4754 0012 7047     		bx	lr
 4756              		.section	.text.HAL_TIMEx_CommutHalfCpltCallback,"ax",%progbits
 4757              		.align	1
 4758              		.weak	HAL_TIMEx_CommutHalfCpltCallback
 4759              		.syntax unified
 4760              		.thumb
 4761              		.thumb_func
 4763              	HAL_TIMEx_CommutHalfCpltCallback:
 4764              		@ args = 0, pretend = 0, frame = 8
 4765              		@ frame_needed = 1, uses_anonymous_args = 0
 4766              		@ link register save eliminated.
 4767 0000 80B4     		push	{r7}
 4768 0002 83B0     		sub	sp, sp, #12
 4769 0004 00AF     		add	r7, sp, #0
 4770 0006 7860     		str	r0, [r7, #4]
 4771 0008 00BF     		nop
 4772 000a 0C37     		adds	r7, r7, #12
 4773 000c BD46     		mov	sp, r7
 4774              		@ sp needed
 4775 000e 5DF8047B 		ldr	r7, [sp], #4
 4776 0012 7047     		bx	lr
 4778              		.section	.text.HAL_TIMEx_BreakCallback,"ax",%progbits
 4779              		.align	1
 4780              		.weak	HAL_TIMEx_BreakCallback
 4781              		.syntax unified
 4782              		.thumb
 4783              		.thumb_func
 4785              	HAL_TIMEx_BreakCallback:
 4786              		@ args = 0, pretend = 0, frame = 8
 4787              		@ frame_needed = 1, uses_anonymous_args = 0
 4788              		@ link register save eliminated.
 4789 0000 80B4     		push	{r7}
 4790 0002 83B0     		sub	sp, sp, #12
 4791 0004 00AF     		add	r7, sp, #0
 4792 0006 7860     		str	r0, [r7, #4]
 4793 0008 00BF     		nop
 4794 000a 0C37     		adds	r7, r7, #12
 4795 000c BD46     		mov	sp, r7
 4796              		@ sp needed
 4797 000e 5DF8047B 		ldr	r7, [sp], #4
 4798 0012 7047     		bx	lr
 4800              		.section	.text.HAL_TIMEx_Break2Callback,"ax",%progbits
 4801              		.align	1
 4802              		.weak	HAL_TIMEx_Break2Callback
 4803              		.syntax unified
ARM GAS  C:\msys64\tmp\ccXaZRRw.s 			page 84


 4804              		.thumb
 4805              		.thumb_func
 4807              	HAL_TIMEx_Break2Callback:
 4808              		@ args = 0, pretend = 0, frame = 8
 4809              		@ frame_needed = 1, uses_anonymous_args = 0
 4810              		@ link register save eliminated.
 4811 0000 80B4     		push	{r7}
 4812 0002 83B0     		sub	sp, sp, #12
 4813 0004 00AF     		add	r7, sp, #0
 4814 0006 7860     		str	r0, [r7, #4]
 4815 0008 00BF     		nop
 4816 000a 0C37     		adds	r7, r7, #12
 4817 000c BD46     		mov	sp, r7
 4818              		@ sp needed
 4819 000e 5DF8047B 		ldr	r7, [sp], #4
 4820 0012 7047     		bx	lr
 4822              		.section	.text.HAL_TIMEx_HallSensor_GetState,"ax",%progbits
 4823              		.align	1
 4824              		.global	HAL_TIMEx_HallSensor_GetState
 4825              		.syntax unified
 4826              		.thumb
 4827              		.thumb_func
 4829              	HAL_TIMEx_HallSensor_GetState:
 4830              		@ args = 0, pretend = 0, frame = 8
 4831              		@ frame_needed = 1, uses_anonymous_args = 0
 4832              		@ link register save eliminated.
 4833 0000 80B4     		push	{r7}
 4834 0002 83B0     		sub	sp, sp, #12
 4835 0004 00AF     		add	r7, sp, #0
 4836 0006 7860     		str	r0, [r7, #4]
 4837 0008 7B68     		ldr	r3, [r7, #4]
 4838 000a 93F83D30 		ldrb	r3, [r3, #61]
 4839 000e DBB2     		uxtb	r3, r3
 4840 0010 1846     		mov	r0, r3
 4841 0012 0C37     		adds	r7, r7, #12
 4842 0014 BD46     		mov	sp, r7
 4843              		@ sp needed
 4844 0016 5DF8047B 		ldr	r7, [sp], #4
 4845 001a 7047     		bx	lr
 4847              		.section	.text.HAL_TIMEx_GetChannelNState,"ax",%progbits
 4848              		.align	1
 4849              		.global	HAL_TIMEx_GetChannelNState
 4850              		.syntax unified
 4851              		.thumb
 4852              		.thumb_func
 4854              	HAL_TIMEx_GetChannelNState:
 4855              		@ args = 0, pretend = 0, frame = 16
 4856              		@ frame_needed = 1, uses_anonymous_args = 0
 4857              		@ link register save eliminated.
 4858 0000 80B4     		push	{r7}
 4859 0002 85B0     		sub	sp, sp, #20
 4860 0004 00AF     		add	r7, sp, #0
 4861 0006 7860     		str	r0, [r7, #4]
 4862 0008 3960     		str	r1, [r7]
 4863 000a 3B68     		ldr	r3, [r7]
 4864 000c 002B     		cmp	r3, #0
 4865 000e 04D1     		bne	.L413
ARM GAS  C:\msys64\tmp\ccXaZRRw.s 			page 85


 4866 0010 7B68     		ldr	r3, [r7, #4]
 4867 0012 93F84430 		ldrb	r3, [r3, #68]
 4868 0016 DBB2     		uxtb	r3, r3
 4869 0018 13E0     		b	.L414
 4870              	.L413:
 4871 001a 3B68     		ldr	r3, [r7]
 4872 001c 042B     		cmp	r3, #4
 4873 001e 04D1     		bne	.L415
 4874 0020 7B68     		ldr	r3, [r7, #4]
 4875 0022 93F84530 		ldrb	r3, [r3, #69]
 4876 0026 DBB2     		uxtb	r3, r3
 4877 0028 0BE0     		b	.L414
 4878              	.L415:
 4879 002a 3B68     		ldr	r3, [r7]
 4880 002c 082B     		cmp	r3, #8
 4881 002e 04D1     		bne	.L417
 4882 0030 7B68     		ldr	r3, [r7, #4]
 4883 0032 93F84630 		ldrb	r3, [r3, #70]
 4884 0036 DBB2     		uxtb	r3, r3
 4885 0038 03E0     		b	.L414
 4886              	.L417:
 4887 003a 7B68     		ldr	r3, [r7, #4]
 4888 003c 93F84730 		ldrb	r3, [r3, #71]
 4889 0040 DBB2     		uxtb	r3, r3
 4890              	.L414:
 4891 0042 FB73     		strb	r3, [r7, #15]
 4892 0044 FB7B     		ldrb	r3, [r7, #15]	@ zero_extendqisi2
 4893 0046 1846     		mov	r0, r3
 4894 0048 1437     		adds	r7, r7, #20
 4895 004a BD46     		mov	sp, r7
 4896              		@ sp needed
 4897 004c 5DF8047B 		ldr	r7, [sp], #4
 4898 0050 7047     		bx	lr
 4900              		.section	.text.TIMEx_DMACommutationCplt,"ax",%progbits
 4901              		.align	1
 4902              		.global	TIMEx_DMACommutationCplt
 4903              		.syntax unified
 4904              		.thumb
 4905              		.thumb_func
 4907              	TIMEx_DMACommutationCplt:
 4908              		@ args = 0, pretend = 0, frame = 16
 4909              		@ frame_needed = 1, uses_anonymous_args = 0
 4910 0000 80B5     		push	{r7, lr}
 4911 0002 84B0     		sub	sp, sp, #16
 4912 0004 00AF     		add	r7, sp, #0
 4913 0006 7860     		str	r0, [r7, #4]
 4914 0008 7B68     		ldr	r3, [r7, #4]
 4915 000a 9B6B     		ldr	r3, [r3, #56]
 4916 000c FB60     		str	r3, [r7, #12]
 4917 000e FB68     		ldr	r3, [r7, #12]
 4918 0010 0122     		movs	r2, #1
 4919 0012 83F83D20 		strb	r2, [r3, #61]
 4920 0016 F868     		ldr	r0, [r7, #12]
 4921 0018 FFF7FEFF 		bl	HAL_TIMEx_CommutCallback
 4922 001c 00BF     		nop
 4923 001e 1037     		adds	r7, r7, #16
 4924 0020 BD46     		mov	sp, r7
ARM GAS  C:\msys64\tmp\ccXaZRRw.s 			page 86


 4925              		@ sp needed
 4926 0022 80BD     		pop	{r7, pc}
 4928              		.section	.text.TIMEx_DMACommutationHalfCplt,"ax",%progbits
 4929              		.align	1
 4930              		.global	TIMEx_DMACommutationHalfCplt
 4931              		.syntax unified
 4932              		.thumb
 4933              		.thumb_func
 4935              	TIMEx_DMACommutationHalfCplt:
 4936              		@ args = 0, pretend = 0, frame = 16
 4937              		@ frame_needed = 1, uses_anonymous_args = 0
 4938 0000 80B5     		push	{r7, lr}
 4939 0002 84B0     		sub	sp, sp, #16
 4940 0004 00AF     		add	r7, sp, #0
 4941 0006 7860     		str	r0, [r7, #4]
 4942 0008 7B68     		ldr	r3, [r7, #4]
 4943 000a 9B6B     		ldr	r3, [r3, #56]
 4944 000c FB60     		str	r3, [r7, #12]
 4945 000e FB68     		ldr	r3, [r7, #12]
 4946 0010 0122     		movs	r2, #1
 4947 0012 83F83D20 		strb	r2, [r3, #61]
 4948 0016 F868     		ldr	r0, [r7, #12]
 4949 0018 FFF7FEFF 		bl	HAL_TIMEx_CommutHalfCpltCallback
 4950 001c 00BF     		nop
 4951 001e 1037     		adds	r7, r7, #16
 4952 0020 BD46     		mov	sp, r7
 4953              		@ sp needed
 4954 0022 80BD     		pop	{r7, pc}
 4956              		.section	.text.TIM_DMADelayPulseNCplt,"ax",%progbits
 4957              		.align	1
 4958              		.syntax unified
 4959              		.thumb
 4960              		.thumb_func
 4962              	TIM_DMADelayPulseNCplt:
 4963              		@ args = 0, pretend = 0, frame = 16
 4964              		@ frame_needed = 1, uses_anonymous_args = 0
 4965 0000 80B5     		push	{r7, lr}
 4966 0002 84B0     		sub	sp, sp, #16
 4967 0004 00AF     		add	r7, sp, #0
 4968 0006 7860     		str	r0, [r7, #4]
 4969 0008 7B68     		ldr	r3, [r7, #4]
 4970 000a 9B6B     		ldr	r3, [r3, #56]
 4971 000c FB60     		str	r3, [r7, #12]
 4972 000e FB68     		ldr	r3, [r7, #12]
 4973 0010 5B6A     		ldr	r3, [r3, #36]
 4974 0012 7A68     		ldr	r2, [r7, #4]
 4975 0014 9A42     		cmp	r2, r3
 4976 0016 0BD1     		bne	.L423
 4977 0018 FB68     		ldr	r3, [r7, #12]
 4978 001a 0122     		movs	r2, #1
 4979 001c 1A77     		strb	r2, [r3, #28]
 4980 001e 7B68     		ldr	r3, [r7, #4]
 4981 0020 DB69     		ldr	r3, [r3, #28]
 4982 0022 002B     		cmp	r3, #0
 4983 0024 25D1     		bne	.L424
 4984 0026 FB68     		ldr	r3, [r7, #12]
 4985 0028 0122     		movs	r2, #1
ARM GAS  C:\msys64\tmp\ccXaZRRw.s 			page 87


 4986 002a 83F84420 		strb	r2, [r3, #68]
 4987 002e 20E0     		b	.L424
 4988              	.L423:
 4989 0030 FB68     		ldr	r3, [r7, #12]
 4990 0032 9B6A     		ldr	r3, [r3, #40]
 4991 0034 7A68     		ldr	r2, [r7, #4]
 4992 0036 9A42     		cmp	r2, r3
 4993 0038 0BD1     		bne	.L425
 4994 003a FB68     		ldr	r3, [r7, #12]
 4995 003c 0222     		movs	r2, #2
 4996 003e 1A77     		strb	r2, [r3, #28]
 4997 0040 7B68     		ldr	r3, [r7, #4]
 4998 0042 DB69     		ldr	r3, [r3, #28]
 4999 0044 002B     		cmp	r3, #0
 5000 0046 14D1     		bne	.L424
 5001 0048 FB68     		ldr	r3, [r7, #12]
 5002 004a 0122     		movs	r2, #1
 5003 004c 83F84520 		strb	r2, [r3, #69]
 5004 0050 0FE0     		b	.L424
 5005              	.L425:
 5006 0052 FB68     		ldr	r3, [r7, #12]
 5007 0054 DB6A     		ldr	r3, [r3, #44]
 5008 0056 7A68     		ldr	r2, [r7, #4]
 5009 0058 9A42     		cmp	r2, r3
 5010 005a 0AD1     		bne	.L424
 5011 005c FB68     		ldr	r3, [r7, #12]
 5012 005e 0422     		movs	r2, #4
 5013 0060 1A77     		strb	r2, [r3, #28]
 5014 0062 7B68     		ldr	r3, [r7, #4]
 5015 0064 DB69     		ldr	r3, [r3, #28]
 5016 0066 002B     		cmp	r3, #0
 5017 0068 03D1     		bne	.L424
 5018 006a FB68     		ldr	r3, [r7, #12]
 5019 006c 0122     		movs	r2, #1
 5020 006e 83F84620 		strb	r2, [r3, #70]
 5021              	.L424:
 5022 0072 F868     		ldr	r0, [r7, #12]
 5023 0074 FFF7FEFF 		bl	HAL_TIM_PWM_PulseFinishedCallback
 5024 0078 FB68     		ldr	r3, [r7, #12]
 5025 007a 0022     		movs	r2, #0
 5026 007c 1A77     		strb	r2, [r3, #28]
 5027 007e 00BF     		nop
 5028 0080 1037     		adds	r7, r7, #16
 5029 0082 BD46     		mov	sp, r7
 5030              		@ sp needed
 5031 0084 80BD     		pop	{r7, pc}
 5033              		.section	.text.TIM_DMAErrorCCxN,"ax",%progbits
 5034              		.align	1
 5035              		.syntax unified
 5036              		.thumb
 5037              		.thumb_func
 5039              	TIM_DMAErrorCCxN:
 5040              		@ args = 0, pretend = 0, frame = 16
 5041              		@ frame_needed = 1, uses_anonymous_args = 0
 5042 0000 80B5     		push	{r7, lr}
 5043 0002 84B0     		sub	sp, sp, #16
 5044 0004 00AF     		add	r7, sp, #0
ARM GAS  C:\msys64\tmp\ccXaZRRw.s 			page 88


 5045 0006 7860     		str	r0, [r7, #4]
 5046 0008 7B68     		ldr	r3, [r7, #4]
 5047 000a 9B6B     		ldr	r3, [r3, #56]
 5048 000c FB60     		str	r3, [r7, #12]
 5049 000e FB68     		ldr	r3, [r7, #12]
 5050 0010 5B6A     		ldr	r3, [r3, #36]
 5051 0012 7A68     		ldr	r2, [r7, #4]
 5052 0014 9A42     		cmp	r2, r3
 5053 0016 07D1     		bne	.L427
 5054 0018 FB68     		ldr	r3, [r7, #12]
 5055 001a 0122     		movs	r2, #1
 5056 001c 1A77     		strb	r2, [r3, #28]
 5057 001e FB68     		ldr	r3, [r7, #12]
 5058 0020 0122     		movs	r2, #1
 5059 0022 83F84420 		strb	r2, [r3, #68]
 5060 0026 18E0     		b	.L428
 5061              	.L427:
 5062 0028 FB68     		ldr	r3, [r7, #12]
 5063 002a 9B6A     		ldr	r3, [r3, #40]
 5064 002c 7A68     		ldr	r2, [r7, #4]
 5065 002e 9A42     		cmp	r2, r3
 5066 0030 07D1     		bne	.L429
 5067 0032 FB68     		ldr	r3, [r7, #12]
 5068 0034 0222     		movs	r2, #2
 5069 0036 1A77     		strb	r2, [r3, #28]
 5070 0038 FB68     		ldr	r3, [r7, #12]
 5071 003a 0122     		movs	r2, #1
 5072 003c 83F84520 		strb	r2, [r3, #69]
 5073 0040 0BE0     		b	.L428
 5074              	.L429:
 5075 0042 FB68     		ldr	r3, [r7, #12]
 5076 0044 DB6A     		ldr	r3, [r3, #44]
 5077 0046 7A68     		ldr	r2, [r7, #4]
 5078 0048 9A42     		cmp	r2, r3
 5079 004a 06D1     		bne	.L428
 5080 004c FB68     		ldr	r3, [r7, #12]
 5081 004e 0422     		movs	r2, #4
 5082 0050 1A77     		strb	r2, [r3, #28]
 5083 0052 FB68     		ldr	r3, [r7, #12]
 5084 0054 0122     		movs	r2, #1
 5085 0056 83F84620 		strb	r2, [r3, #70]
 5086              	.L428:
 5087 005a F868     		ldr	r0, [r7, #12]
 5088 005c FFF7FEFF 		bl	HAL_TIM_ErrorCallback
 5089 0060 FB68     		ldr	r3, [r7, #12]
 5090 0062 0022     		movs	r2, #0
 5091 0064 1A77     		strb	r2, [r3, #28]
 5092 0066 00BF     		nop
 5093 0068 1037     		adds	r7, r7, #16
 5094 006a BD46     		mov	sp, r7
 5095              		@ sp needed
 5096 006c 80BD     		pop	{r7, pc}
 5098              		.section	.text.TIM_CCxNChannelCmd,"ax",%progbits
 5099              		.align	1
 5100              		.syntax unified
 5101              		.thumb
 5102              		.thumb_func
ARM GAS  C:\msys64\tmp\ccXaZRRw.s 			page 89


 5104              	TIM_CCxNChannelCmd:
 5105              		@ args = 0, pretend = 0, frame = 24
 5106              		@ frame_needed = 1, uses_anonymous_args = 0
 5107              		@ link register save eliminated.
 5108 0000 80B4     		push	{r7}
 5109 0002 87B0     		sub	sp, sp, #28
 5110 0004 00AF     		add	r7, sp, #0
 5111 0006 F860     		str	r0, [r7, #12]
 5112 0008 B960     		str	r1, [r7, #8]
 5113 000a 7A60     		str	r2, [r7, #4]
 5114 000c BB68     		ldr	r3, [r7, #8]
 5115 000e 03F00F03 		and	r3, r3, #15
 5116 0012 0422     		movs	r2, #4
 5117 0014 02FA03F3 		lsl	r3, r2, r3
 5118 0018 7B61     		str	r3, [r7, #20]
 5119 001a FB68     		ldr	r3, [r7, #12]
 5120 001c 1A6A     		ldr	r2, [r3, #32]
 5121 001e 7B69     		ldr	r3, [r7, #20]
 5122 0020 DB43     		mvns	r3, r3
 5123 0022 1A40     		ands	r2, r2, r3
 5124 0024 FB68     		ldr	r3, [r7, #12]
 5125 0026 1A62     		str	r2, [r3, #32]
 5126 0028 FB68     		ldr	r3, [r7, #12]
 5127 002a 1A6A     		ldr	r2, [r3, #32]
 5128 002c BB68     		ldr	r3, [r7, #8]
 5129 002e 03F00F03 		and	r3, r3, #15
 5130 0032 7968     		ldr	r1, [r7, #4]
 5131 0034 01FA03F3 		lsl	r3, r1, r3
 5132 0038 1A43     		orrs	r2, r2, r3
 5133 003a FB68     		ldr	r3, [r7, #12]
 5134 003c 1A62     		str	r2, [r3, #32]
 5135 003e 00BF     		nop
 5136 0040 1C37     		adds	r7, r7, #28
 5137 0042 BD46     		mov	sp, r7
 5138              		@ sp needed
 5139 0044 5DF8047B 		ldr	r7, [sp], #4
 5140 0048 7047     		bx	lr
 5142              		.ident	"GCC: (GNU) 13.3.0"
ARM GAS  C:\msys64\tmp\ccXaZRRw.s 			page 90

