ARM GAS  C:\msys64\tmp\cchZLncl.s 			page 1


   1              		.cpu cortex-m7
   2              		.arch armv7e-m
   3              		.fpu fpv5-sp-d16
   4              		.eabi_attribute 27, 1
   5              		.eabi_attribute 28, 1
   6              		.eabi_attribute 20, 1
   7              		.eabi_attribute 21, 1
   8              		.eabi_attribute 23, 3
   9              		.eabi_attribute 24, 1
  10              		.eabi_attribute 25, 1
  11              		.eabi_attribute 26, 1
  12              		.eabi_attribute 30, 6
  13              		.eabi_attribute 34, 1
  14              		.eabi_attribute 18, 4
  15              		.file	"stm32f7xx_hal_uart_ex.c"
  16              		.text
  17              		.section	.text.HAL_RS485Ex_Init,"ax",%progbits
  18              		.align	1
  19              		.global	HAL_RS485Ex_Init
  20              		.syntax unified
  21              		.thumb
  22              		.thumb_func
  24              	HAL_RS485Ex_Init:
  25              		@ args = 0, pretend = 0, frame = 24
  26              		@ frame_needed = 1, uses_anonymous_args = 0
  27 0000 80B5     		push	{r7, lr}
  28 0002 86B0     		sub	sp, sp, #24
  29 0004 00AF     		add	r7, sp, #0
  30 0006 F860     		str	r0, [r7, #12]
  31 0008 B960     		str	r1, [r7, #8]
  32 000a 7A60     		str	r2, [r7, #4]
  33 000c 3B60     		str	r3, [r7]
  34 000e FB68     		ldr	r3, [r7, #12]
  35 0010 002B     		cmp	r3, #0
  36 0012 01D1     		bne	.L2
  37 0014 0123     		movs	r3, #1
  38 0016 54E0     		b	.L3
  39              	.L2:
  40 0018 FB68     		ldr	r3, [r7, #12]
  41 001a DB6F     		ldr	r3, [r3, #124]
  42 001c 002B     		cmp	r3, #0
  43 001e 06D1     		bne	.L4
  44 0020 FB68     		ldr	r3, [r7, #12]
  45 0022 0022     		movs	r2, #0
  46 0024 83F87820 		strb	r2, [r3, #120]
  47 0028 F868     		ldr	r0, [r7, #12]
  48 002a FFF7FEFF 		bl	HAL_UART_MspInit
  49              	.L4:
  50 002e FB68     		ldr	r3, [r7, #12]
  51 0030 2422     		movs	r2, #36
  52 0032 DA67     		str	r2, [r3, #124]
  53 0034 FB68     		ldr	r3, [r7, #12]
  54 0036 1B68     		ldr	r3, [r3]
  55 0038 1A68     		ldr	r2, [r3]
  56 003a FB68     		ldr	r3, [r7, #12]
  57 003c 1B68     		ldr	r3, [r3]
  58 003e 22F00102 		bic	r2, r2, #1
ARM GAS  C:\msys64\tmp\cchZLncl.s 			page 2


  59 0042 1A60     		str	r2, [r3]
  60 0044 FB68     		ldr	r3, [r7, #12]
  61 0046 5B6A     		ldr	r3, [r3, #36]
  62 0048 002B     		cmp	r3, #0
  63 004a 02D0     		beq	.L5
  64 004c F868     		ldr	r0, [r7, #12]
  65 004e FFF7FEFF 		bl	UART_AdvFeatureConfig
  66              	.L5:
  67 0052 F868     		ldr	r0, [r7, #12]
  68 0054 FFF7FEFF 		bl	UART_SetConfig
  69 0058 0346     		mov	r3, r0
  70 005a 012B     		cmp	r3, #1
  71 005c 01D1     		bne	.L6
  72 005e 0123     		movs	r3, #1
  73 0060 2FE0     		b	.L3
  74              	.L6:
  75 0062 FB68     		ldr	r3, [r7, #12]
  76 0064 1B68     		ldr	r3, [r3]
  77 0066 9A68     		ldr	r2, [r3, #8]
  78 0068 FB68     		ldr	r3, [r7, #12]
  79 006a 1B68     		ldr	r3, [r3]
  80 006c 42F48042 		orr	r2, r2, #16384
  81 0070 9A60     		str	r2, [r3, #8]
  82 0072 FB68     		ldr	r3, [r7, #12]
  83 0074 1B68     		ldr	r3, [r3]
  84 0076 9B68     		ldr	r3, [r3, #8]
  85 0078 23F40041 		bic	r1, r3, #32768
  86 007c FB68     		ldr	r3, [r7, #12]
  87 007e 1B68     		ldr	r3, [r3]
  88 0080 BA68     		ldr	r2, [r7, #8]
  89 0082 0A43     		orrs	r2, r2, r1
  90 0084 9A60     		str	r2, [r3, #8]
  91 0086 7B68     		ldr	r3, [r7, #4]
  92 0088 5B05     		lsls	r3, r3, #21
  93 008a 7B61     		str	r3, [r7, #20]
  94 008c 3B68     		ldr	r3, [r7]
  95 008e 1B04     		lsls	r3, r3, #16
  96 0090 7A69     		ldr	r2, [r7, #20]
  97 0092 1343     		orrs	r3, r3, r2
  98 0094 7B61     		str	r3, [r7, #20]
  99 0096 FB68     		ldr	r3, [r7, #12]
 100 0098 1B68     		ldr	r3, [r3]
 101 009a 1A68     		ldr	r2, [r3]
 102 009c 0B4B     		ldr	r3, .L7
 103 009e 1340     		ands	r3, r3, r2
 104 00a0 FA68     		ldr	r2, [r7, #12]
 105 00a2 1268     		ldr	r2, [r2]
 106 00a4 7969     		ldr	r1, [r7, #20]
 107 00a6 0B43     		orrs	r3, r3, r1
 108 00a8 1360     		str	r3, [r2]
 109 00aa FB68     		ldr	r3, [r7, #12]
 110 00ac 1B68     		ldr	r3, [r3]
 111 00ae 1A68     		ldr	r2, [r3]
 112 00b0 FB68     		ldr	r3, [r7, #12]
 113 00b2 1B68     		ldr	r3, [r3]
 114 00b4 42F00102 		orr	r2, r2, #1
 115 00b8 1A60     		str	r2, [r3]
ARM GAS  C:\msys64\tmp\cchZLncl.s 			page 3


 116 00ba F868     		ldr	r0, [r7, #12]
 117 00bc FFF7FEFF 		bl	UART_CheckIdleState
 118 00c0 0346     		mov	r3, r0
 119              	.L3:
 120 00c2 1846     		mov	r0, r3
 121 00c4 1837     		adds	r7, r7, #24
 122 00c6 BD46     		mov	sp, r7
 123              		@ sp needed
 124 00c8 80BD     		pop	{r7, pc}
 125              	.L8:
 126 00ca 00BF     		.align	2
 127              	.L7:
 128 00cc FFFF00FC 		.word	-67043329
 130              		.section	.text.HAL_MultiProcessorEx_AddressLength_Set,"ax",%progbits
 131              		.align	1
 132              		.global	HAL_MultiProcessorEx_AddressLength_Set
 133              		.syntax unified
 134              		.thumb
 135              		.thumb_func
 137              	HAL_MultiProcessorEx_AddressLength_Set:
 138              		@ args = 0, pretend = 0, frame = 8
 139              		@ frame_needed = 1, uses_anonymous_args = 0
 140 0000 80B5     		push	{r7, lr}
 141 0002 82B0     		sub	sp, sp, #8
 142 0004 00AF     		add	r7, sp, #0
 143 0006 7860     		str	r0, [r7, #4]
 144 0008 3960     		str	r1, [r7]
 145 000a 7B68     		ldr	r3, [r7, #4]
 146 000c 002B     		cmp	r3, #0
 147 000e 01D1     		bne	.L10
 148 0010 0123     		movs	r3, #1
 149 0012 20E0     		b	.L11
 150              	.L10:
 151 0014 7B68     		ldr	r3, [r7, #4]
 152 0016 2422     		movs	r2, #36
 153 0018 DA67     		str	r2, [r3, #124]
 154 001a 7B68     		ldr	r3, [r7, #4]
 155 001c 1B68     		ldr	r3, [r3]
 156 001e 1A68     		ldr	r2, [r3]
 157 0020 7B68     		ldr	r3, [r7, #4]
 158 0022 1B68     		ldr	r3, [r3]
 159 0024 22F00102 		bic	r2, r2, #1
 160 0028 1A60     		str	r2, [r3]
 161 002a 7B68     		ldr	r3, [r7, #4]
 162 002c 1B68     		ldr	r3, [r3]
 163 002e 5B68     		ldr	r3, [r3, #4]
 164 0030 23F01001 		bic	r1, r3, #16
 165 0034 7B68     		ldr	r3, [r7, #4]
 166 0036 1B68     		ldr	r3, [r3]
 167 0038 3A68     		ldr	r2, [r7]
 168 003a 0A43     		orrs	r2, r2, r1
 169 003c 5A60     		str	r2, [r3, #4]
 170 003e 7B68     		ldr	r3, [r7, #4]
 171 0040 1B68     		ldr	r3, [r3]
 172 0042 1A68     		ldr	r2, [r3]
 173 0044 7B68     		ldr	r3, [r7, #4]
 174 0046 1B68     		ldr	r3, [r3]
ARM GAS  C:\msys64\tmp\cchZLncl.s 			page 4


 175 0048 42F00102 		orr	r2, r2, #1
 176 004c 1A60     		str	r2, [r3]
 177 004e 7868     		ldr	r0, [r7, #4]
 178 0050 FFF7FEFF 		bl	UART_CheckIdleState
 179 0054 0346     		mov	r3, r0
 180              	.L11:
 181 0056 1846     		mov	r0, r3
 182 0058 0837     		adds	r7, r7, #8
 183 005a BD46     		mov	sp, r7
 184              		@ sp needed
 185 005c 80BD     		pop	{r7, pc}
 187              		.section	.text.HAL_UARTEx_ReceiveToIdle,"ax",%progbits
 188              		.align	1
 189              		.global	HAL_UARTEx_ReceiveToIdle
 190              		.syntax unified
 191              		.thumb
 192              		.thumb_func
 194              	HAL_UARTEx_ReceiveToIdle:
 195              		@ args = 4, pretend = 0, frame = 32
 196              		@ frame_needed = 1, uses_anonymous_args = 0
 197 0000 80B5     		push	{r7, lr}
 198 0002 88B0     		sub	sp, sp, #32
 199 0004 00AF     		add	r7, sp, #0
 200 0006 F860     		str	r0, [r7, #12]
 201 0008 B960     		str	r1, [r7, #8]
 202 000a 3B60     		str	r3, [r7]
 203 000c 1346     		mov	r3, r2	@ movhi
 204 000e FB80     		strh	r3, [r7, #6]	@ movhi
 205 0010 FB68     		ldr	r3, [r7, #12]
 206 0012 D3F88030 		ldr	r3, [r3, #128]
 207 0016 202B     		cmp	r3, #32
 208 0018 40F0EF80 		bne	.L13
 209 001c BB68     		ldr	r3, [r7, #8]
 210 001e 002B     		cmp	r3, #0
 211 0020 02D0     		beq	.L14
 212 0022 FB88     		ldrh	r3, [r7, #6]
 213 0024 002B     		cmp	r3, #0
 214 0026 01D1     		bne	.L15
 215              	.L14:
 216 0028 0123     		movs	r3, #1
 217 002a E7E0     		b	.L16
 218              	.L15:
 219 002c FB68     		ldr	r3, [r7, #12]
 220 002e 0022     		movs	r2, #0
 221 0030 C3F88420 		str	r2, [r3, #132]
 222 0034 FB68     		ldr	r3, [r7, #12]
 223 0036 2222     		movs	r2, #34
 224 0038 C3F88020 		str	r2, [r3, #128]
 225 003c FB68     		ldr	r3, [r7, #12]
 226 003e 0122     		movs	r2, #1
 227 0040 1A66     		str	r2, [r3, #96]
 228 0042 FB68     		ldr	r3, [r7, #12]
 229 0044 0022     		movs	r2, #0
 230 0046 5A66     		str	r2, [r3, #100]
 231 0048 FFF7FEFF 		bl	HAL_GetTick
 232 004c 7861     		str	r0, [r7, #20]
 233 004e FB68     		ldr	r3, [r7, #12]
ARM GAS  C:\msys64\tmp\cchZLncl.s 			page 5


 234 0050 FA88     		ldrh	r2, [r7, #6]	@ movhi
 235 0052 A3F85820 		strh	r2, [r3, #88]	@ movhi
 236 0056 FB68     		ldr	r3, [r7, #12]
 237 0058 FA88     		ldrh	r2, [r7, #6]	@ movhi
 238 005a A3F85A20 		strh	r2, [r3, #90]	@ movhi
 239 005e FB68     		ldr	r3, [r7, #12]
 240 0060 9B68     		ldr	r3, [r3, #8]
 241 0062 B3F5805F 		cmp	r3, #4096
 242 0066 0ED1     		bne	.L17
 243 0068 FB68     		ldr	r3, [r7, #12]
 244 006a 1B69     		ldr	r3, [r3, #16]
 245 006c 002B     		cmp	r3, #0
 246 006e 05D1     		bne	.L18
 247 0070 FB68     		ldr	r3, [r7, #12]
 248 0072 40F2FF12 		movw	r2, #511
 249 0076 A3F85C20 		strh	r2, [r3, #92]	@ movhi
 250 007a 2DE0     		b	.L19
 251              	.L18:
 252 007c FB68     		ldr	r3, [r7, #12]
 253 007e FF22     		movs	r2, #255
 254 0080 A3F85C20 		strh	r2, [r3, #92]	@ movhi
 255 0084 28E0     		b	.L19
 256              	.L17:
 257 0086 FB68     		ldr	r3, [r7, #12]
 258 0088 9B68     		ldr	r3, [r3, #8]
 259 008a 002B     		cmp	r3, #0
 260 008c 0DD1     		bne	.L20
 261 008e FB68     		ldr	r3, [r7, #12]
 262 0090 1B69     		ldr	r3, [r3, #16]
 263 0092 002B     		cmp	r3, #0
 264 0094 04D1     		bne	.L21
 265 0096 FB68     		ldr	r3, [r7, #12]
 266 0098 FF22     		movs	r2, #255
 267 009a A3F85C20 		strh	r2, [r3, #92]	@ movhi
 268 009e 1BE0     		b	.L19
 269              	.L21:
 270 00a0 FB68     		ldr	r3, [r7, #12]
 271 00a2 7F22     		movs	r2, #127
 272 00a4 A3F85C20 		strh	r2, [r3, #92]	@ movhi
 273 00a8 16E0     		b	.L19
 274              	.L20:
 275 00aa FB68     		ldr	r3, [r7, #12]
 276 00ac 9B68     		ldr	r3, [r3, #8]
 277 00ae B3F1805F 		cmp	r3, #268435456
 278 00b2 0DD1     		bne	.L22
 279 00b4 FB68     		ldr	r3, [r7, #12]
 280 00b6 1B69     		ldr	r3, [r3, #16]
 281 00b8 002B     		cmp	r3, #0
 282 00ba 04D1     		bne	.L23
 283 00bc FB68     		ldr	r3, [r7, #12]
 284 00be 7F22     		movs	r2, #127
 285 00c0 A3F85C20 		strh	r2, [r3, #92]	@ movhi
 286 00c4 08E0     		b	.L19
 287              	.L23:
 288 00c6 FB68     		ldr	r3, [r7, #12]
 289 00c8 3F22     		movs	r2, #63
 290 00ca A3F85C20 		strh	r2, [r3, #92]	@ movhi
ARM GAS  C:\msys64\tmp\cchZLncl.s 			page 6


 291 00ce 03E0     		b	.L19
 292              	.L22:
 293 00d0 FB68     		ldr	r3, [r7, #12]
 294 00d2 0022     		movs	r2, #0
 295 00d4 A3F85C20 		strh	r2, [r3, #92]	@ movhi
 296              	.L19:
 297 00d8 FB68     		ldr	r3, [r7, #12]
 298 00da B3F85C30 		ldrh	r3, [r3, #92]	@ movhi
 299 00de 7B82     		strh	r3, [r7, #18]	@ movhi
 300 00e0 FB68     		ldr	r3, [r7, #12]
 301 00e2 9B68     		ldr	r3, [r3, #8]
 302 00e4 B3F5805F 		cmp	r3, #4096
 303 00e8 08D1     		bne	.L24
 304 00ea FB68     		ldr	r3, [r7, #12]
 305 00ec 1B69     		ldr	r3, [r3, #16]
 306 00ee 002B     		cmp	r3, #0
 307 00f0 04D1     		bne	.L24
 308 00f2 0023     		movs	r3, #0
 309 00f4 FB61     		str	r3, [r7, #28]
 310 00f6 BB68     		ldr	r3, [r7, #8]
 311 00f8 BB61     		str	r3, [r7, #24]
 312 00fa 03E0     		b	.L25
 313              	.L24:
 314 00fc BB68     		ldr	r3, [r7, #8]
 315 00fe FB61     		str	r3, [r7, #28]
 316 0100 0023     		movs	r3, #0
 317 0102 BB61     		str	r3, [r7, #24]
 318              	.L25:
 319 0104 3B68     		ldr	r3, [r7]
 320 0106 0022     		movs	r2, #0
 321 0108 1A80     		strh	r2, [r3]	@ movhi
 322 010a 5FE0     		b	.L26
 323              	.L33:
 324 010c FB68     		ldr	r3, [r7, #12]
 325 010e 1B68     		ldr	r3, [r3]
 326 0110 DB69     		ldr	r3, [r3, #28]
 327 0112 03F01003 		and	r3, r3, #16
 328 0116 102B     		cmp	r3, #16
 329 0118 10D1     		bne	.L27
 330 011a FB68     		ldr	r3, [r7, #12]
 331 011c 1B68     		ldr	r3, [r3]
 332 011e 1022     		movs	r2, #16
 333 0120 1A62     		str	r2, [r3, #32]
 334 0122 3B68     		ldr	r3, [r7]
 335 0124 1B88     		ldrh	r3, [r3]
 336 0126 002B     		cmp	r3, #0
 337 0128 08D0     		beq	.L27
 338 012a FB68     		ldr	r3, [r7, #12]
 339 012c 0222     		movs	r2, #2
 340 012e 5A66     		str	r2, [r3, #100]
 341 0130 FB68     		ldr	r3, [r7, #12]
 342 0132 2022     		movs	r2, #32
 343 0134 C3F88020 		str	r2, [r3, #128]
 344 0138 0023     		movs	r3, #0
 345 013a 5FE0     		b	.L16
 346              	.L27:
 347 013c FB68     		ldr	r3, [r7, #12]
ARM GAS  C:\msys64\tmp\cchZLncl.s 			page 7


 348 013e 1B68     		ldr	r3, [r3]
 349 0140 DB69     		ldr	r3, [r3, #28]
 350 0142 03F02003 		and	r3, r3, #32
 351 0146 202B     		cmp	r3, #32
 352 0148 2BD1     		bne	.L28
 353 014a FB69     		ldr	r3, [r7, #28]
 354 014c 002B     		cmp	r3, #0
 355 014e 0CD1     		bne	.L29
 356 0150 FB68     		ldr	r3, [r7, #12]
 357 0152 1B68     		ldr	r3, [r3]
 358 0154 5B6A     		ldr	r3, [r3, #36]
 359 0156 9AB2     		uxth	r2, r3
 360 0158 7B8A     		ldrh	r3, [r7, #18]	@ movhi
 361 015a 1340     		ands	r3, r3, r2
 362 015c 9AB2     		uxth	r2, r3
 363 015e BB69     		ldr	r3, [r7, #24]
 364 0160 1A80     		strh	r2, [r3]	@ movhi
 365 0162 BB69     		ldr	r3, [r7, #24]
 366 0164 0233     		adds	r3, r3, #2
 367 0166 BB61     		str	r3, [r7, #24]
 368 0168 0CE0     		b	.L30
 369              	.L29:
 370 016a FB68     		ldr	r3, [r7, #12]
 371 016c 1B68     		ldr	r3, [r3]
 372 016e 5B6A     		ldr	r3, [r3, #36]
 373 0170 DAB2     		uxtb	r2, r3
 374 0172 7B8A     		ldrh	r3, [r7, #18]	@ movhi
 375 0174 DBB2     		uxtb	r3, r3
 376 0176 1340     		ands	r3, r3, r2
 377 0178 DAB2     		uxtb	r2, r3
 378 017a FB69     		ldr	r3, [r7, #28]
 379 017c 1A70     		strb	r2, [r3]
 380 017e FB69     		ldr	r3, [r7, #28]
 381 0180 0133     		adds	r3, r3, #1
 382 0182 FB61     		str	r3, [r7, #28]
 383              	.L30:
 384 0184 3B68     		ldr	r3, [r7]
 385 0186 1B88     		ldrh	r3, [r3]
 386 0188 0133     		adds	r3, r3, #1
 387 018a 9AB2     		uxth	r2, r3
 388 018c 3B68     		ldr	r3, [r7]
 389 018e 1A80     		strh	r2, [r3]	@ movhi
 390 0190 FB68     		ldr	r3, [r7, #12]
 391 0192 B3F85A30 		ldrh	r3, [r3, #90]	@ movhi
 392 0196 9BB2     		uxth	r3, r3
 393 0198 013B     		subs	r3, r3, #1
 394 019a 9AB2     		uxth	r2, r3
 395 019c FB68     		ldr	r3, [r7, #12]
 396 019e A3F85A20 		strh	r2, [r3, #90]	@ movhi
 397              	.L28:
 398 01a2 BB6A     		ldr	r3, [r7, #40]
 399 01a4 B3F1FF3F 		cmp	r3, #-1
 400 01a8 10D0     		beq	.L26
 401 01aa FFF7FEFF 		bl	HAL_GetTick
 402 01ae 0246     		mov	r2, r0
 403 01b0 7B69     		ldr	r3, [r7, #20]
 404 01b2 D31A     		subs	r3, r2, r3
ARM GAS  C:\msys64\tmp\cchZLncl.s 			page 8


 405 01b4 BA6A     		ldr	r2, [r7, #40]
 406 01b6 9A42     		cmp	r2, r3
 407 01b8 02D3     		bcc	.L32
 408 01ba BB6A     		ldr	r3, [r7, #40]
 409 01bc 002B     		cmp	r3, #0
 410 01be 05D1     		bne	.L26
 411              	.L32:
 412 01c0 FB68     		ldr	r3, [r7, #12]
 413 01c2 2022     		movs	r2, #32
 414 01c4 C3F88020 		str	r2, [r3, #128]
 415 01c8 0323     		movs	r3, #3
 416 01ca 17E0     		b	.L16
 417              	.L26:
 418 01cc FB68     		ldr	r3, [r7, #12]
 419 01ce B3F85A30 		ldrh	r3, [r3, #90]	@ movhi
 420 01d2 9BB2     		uxth	r3, r3
 421 01d4 002B     		cmp	r3, #0
 422 01d6 99D1     		bne	.L33
 423 01d8 FB68     		ldr	r3, [r7, #12]
 424 01da B3F85820 		ldrh	r2, [r3, #88]
 425 01de FB68     		ldr	r3, [r7, #12]
 426 01e0 B3F85A30 		ldrh	r3, [r3, #90]	@ movhi
 427 01e4 9BB2     		uxth	r3, r3
 428 01e6 D31A     		subs	r3, r2, r3
 429 01e8 9AB2     		uxth	r2, r3
 430 01ea 3B68     		ldr	r3, [r7]
 431 01ec 1A80     		strh	r2, [r3]	@ movhi
 432 01ee FB68     		ldr	r3, [r7, #12]
 433 01f0 2022     		movs	r2, #32
 434 01f2 C3F88020 		str	r2, [r3, #128]
 435 01f6 0023     		movs	r3, #0
 436 01f8 00E0     		b	.L16
 437              	.L13:
 438 01fa 0223     		movs	r3, #2
 439              	.L16:
 440 01fc 1846     		mov	r0, r3
 441 01fe 2037     		adds	r7, r7, #32
 442 0200 BD46     		mov	sp, r7
 443              		@ sp needed
 444 0202 80BD     		pop	{r7, pc}
 446              		.section	.text.HAL_UARTEx_ReceiveToIdle_IT,"ax",%progbits
 447              		.align	1
 448              		.global	HAL_UARTEx_ReceiveToIdle_IT
 449              		.syntax unified
 450              		.thumb
 451              		.thumb_func
 453              	HAL_UARTEx_ReceiveToIdle_IT:
 454              		@ args = 0, pretend = 0, frame = 48
 455              		@ frame_needed = 1, uses_anonymous_args = 0
 456 0000 80B5     		push	{r7, lr}
 457 0002 8CB0     		sub	sp, sp, #48
 458 0004 00AF     		add	r7, sp, #0
 459 0006 F860     		str	r0, [r7, #12]
 460 0008 B960     		str	r1, [r7, #8]
 461 000a 1346     		mov	r3, r2
 462 000c FB80     		strh	r3, [r7, #6]	@ movhi
 463 000e 0023     		movs	r3, #0
ARM GAS  C:\msys64\tmp\cchZLncl.s 			page 9


 464 0010 87F82F30 		strb	r3, [r7, #47]
 465 0014 FB68     		ldr	r3, [r7, #12]
 466 0016 D3F88030 		ldr	r3, [r3, #128]
 467 001a 202B     		cmp	r3, #32
 468 001c 3BD1     		bne	.L35
 469 001e BB68     		ldr	r3, [r7, #8]
 470 0020 002B     		cmp	r3, #0
 471 0022 02D0     		beq	.L36
 472 0024 FB88     		ldrh	r3, [r7, #6]
 473 0026 002B     		cmp	r3, #0
 474 0028 01D1     		bne	.L37
 475              	.L36:
 476 002a 0123     		movs	r3, #1
 477 002c 34E0     		b	.L38
 478              	.L37:
 479 002e FB68     		ldr	r3, [r7, #12]
 480 0030 0122     		movs	r2, #1
 481 0032 1A66     		str	r2, [r3, #96]
 482 0034 FB68     		ldr	r3, [r7, #12]
 483 0036 0022     		movs	r2, #0
 484 0038 5A66     		str	r2, [r3, #100]
 485 003a FB88     		ldrh	r3, [r7, #6]
 486 003c 1A46     		mov	r2, r3
 487 003e B968     		ldr	r1, [r7, #8]
 488 0040 F868     		ldr	r0, [r7, #12]
 489 0042 FFF7FEFF 		bl	UART_Start_Receive_IT
 490 0046 FB68     		ldr	r3, [r7, #12]
 491 0048 1B6E     		ldr	r3, [r3, #96]
 492 004a 012B     		cmp	r3, #1
 493 004c 1DD1     		bne	.L39
 494 004e FB68     		ldr	r3, [r7, #12]
 495 0050 1B68     		ldr	r3, [r3]
 496 0052 1022     		movs	r2, #16
 497 0054 1A62     		str	r2, [r3, #32]
 498              	.L42:
 499 0056 FB68     		ldr	r3, [r7, #12]
 500 0058 1B68     		ldr	r3, [r3]
 501 005a BB61     		str	r3, [r7, #24]
 502 005c BB69     		ldr	r3, [r7, #24]
 503              		.syntax unified
 504              	@ 1072 "cmsis/core/cmsis_gcc.h" 1
 505 005e 53E8003F 		ldrex r3, [r3]
 506              	@ 0 "" 2
 507              		.thumb
 508              		.syntax unified
 509 0062 7B61     		str	r3, [r7, #20]
 510 0064 7B69     		ldr	r3, [r7, #20]
 511 0066 43F01003 		orr	r3, r3, #16
 512 006a BB62     		str	r3, [r7, #40]
 513 006c FB68     		ldr	r3, [r7, #12]
 514 006e 1B68     		ldr	r3, [r3]
 515 0070 1A46     		mov	r2, r3
 516 0072 BB6A     		ldr	r3, [r7, #40]
 517 0074 7B62     		str	r3, [r7, #36]
 518 0076 3A62     		str	r2, [r7, #32]
 519 0078 396A     		ldr	r1, [r7, #32]
 520 007a 7A6A     		ldr	r2, [r7, #36]
ARM GAS  C:\msys64\tmp\cchZLncl.s 			page 10


 521              		.syntax unified
 522              	@ 1123 "cmsis/core/cmsis_gcc.h" 1
 523 007c 41E80023 		strex r3, r2, [r1]
 524              	@ 0 "" 2
 525              		.thumb
 526              		.syntax unified
 527 0080 FB61     		str	r3, [r7, #28]
 528 0082 FB69     		ldr	r3, [r7, #28]
 529 0084 002B     		cmp	r3, #0
 530 0086 E6D1     		bne	.L42
 531 0088 02E0     		b	.L43
 532              	.L39:
 533 008a 0123     		movs	r3, #1
 534 008c 87F82F30 		strb	r3, [r7, #47]
 535              	.L43:
 536 0090 97F82F30 		ldrb	r3, [r7, #47]	@ zero_extendqisi2
 537 0094 00E0     		b	.L38
 538              	.L35:
 539 0096 0223     		movs	r3, #2
 540              	.L38:
 541 0098 1846     		mov	r0, r3
 542 009a 3037     		adds	r7, r7, #48
 543 009c BD46     		mov	sp, r7
 544              		@ sp needed
 545 009e 80BD     		pop	{r7, pc}
 547              		.section	.text.HAL_UARTEx_ReceiveToIdle_DMA,"ax",%progbits
 548              		.align	1
 549              		.global	HAL_UARTEx_ReceiveToIdle_DMA
 550              		.syntax unified
 551              		.thumb
 552              		.thumb_func
 554              	HAL_UARTEx_ReceiveToIdle_DMA:
 555              		@ args = 0, pretend = 0, frame = 48
 556              		@ frame_needed = 1, uses_anonymous_args = 0
 557 0000 80B5     		push	{r7, lr}
 558 0002 8CB0     		sub	sp, sp, #48
 559 0004 00AF     		add	r7, sp, #0
 560 0006 F860     		str	r0, [r7, #12]
 561 0008 B960     		str	r1, [r7, #8]
 562 000a 1346     		mov	r3, r2
 563 000c FB80     		strh	r3, [r7, #6]	@ movhi
 564 000e FB68     		ldr	r3, [r7, #12]
 565 0010 D3F88030 		ldr	r3, [r3, #128]
 566 0014 202B     		cmp	r3, #32
 567 0016 42D1     		bne	.L45
 568 0018 BB68     		ldr	r3, [r7, #8]
 569 001a 002B     		cmp	r3, #0
 570 001c 02D0     		beq	.L46
 571 001e FB88     		ldrh	r3, [r7, #6]
 572 0020 002B     		cmp	r3, #0
 573 0022 01D1     		bne	.L47
 574              	.L46:
 575 0024 0123     		movs	r3, #1
 576 0026 3BE0     		b	.L48
 577              	.L47:
 578 0028 FB68     		ldr	r3, [r7, #12]
 579 002a 0122     		movs	r2, #1
ARM GAS  C:\msys64\tmp\cchZLncl.s 			page 11


 580 002c 1A66     		str	r2, [r3, #96]
 581 002e FB68     		ldr	r3, [r7, #12]
 582 0030 0022     		movs	r2, #0
 583 0032 5A66     		str	r2, [r3, #100]
 584 0034 FB88     		ldrh	r3, [r7, #6]
 585 0036 1A46     		mov	r2, r3
 586 0038 B968     		ldr	r1, [r7, #8]
 587 003a F868     		ldr	r0, [r7, #12]
 588 003c FFF7FEFF 		bl	UART_Start_Receive_DMA
 589 0040 0346     		mov	r3, r0
 590 0042 87F82F30 		strb	r3, [r7, #47]
 591 0046 97F82F30 		ldrb	r3, [r7, #47]	@ zero_extendqisi2
 592 004a 002B     		cmp	r3, #0
 593 004c 24D1     		bne	.L49
 594 004e FB68     		ldr	r3, [r7, #12]
 595 0050 1B6E     		ldr	r3, [r3, #96]
 596 0052 012B     		cmp	r3, #1
 597 0054 1DD1     		bne	.L50
 598 0056 FB68     		ldr	r3, [r7, #12]
 599 0058 1B68     		ldr	r3, [r3]
 600 005a 1022     		movs	r2, #16
 601 005c 1A62     		str	r2, [r3, #32]
 602              	.L53:
 603 005e FB68     		ldr	r3, [r7, #12]
 604 0060 1B68     		ldr	r3, [r3]
 605 0062 BB61     		str	r3, [r7, #24]
 606 0064 BB69     		ldr	r3, [r7, #24]
 607              		.syntax unified
 608              	@ 1072 "cmsis/core/cmsis_gcc.h" 1
 609 0066 53E8003F 		ldrex r3, [r3]
 610              	@ 0 "" 2
 611              		.thumb
 612              		.syntax unified
 613 006a 7B61     		str	r3, [r7, #20]
 614 006c 7B69     		ldr	r3, [r7, #20]
 615 006e 43F01003 		orr	r3, r3, #16
 616 0072 BB62     		str	r3, [r7, #40]
 617 0074 FB68     		ldr	r3, [r7, #12]
 618 0076 1B68     		ldr	r3, [r3]
 619 0078 1A46     		mov	r2, r3
 620 007a BB6A     		ldr	r3, [r7, #40]
 621 007c 7B62     		str	r3, [r7, #36]
 622 007e 3A62     		str	r2, [r7, #32]
 623 0080 396A     		ldr	r1, [r7, #32]
 624 0082 7A6A     		ldr	r2, [r7, #36]
 625              		.syntax unified
 626              	@ 1123 "cmsis/core/cmsis_gcc.h" 1
 627 0084 41E80023 		strex r3, r2, [r1]
 628              	@ 0 "" 2
 629              		.thumb
 630              		.syntax unified
 631 0088 FB61     		str	r3, [r7, #28]
 632 008a FB69     		ldr	r3, [r7, #28]
 633 008c 002B     		cmp	r3, #0
 634 008e E6D1     		bne	.L53
 635 0090 02E0     		b	.L49
 636              	.L50:
ARM GAS  C:\msys64\tmp\cchZLncl.s 			page 12


 637 0092 0123     		movs	r3, #1
 638 0094 87F82F30 		strb	r3, [r7, #47]
 639              	.L49:
 640 0098 97F82F30 		ldrb	r3, [r7, #47]	@ zero_extendqisi2
 641 009c 00E0     		b	.L48
 642              	.L45:
 643 009e 0223     		movs	r3, #2
 644              	.L48:
 645 00a0 1846     		mov	r0, r3
 646 00a2 3037     		adds	r7, r7, #48
 647 00a4 BD46     		mov	sp, r7
 648              		@ sp needed
 649 00a6 80BD     		pop	{r7, pc}
 651              		.section	.text.HAL_UARTEx_GetRxEventType,"ax",%progbits
 652              		.align	1
 653              		.global	HAL_UARTEx_GetRxEventType
 654              		.syntax unified
 655              		.thumb
 656              		.thumb_func
 658              	HAL_UARTEx_GetRxEventType:
 659              		@ args = 0, pretend = 0, frame = 8
 660              		@ frame_needed = 1, uses_anonymous_args = 0
 661              		@ link register save eliminated.
 662 0000 80B4     		push	{r7}
 663 0002 83B0     		sub	sp, sp, #12
 664 0004 00AF     		add	r7, sp, #0
 665 0006 7860     		str	r0, [r7, #4]
 666 0008 7B68     		ldr	r3, [r7, #4]
 667 000a 5B6E     		ldr	r3, [r3, #100]
 668 000c 1846     		mov	r0, r3
 669 000e 0C37     		adds	r7, r7, #12
 670 0010 BD46     		mov	sp, r7
 671              		@ sp needed
 672 0012 5DF8047B 		ldr	r7, [sp], #4
 673 0016 7047     		bx	lr
 675              		.ident	"GCC: (GNU) 13.3.0"
ARM GAS  C:\msys64\tmp\cchZLncl.s 			page 13

