ARM GAS  C:\msys64\tmp\ccAtyqF0.s 			page 1


   1              		.cpu cortex-m7
   2              		.arch armv7e-m
   3              		.fpu fpv5-sp-d16
   4              		.eabi_attribute 27, 1
   5              		.eabi_attribute 28, 1
   6              		.eabi_attribute 20, 1
   7              		.eabi_attribute 21, 1
   8              		.eabi_attribute 23, 3
   9              		.eabi_attribute 24, 1
  10              		.eabi_attribute 25, 1
  11              		.eabi_attribute 26, 1
  12              		.eabi_attribute 30, 6
  13              		.eabi_attribute 34, 1
  14              		.eabi_attribute 18, 4
  15              		.file	"stm32f7xx_hal_dma_ex.c"
  16              		.text
  17              		.section	.text.HAL_DMAEx_MultiBufferStart,"ax",%progbits
  18              		.align	1
  19              		.global	HAL_DMAEx_MultiBufferStart
  20              		.syntax unified
  21              		.thumb
  22              		.thumb_func
  24              	HAL_DMAEx_MultiBufferStart:
  25              		@ args = 4, pretend = 0, frame = 24
  26              		@ frame_needed = 1, uses_anonymous_args = 0
  27 0000 80B5     		push	{r7, lr}
  28 0002 86B0     		sub	sp, sp, #24
  29 0004 00AF     		add	r7, sp, #0
  30 0006 F860     		str	r0, [r7, #12]
  31 0008 B960     		str	r1, [r7, #8]
  32 000a 7A60     		str	r2, [r7, #4]
  33 000c 3B60     		str	r3, [r7]
  34 000e 0023     		movs	r3, #0
  35 0010 FB75     		strb	r3, [r7, #23]
  36 0012 FB68     		ldr	r3, [r7, #12]
  37 0014 9B68     		ldr	r3, [r3, #8]
  38 0016 802B     		cmp	r3, #128
  39 0018 06D1     		bne	.L2
  40 001a FB68     		ldr	r3, [r7, #12]
  41 001c 4FF48072 		mov	r2, #256
  42 0020 5A65     		str	r2, [r3, #84]
  43 0022 0123     		movs	r3, #1
  44 0024 FB75     		strb	r3, [r7, #23]
  45 0026 31E0     		b	.L3
  46              	.L2:
  47 0028 FB68     		ldr	r3, [r7, #12]
  48 002a 93F83430 		ldrb	r3, [r3, #52]	@ zero_extendqisi2
  49 002e 012B     		cmp	r3, #1
  50 0030 01D1     		bne	.L4
  51 0032 0223     		movs	r3, #2
  52 0034 2BE0     		b	.L5
  53              	.L4:
  54 0036 FB68     		ldr	r3, [r7, #12]
  55 0038 0122     		movs	r2, #1
  56 003a 83F83420 		strb	r2, [r3, #52]
  57 003e FB68     		ldr	r3, [r7, #12]
  58 0040 93F83530 		ldrb	r3, [r3, #53]
ARM GAS  C:\msys64\tmp\ccAtyqF0.s 			page 2


  59 0044 DBB2     		uxtb	r3, r3
  60 0046 012B     		cmp	r3, #1
  61 0048 1ED1     		bne	.L6
  62 004a FB68     		ldr	r3, [r7, #12]
  63 004c 0222     		movs	r2, #2
  64 004e 83F83520 		strb	r2, [r3, #53]
  65 0052 FB68     		ldr	r3, [r7, #12]
  66 0054 1B68     		ldr	r3, [r3]
  67 0056 1A68     		ldr	r2, [r3]
  68 0058 FB68     		ldr	r3, [r7, #12]
  69 005a 1B68     		ldr	r3, [r3]
  70 005c 42F48022 		orr	r2, r2, #262144
  71 0060 1A60     		str	r2, [r3]
  72 0062 FB68     		ldr	r3, [r7, #12]
  73 0064 1B68     		ldr	r3, [r3]
  74 0066 3A68     		ldr	r2, [r7]
  75 0068 1A61     		str	r2, [r3, #16]
  76 006a 3B6A     		ldr	r3, [r7, #32]
  77 006c 7A68     		ldr	r2, [r7, #4]
  78 006e B968     		ldr	r1, [r7, #8]
  79 0070 F868     		ldr	r0, [r7, #12]
  80 0072 FFF7FEFF 		bl	DMA_MultiBufferSetConfig
  81 0076 FB68     		ldr	r3, [r7, #12]
  82 0078 1B68     		ldr	r3, [r3]
  83 007a 1A68     		ldr	r2, [r3]
  84 007c FB68     		ldr	r3, [r7, #12]
  85 007e 1B68     		ldr	r3, [r3]
  86 0080 42F00102 		orr	r2, r2, #1
  87 0084 1A60     		str	r2, [r3]
  88 0086 01E0     		b	.L3
  89              	.L6:
  90 0088 0223     		movs	r3, #2
  91 008a FB75     		strb	r3, [r7, #23]
  92              	.L3:
  93 008c FB7D     		ldrb	r3, [r7, #23]	@ zero_extendqisi2
  94              	.L5:
  95 008e 1846     		mov	r0, r3
  96 0090 1837     		adds	r7, r7, #24
  97 0092 BD46     		mov	sp, r7
  98              		@ sp needed
  99 0094 80BD     		pop	{r7, pc}
 101              		.section	.text.HAL_DMAEx_MultiBufferStart_IT,"ax",%progbits
 102              		.align	1
 103              		.global	HAL_DMAEx_MultiBufferStart_IT
 104              		.syntax unified
 105              		.thumb
 106              		.thumb_func
 108              	HAL_DMAEx_MultiBufferStart_IT:
 109              		@ args = 4, pretend = 0, frame = 24
 110              		@ frame_needed = 1, uses_anonymous_args = 0
 111 0000 80B5     		push	{r7, lr}
 112 0002 86B0     		sub	sp, sp, #24
 113 0004 00AF     		add	r7, sp, #0
 114 0006 F860     		str	r0, [r7, #12]
 115 0008 B960     		str	r1, [r7, #8]
 116 000a 7A60     		str	r2, [r7, #4]
 117 000c 3B60     		str	r3, [r7]
ARM GAS  C:\msys64\tmp\ccAtyqF0.s 			page 3


 118 000e 0023     		movs	r3, #0
 119 0010 FB75     		strb	r3, [r7, #23]
 120 0012 FB68     		ldr	r3, [r7, #12]
 121 0014 9B68     		ldr	r3, [r3, #8]
 122 0016 802B     		cmp	r3, #128
 123 0018 06D1     		bne	.L8
 124 001a FB68     		ldr	r3, [r7, #12]
 125 001c 4FF48072 		mov	r2, #256
 126 0020 5A65     		str	r2, [r3, #84]
 127 0022 0123     		movs	r3, #1
 128 0024 01F0FFB8 		b	.L9
 129              	.L8:
 130 0028 FB68     		ldr	r3, [r7, #12]
 131 002a 93F83430 		ldrb	r3, [r3, #52]	@ zero_extendqisi2
 132 002e 012B     		cmp	r3, #1
 133 0030 02D1     		bne	.L10
 134 0032 0223     		movs	r3, #2
 135 0034 01F0F7B8 		b	.L9
 136              	.L10:
 137 0038 FB68     		ldr	r3, [r7, #12]
 138 003a 0122     		movs	r2, #1
 139 003c 83F83420 		strb	r2, [r3, #52]
 140 0040 FB68     		ldr	r3, [r7, #12]
 141 0042 93F83530 		ldrb	r3, [r3, #53]
 142 0046 DBB2     		uxtb	r3, r3
 143 0048 012B     		cmp	r3, #1
 144 004a 41F0E580 		bne	.L11
 145 004e FB68     		ldr	r3, [r7, #12]
 146 0050 0222     		movs	r2, #2
 147 0052 83F83520 		strb	r2, [r3, #53]
 148 0056 FB68     		ldr	r3, [r7, #12]
 149 0058 0022     		movs	r2, #0
 150 005a 5A65     		str	r2, [r3, #84]
 151 005c FB68     		ldr	r3, [r7, #12]
 152 005e 1B68     		ldr	r3, [r3]
 153 0060 1A68     		ldr	r2, [r3]
 154 0062 FB68     		ldr	r3, [r7, #12]
 155 0064 1B68     		ldr	r3, [r3]
 156 0066 42F48022 		orr	r2, r2, #262144
 157 006a 1A60     		str	r2, [r3]
 158 006c FB68     		ldr	r3, [r7, #12]
 159 006e 1B68     		ldr	r3, [r3]
 160 0070 3A68     		ldr	r2, [r7]
 161 0072 1A61     		str	r2, [r3, #16]
 162 0074 3B6A     		ldr	r3, [r7, #32]
 163 0076 7A68     		ldr	r2, [r7, #4]
 164 0078 B968     		ldr	r1, [r7, #8]
 165 007a F868     		ldr	r0, [r7, #12]
 166 007c FFF7FEFF 		bl	DMA_MultiBufferSetConfig
 167 0080 FB68     		ldr	r3, [r7, #12]
 168 0082 1B68     		ldr	r3, [r3]
 169 0084 1A46     		mov	r2, r3
 170 0086 8D4B     		ldr	r3, .L525
 171 0088 9A42     		cmp	r2, r3
 172 008a 60D9     		bls	.L12
 173 008c FB68     		ldr	r3, [r7, #12]
 174 008e 1B68     		ldr	r3, [r3]
ARM GAS  C:\msys64\tmp\ccAtyqF0.s 			page 4


 175 0090 8B4A     		ldr	r2, .L525+4
 176 0092 9342     		cmp	r3, r2
 177 0094 57D0     		beq	.L13
 178 0096 FB68     		ldr	r3, [r7, #12]
 179 0098 1B68     		ldr	r3, [r3]
 180 009a 8A4A     		ldr	r2, .L525+8
 181 009c 9342     		cmp	r3, r2
 182 009e 50D0     		beq	.L14
 183 00a0 FB68     		ldr	r3, [r7, #12]
 184 00a2 1B68     		ldr	r3, [r3]
 185 00a4 884A     		ldr	r2, .L525+12
 186 00a6 9342     		cmp	r3, r2
 187 00a8 49D0     		beq	.L15
 188 00aa FB68     		ldr	r3, [r7, #12]
 189 00ac 1B68     		ldr	r3, [r3]
 190 00ae 874A     		ldr	r2, .L525+16
 191 00b0 9342     		cmp	r3, r2
 192 00b2 42D0     		beq	.L16
 193 00b4 FB68     		ldr	r3, [r7, #12]
 194 00b6 1B68     		ldr	r3, [r3]
 195 00b8 854A     		ldr	r2, .L525+20
 196 00ba 9342     		cmp	r3, r2
 197 00bc 3AD0     		beq	.L17
 198 00be FB68     		ldr	r3, [r7, #12]
 199 00c0 1B68     		ldr	r3, [r3]
 200 00c2 844A     		ldr	r2, .L525+24
 201 00c4 9342     		cmp	r3, r2
 202 00c6 32D0     		beq	.L18
 203 00c8 FB68     		ldr	r3, [r7, #12]
 204 00ca 1B68     		ldr	r3, [r3]
 205 00cc 824A     		ldr	r2, .L525+28
 206 00ce 9342     		cmp	r3, r2
 207 00d0 2AD0     		beq	.L19
 208 00d2 FB68     		ldr	r3, [r7, #12]
 209 00d4 1B68     		ldr	r3, [r3]
 210 00d6 814A     		ldr	r2, .L525+32
 211 00d8 9342     		cmp	r3, r2
 212 00da 22D0     		beq	.L20
 213 00dc FB68     		ldr	r3, [r7, #12]
 214 00de 1B68     		ldr	r3, [r3]
 215 00e0 7F4A     		ldr	r2, .L525+36
 216 00e2 9342     		cmp	r3, r2
 217 00e4 1AD0     		beq	.L21
 218 00e6 FB68     		ldr	r3, [r7, #12]
 219 00e8 1B68     		ldr	r3, [r3]
 220 00ea 7E4A     		ldr	r2, .L525+40
 221 00ec 9342     		cmp	r3, r2
 222 00ee 12D0     		beq	.L22
 223 00f0 FB68     		ldr	r3, [r7, #12]
 224 00f2 1B68     		ldr	r3, [r3]
 225 00f4 7C4A     		ldr	r2, .L525+44
 226 00f6 9342     		cmp	r3, r2
 227 00f8 0AD0     		beq	.L23
 228 00fa FB68     		ldr	r3, [r7, #12]
 229 00fc 1B68     		ldr	r3, [r3]
 230 00fe 7B4A     		ldr	r2, .L525+48
 231 0100 9342     		cmp	r3, r2
ARM GAS  C:\msys64\tmp\ccAtyqF0.s 			page 5


 232 0102 02D1     		bne	.L24
 233 0104 4FF40013 		mov	r3, #2097152
 234 0108 1EE0     		b	.L36
 235              	.L24:
 236 010a 4FF00063 		mov	r3, #134217728
 237 010e 1BE0     		b	.L36
 238              	.L23:
 239 0110 4FF40013 		mov	r3, #2097152
 240 0114 18E0     		b	.L36
 241              	.L22:
 242 0116 4FF40013 		mov	r3, #2097152
 243 011a 15E0     		b	.L36
 244              	.L21:
 245 011c 4FF40013 		mov	r3, #2097152
 246 0120 12E0     		b	.L36
 247              	.L20:
 248 0122 4FF40063 		mov	r3, #2048
 249 0126 0FE0     		b	.L36
 250              	.L19:
 251 0128 4FF40063 		mov	r3, #2048
 252 012c 0CE0     		b	.L36
 253              	.L18:
 254 012e 4FF40063 		mov	r3, #2048
 255 0132 09E0     		b	.L36
 256              	.L17:
 257 0134 4FF40063 		mov	r3, #2048
 258 0138 06E0     		b	.L36
 259              	.L16:
 260 013a 2023     		movs	r3, #32
 261 013c 04E0     		b	.L36
 262              	.L15:
 263 013e 2023     		movs	r3, #32
 264 0140 02E0     		b	.L36
 265              	.L14:
 266 0142 2023     		movs	r3, #32
 267 0144 00E0     		b	.L36
 268              	.L13:
 269 0146 2023     		movs	r3, #32
 270              	.L36:
 271 0148 694A     		ldr	r2, .L525+52
 272 014a D360     		str	r3, [r2, #12]
 273 014c 4FE1     		b	.L37
 274              	.L12:
 275 014e FB68     		ldr	r3, [r7, #12]
 276 0150 1B68     		ldr	r3, [r3]
 277 0152 1A46     		mov	r2, r3
 278 0154 674B     		ldr	r3, .L525+56
 279 0156 9A42     		cmp	r2, r3
 280 0158 60D9     		bls	.L38
 281 015a FB68     		ldr	r3, [r7, #12]
 282 015c 1B68     		ldr	r3, [r3]
 283 015e 584A     		ldr	r2, .L525+4
 284 0160 9342     		cmp	r3, r2
 285 0162 57D0     		beq	.L39
 286 0164 FB68     		ldr	r3, [r7, #12]
 287 0166 1B68     		ldr	r3, [r3]
 288 0168 564A     		ldr	r2, .L525+8
ARM GAS  C:\msys64\tmp\ccAtyqF0.s 			page 6


 289 016a 9342     		cmp	r3, r2
 290 016c 50D0     		beq	.L40
 291 016e FB68     		ldr	r3, [r7, #12]
 292 0170 1B68     		ldr	r3, [r3]
 293 0172 554A     		ldr	r2, .L525+12
 294 0174 9342     		cmp	r3, r2
 295 0176 49D0     		beq	.L41
 296 0178 FB68     		ldr	r3, [r7, #12]
 297 017a 1B68     		ldr	r3, [r3]
 298 017c 534A     		ldr	r2, .L525+16
 299 017e 9342     		cmp	r3, r2
 300 0180 42D0     		beq	.L42
 301 0182 FB68     		ldr	r3, [r7, #12]
 302 0184 1B68     		ldr	r3, [r3]
 303 0186 524A     		ldr	r2, .L525+20
 304 0188 9342     		cmp	r3, r2
 305 018a 3AD0     		beq	.L43
 306 018c FB68     		ldr	r3, [r7, #12]
 307 018e 1B68     		ldr	r3, [r3]
 308 0190 504A     		ldr	r2, .L525+24
 309 0192 9342     		cmp	r3, r2
 310 0194 32D0     		beq	.L44
 311 0196 FB68     		ldr	r3, [r7, #12]
 312 0198 1B68     		ldr	r3, [r3]
 313 019a 4F4A     		ldr	r2, .L525+28
 314 019c 9342     		cmp	r3, r2
 315 019e 2AD0     		beq	.L45
 316 01a0 FB68     		ldr	r3, [r7, #12]
 317 01a2 1B68     		ldr	r3, [r3]
 318 01a4 4D4A     		ldr	r2, .L525+32
 319 01a6 9342     		cmp	r3, r2
 320 01a8 22D0     		beq	.L46
 321 01aa FB68     		ldr	r3, [r7, #12]
 322 01ac 1B68     		ldr	r3, [r3]
 323 01ae 4C4A     		ldr	r2, .L525+36
 324 01b0 9342     		cmp	r3, r2
 325 01b2 1AD0     		beq	.L47
 326 01b4 FB68     		ldr	r3, [r7, #12]
 327 01b6 1B68     		ldr	r3, [r3]
 328 01b8 4A4A     		ldr	r2, .L525+40
 329 01ba 9342     		cmp	r3, r2
 330 01bc 12D0     		beq	.L48
 331 01be FB68     		ldr	r3, [r7, #12]
 332 01c0 1B68     		ldr	r3, [r3]
 333 01c2 494A     		ldr	r2, .L525+44
 334 01c4 9342     		cmp	r3, r2
 335 01c6 0AD0     		beq	.L49
 336 01c8 FB68     		ldr	r3, [r7, #12]
 337 01ca 1B68     		ldr	r3, [r3]
 338 01cc 474A     		ldr	r2, .L525+48
 339 01ce 9342     		cmp	r3, r2
 340 01d0 02D1     		bne	.L50
 341 01d2 4FF40013 		mov	r3, #2097152
 342 01d6 1EE0     		b	.L62
 343              	.L50:
 344 01d8 4FF00063 		mov	r3, #134217728
 345 01dc 1BE0     		b	.L62
ARM GAS  C:\msys64\tmp\ccAtyqF0.s 			page 7


 346              	.L49:
 347 01de 4FF40013 		mov	r3, #2097152
 348 01e2 18E0     		b	.L62
 349              	.L48:
 350 01e4 4FF40013 		mov	r3, #2097152
 351 01e8 15E0     		b	.L62
 352              	.L47:
 353 01ea 4FF40013 		mov	r3, #2097152
 354 01ee 12E0     		b	.L62
 355              	.L46:
 356 01f0 4FF40063 		mov	r3, #2048
 357 01f4 0FE0     		b	.L62
 358              	.L45:
 359 01f6 4FF40063 		mov	r3, #2048
 360 01fa 0CE0     		b	.L62
 361              	.L44:
 362 01fc 4FF40063 		mov	r3, #2048
 363 0200 09E0     		b	.L62
 364              	.L43:
 365 0202 4FF40063 		mov	r3, #2048
 366 0206 06E0     		b	.L62
 367              	.L42:
 368 0208 2023     		movs	r3, #32
 369 020a 04E0     		b	.L62
 370              	.L41:
 371 020c 2023     		movs	r3, #32
 372 020e 02E0     		b	.L62
 373              	.L40:
 374 0210 2023     		movs	r3, #32
 375 0212 00E0     		b	.L62
 376              	.L39:
 377 0214 2023     		movs	r3, #32
 378              	.L62:
 379 0216 364A     		ldr	r2, .L525+52
 380 0218 9360     		str	r3, [r2, #8]
 381 021a E8E0     		b	.L37
 382              	.L38:
 383 021c FB68     		ldr	r3, [r7, #12]
 384 021e 1B68     		ldr	r3, [r3]
 385 0220 1A46     		mov	r2, r3
 386 0222 354B     		ldr	r3, .L525+60
 387 0224 9A42     		cmp	r2, r3
 388 0226 40F28280 		bls	.L64
 389 022a FB68     		ldr	r3, [r7, #12]
 390 022c 1B68     		ldr	r3, [r3]
 391 022e 244A     		ldr	r2, .L525+4
 392 0230 9342     		cmp	r3, r2
 393 0232 78D0     		beq	.L65
 394 0234 FB68     		ldr	r3, [r7, #12]
 395 0236 1B68     		ldr	r3, [r3]
 396 0238 224A     		ldr	r2, .L525+8
 397 023a 9342     		cmp	r3, r2
 398 023c 71D0     		beq	.L66
 399 023e FB68     		ldr	r3, [r7, #12]
 400 0240 1B68     		ldr	r3, [r3]
 401 0242 214A     		ldr	r2, .L525+12
 402 0244 9342     		cmp	r3, r2
ARM GAS  C:\msys64\tmp\ccAtyqF0.s 			page 8


 403 0246 6AD0     		beq	.L67
 404 0248 FB68     		ldr	r3, [r7, #12]
 405 024a 1B68     		ldr	r3, [r3]
 406 024c 1F4A     		ldr	r2, .L525+16
 407 024e 9342     		cmp	r3, r2
 408 0250 63D0     		beq	.L68
 409 0252 FB68     		ldr	r3, [r7, #12]
 410 0254 1B68     		ldr	r3, [r3]
 411 0256 1E4A     		ldr	r2, .L525+20
 412 0258 9342     		cmp	r3, r2
 413 025a 5BD0     		beq	.L69
 414 025c FB68     		ldr	r3, [r7, #12]
 415 025e 1B68     		ldr	r3, [r3]
 416 0260 1C4A     		ldr	r2, .L525+24
 417 0262 9342     		cmp	r3, r2
 418 0264 53D0     		beq	.L70
 419 0266 FB68     		ldr	r3, [r7, #12]
 420 0268 1B68     		ldr	r3, [r3]
 421 026a 1B4A     		ldr	r2, .L525+28
 422 026c 9342     		cmp	r3, r2
 423 026e 4BD0     		beq	.L71
 424 0270 FB68     		ldr	r3, [r7, #12]
 425 0272 1B68     		ldr	r3, [r3]
 426 0274 194A     		ldr	r2, .L525+32
 427 0276 9342     		cmp	r3, r2
 428 0278 43D0     		beq	.L72
 429 027a FB68     		ldr	r3, [r7, #12]
 430 027c 1B68     		ldr	r3, [r3]
 431 027e 184A     		ldr	r2, .L525+36
 432 0280 9342     		cmp	r3, r2
 433 0282 3BD0     		beq	.L73
 434 0284 FB68     		ldr	r3, [r7, #12]
 435 0286 1B68     		ldr	r3, [r3]
 436 0288 164A     		ldr	r2, .L525+40
 437 028a 9342     		cmp	r3, r2
 438 028c 12D0     		beq	.L74
 439 028e FB68     		ldr	r3, [r7, #12]
 440 0290 1B68     		ldr	r3, [r3]
 441 0292 154A     		ldr	r2, .L525+44
 442 0294 9342     		cmp	r3, r2
 443 0296 0AD0     		beq	.L75
 444 0298 FB68     		ldr	r3, [r7, #12]
 445 029a 1B68     		ldr	r3, [r3]
 446 029c 134A     		ldr	r2, .L525+48
 447 029e 9342     		cmp	r3, r2
 448 02a0 02D1     		bne	.L76
 449 02a2 4FF40013 		mov	r3, #2097152
 450 02a6 3FE0     		b	.L88
 451              	.L76:
 452 02a8 4FF00063 		mov	r3, #134217728
 453 02ac 3CE0     		b	.L88
 454              	.L75:
 455 02ae 4FF40013 		mov	r3, #2097152
 456 02b2 39E0     		b	.L88
 457              	.L74:
 458 02b4 4FF40013 		mov	r3, #2097152
 459 02b8 36E0     		b	.L88
ARM GAS  C:\msys64\tmp\ccAtyqF0.s 			page 9


 460              	.L526:
 461 02ba 00BF     		.align	2
 462              	.L525:
 463 02bc 58640240 		.word	1073898584
 464 02c0 10600240 		.word	1073897488
 465 02c4 10640240 		.word	1073898512
 466 02c8 70600240 		.word	1073897584
 467 02cc 70640240 		.word	1073898608
 468 02d0 28600240 		.word	1073897512
 469 02d4 28640240 		.word	1073898536
 470 02d8 88600240 		.word	1073897608
 471 02dc 88640240 		.word	1073898632
 472 02e0 40600240 		.word	1073897536
 473 02e4 40640240 		.word	1073898560
 474 02e8 A0600240 		.word	1073897632
 475 02ec A0640240 		.word	1073898656
 476 02f0 00640240 		.word	1073898496
 477 02f4 B8600240 		.word	1073897656
 478 02f8 58600240 		.word	1073897560
 479              	.L73:
 480 02fc 4FF40013 		mov	r3, #2097152
 481 0300 12E0     		b	.L88
 482              	.L72:
 483 0302 4FF40063 		mov	r3, #2048
 484 0306 0FE0     		b	.L88
 485              	.L71:
 486 0308 4FF40063 		mov	r3, #2048
 487 030c 0CE0     		b	.L88
 488              	.L70:
 489 030e 4FF40063 		mov	r3, #2048
 490 0312 09E0     		b	.L88
 491              	.L69:
 492 0314 4FF40063 		mov	r3, #2048
 493 0318 06E0     		b	.L88
 494              	.L68:
 495 031a 2023     		movs	r3, #32
 496 031c 04E0     		b	.L88
 497              	.L67:
 498 031e 2023     		movs	r3, #32
 499 0320 02E0     		b	.L88
 500              	.L66:
 501 0322 2023     		movs	r3, #32
 502 0324 00E0     		b	.L88
 503              	.L65:
 504 0326 2023     		movs	r3, #32
 505              	.L88:
 506 0328 8C4A     		ldr	r2, .L527
 507 032a D360     		str	r3, [r2, #12]
 508 032c 5FE0     		b	.L37
 509              	.L64:
 510 032e FB68     		ldr	r3, [r7, #12]
 511 0330 1B68     		ldr	r3, [r3]
 512 0332 8B4A     		ldr	r2, .L527+4
 513 0334 9342     		cmp	r3, r2
 514 0336 57D0     		beq	.L90
 515 0338 FB68     		ldr	r3, [r7, #12]
 516 033a 1B68     		ldr	r3, [r3]
ARM GAS  C:\msys64\tmp\ccAtyqF0.s 			page 10


 517 033c 894A     		ldr	r2, .L527+8
 518 033e 9342     		cmp	r3, r2
 519 0340 50D0     		beq	.L91
 520 0342 FB68     		ldr	r3, [r7, #12]
 521 0344 1B68     		ldr	r3, [r3]
 522 0346 884A     		ldr	r2, .L527+12
 523 0348 9342     		cmp	r3, r2
 524 034a 49D0     		beq	.L92
 525 034c FB68     		ldr	r3, [r7, #12]
 526 034e 1B68     		ldr	r3, [r3]
 527 0350 864A     		ldr	r2, .L527+16
 528 0352 9342     		cmp	r3, r2
 529 0354 42D0     		beq	.L93
 530 0356 FB68     		ldr	r3, [r7, #12]
 531 0358 1B68     		ldr	r3, [r3]
 532 035a 854A     		ldr	r2, .L527+20
 533 035c 9342     		cmp	r3, r2
 534 035e 3AD0     		beq	.L94
 535 0360 FB68     		ldr	r3, [r7, #12]
 536 0362 1B68     		ldr	r3, [r3]
 537 0364 834A     		ldr	r2, .L527+24
 538 0366 9342     		cmp	r3, r2
 539 0368 32D0     		beq	.L95
 540 036a FB68     		ldr	r3, [r7, #12]
 541 036c 1B68     		ldr	r3, [r3]
 542 036e 824A     		ldr	r2, .L527+28
 543 0370 9342     		cmp	r3, r2
 544 0372 2AD0     		beq	.L96
 545 0374 FB68     		ldr	r3, [r7, #12]
 546 0376 1B68     		ldr	r3, [r3]
 547 0378 804A     		ldr	r2, .L527+32
 548 037a 9342     		cmp	r3, r2
 549 037c 22D0     		beq	.L97
 550 037e FB68     		ldr	r3, [r7, #12]
 551 0380 1B68     		ldr	r3, [r3]
 552 0382 7F4A     		ldr	r2, .L527+36
 553 0384 9342     		cmp	r3, r2
 554 0386 1AD0     		beq	.L98
 555 0388 FB68     		ldr	r3, [r7, #12]
 556 038a 1B68     		ldr	r3, [r3]
 557 038c 7D4A     		ldr	r2, .L527+40
 558 038e 9342     		cmp	r3, r2
 559 0390 12D0     		beq	.L99
 560 0392 FB68     		ldr	r3, [r7, #12]
 561 0394 1B68     		ldr	r3, [r3]
 562 0396 7C4A     		ldr	r2, .L527+44
 563 0398 9342     		cmp	r3, r2
 564 039a 0AD0     		beq	.L100
 565 039c FB68     		ldr	r3, [r7, #12]
 566 039e 1B68     		ldr	r3, [r3]
 567 03a0 7A4A     		ldr	r2, .L527+48
 568 03a2 9342     		cmp	r3, r2
 569 03a4 02D1     		bne	.L101
 570 03a6 4FF40013 		mov	r3, #2097152
 571 03aa 1EE0     		b	.L113
 572              	.L101:
 573 03ac 4FF00063 		mov	r3, #134217728
ARM GAS  C:\msys64\tmp\ccAtyqF0.s 			page 11


 574 03b0 1BE0     		b	.L113
 575              	.L100:
 576 03b2 4FF40013 		mov	r3, #2097152
 577 03b6 18E0     		b	.L113
 578              	.L99:
 579 03b8 4FF40013 		mov	r3, #2097152
 580 03bc 15E0     		b	.L113
 581              	.L98:
 582 03be 4FF40013 		mov	r3, #2097152
 583 03c2 12E0     		b	.L113
 584              	.L97:
 585 03c4 4FF40063 		mov	r3, #2048
 586 03c8 0FE0     		b	.L113
 587              	.L96:
 588 03ca 4FF40063 		mov	r3, #2048
 589 03ce 0CE0     		b	.L113
 590              	.L95:
 591 03d0 4FF40063 		mov	r3, #2048
 592 03d4 09E0     		b	.L113
 593              	.L94:
 594 03d6 4FF40063 		mov	r3, #2048
 595 03da 06E0     		b	.L113
 596              	.L93:
 597 03dc 2023     		movs	r3, #32
 598 03de 04E0     		b	.L113
 599              	.L92:
 600 03e0 2023     		movs	r3, #32
 601 03e2 02E0     		b	.L113
 602              	.L91:
 603 03e4 2023     		movs	r3, #32
 604 03e6 00E0     		b	.L113
 605              	.L90:
 606 03e8 2023     		movs	r3, #32
 607              	.L113:
 608 03ea 5C4A     		ldr	r2, .L527
 609 03ec 9360     		str	r3, [r2, #8]
 610              	.L37:
 611 03ee FB68     		ldr	r3, [r7, #12]
 612 03f0 1B68     		ldr	r3, [r3]
 613 03f2 1A46     		mov	r2, r3
 614 03f4 664B     		ldr	r3, .L527+52
 615 03f6 9A42     		cmp	r2, r3
 616 03f8 60D9     		bls	.L114
 617 03fa FB68     		ldr	r3, [r7, #12]
 618 03fc 1B68     		ldr	r3, [r3]
 619 03fe 584A     		ldr	r2, .L527+4
 620 0400 9342     		cmp	r3, r2
 621 0402 57D0     		beq	.L115
 622 0404 FB68     		ldr	r3, [r7, #12]
 623 0406 1B68     		ldr	r3, [r3]
 624 0408 564A     		ldr	r2, .L527+8
 625 040a 9342     		cmp	r3, r2
 626 040c 50D0     		beq	.L116
 627 040e FB68     		ldr	r3, [r7, #12]
 628 0410 1B68     		ldr	r3, [r3]
 629 0412 554A     		ldr	r2, .L527+12
 630 0414 9342     		cmp	r3, r2
ARM GAS  C:\msys64\tmp\ccAtyqF0.s 			page 12


 631 0416 49D0     		beq	.L117
 632 0418 FB68     		ldr	r3, [r7, #12]
 633 041a 1B68     		ldr	r3, [r3]
 634 041c 534A     		ldr	r2, .L527+16
 635 041e 9342     		cmp	r3, r2
 636 0420 42D0     		beq	.L118
 637 0422 FB68     		ldr	r3, [r7, #12]
 638 0424 1B68     		ldr	r3, [r3]
 639 0426 524A     		ldr	r2, .L527+20
 640 0428 9342     		cmp	r3, r2
 641 042a 3AD0     		beq	.L119
 642 042c FB68     		ldr	r3, [r7, #12]
 643 042e 1B68     		ldr	r3, [r3]
 644 0430 504A     		ldr	r2, .L527+24
 645 0432 9342     		cmp	r3, r2
 646 0434 32D0     		beq	.L120
 647 0436 FB68     		ldr	r3, [r7, #12]
 648 0438 1B68     		ldr	r3, [r3]
 649 043a 4F4A     		ldr	r2, .L527+28
 650 043c 9342     		cmp	r3, r2
 651 043e 2AD0     		beq	.L121
 652 0440 FB68     		ldr	r3, [r7, #12]
 653 0442 1B68     		ldr	r3, [r3]
 654 0444 4D4A     		ldr	r2, .L527+32
 655 0446 9342     		cmp	r3, r2
 656 0448 22D0     		beq	.L122
 657 044a FB68     		ldr	r3, [r7, #12]
 658 044c 1B68     		ldr	r3, [r3]
 659 044e 4C4A     		ldr	r2, .L527+36
 660 0450 9342     		cmp	r3, r2
 661 0452 1AD0     		beq	.L123
 662 0454 FB68     		ldr	r3, [r7, #12]
 663 0456 1B68     		ldr	r3, [r3]
 664 0458 4A4A     		ldr	r2, .L527+40
 665 045a 9342     		cmp	r3, r2
 666 045c 12D0     		beq	.L124
 667 045e FB68     		ldr	r3, [r7, #12]
 668 0460 1B68     		ldr	r3, [r3]
 669 0462 494A     		ldr	r2, .L527+44
 670 0464 9342     		cmp	r3, r2
 671 0466 0AD0     		beq	.L125
 672 0468 FB68     		ldr	r3, [r7, #12]
 673 046a 1B68     		ldr	r3, [r3]
 674 046c 474A     		ldr	r2, .L527+48
 675 046e 9342     		cmp	r3, r2
 676 0470 02D1     		bne	.L126
 677 0472 4FF48013 		mov	r3, #1048576
 678 0476 1EE0     		b	.L138
 679              	.L126:
 680 0478 4FF08063 		mov	r3, #67108864
 681 047c 1BE0     		b	.L138
 682              	.L125:
 683 047e 4FF48013 		mov	r3, #1048576
 684 0482 18E0     		b	.L138
 685              	.L124:
 686 0484 4FF48013 		mov	r3, #1048576
 687 0488 15E0     		b	.L138
ARM GAS  C:\msys64\tmp\ccAtyqF0.s 			page 13


 688              	.L123:
 689 048a 4FF48013 		mov	r3, #1048576
 690 048e 12E0     		b	.L138
 691              	.L122:
 692 0490 4FF48063 		mov	r3, #1024
 693 0494 0FE0     		b	.L138
 694              	.L121:
 695 0496 4FF48063 		mov	r3, #1024
 696 049a 0CE0     		b	.L138
 697              	.L120:
 698 049c 4FF48063 		mov	r3, #1024
 699 04a0 09E0     		b	.L138
 700              	.L119:
 701 04a2 4FF48063 		mov	r3, #1024
 702 04a6 06E0     		b	.L138
 703              	.L118:
 704 04a8 1023     		movs	r3, #16
 705 04aa 04E0     		b	.L138
 706              	.L117:
 707 04ac 1023     		movs	r3, #16
 708 04ae 02E0     		b	.L138
 709              	.L116:
 710 04b0 1023     		movs	r3, #16
 711 04b2 00E0     		b	.L138
 712              	.L115:
 713 04b4 1023     		movs	r3, #16
 714              	.L138:
 715 04b6 374A     		ldr	r2, .L527+56
 716 04b8 D360     		str	r3, [r2, #12]
 717 04ba 4FE1     		b	.L139
 718              	.L114:
 719 04bc FB68     		ldr	r3, [r7, #12]
 720 04be 1B68     		ldr	r3, [r3]
 721 04c0 1A46     		mov	r2, r3
 722 04c2 354B     		ldr	r3, .L527+60
 723 04c4 9A42     		cmp	r2, r3
 724 04c6 40F28280 		bls	.L140
 725 04ca FB68     		ldr	r3, [r7, #12]
 726 04cc 1B68     		ldr	r3, [r3]
 727 04ce 244A     		ldr	r2, .L527+4
 728 04d0 9342     		cmp	r3, r2
 729 04d2 78D0     		beq	.L141
 730 04d4 FB68     		ldr	r3, [r7, #12]
 731 04d6 1B68     		ldr	r3, [r3]
 732 04d8 224A     		ldr	r2, .L527+8
 733 04da 9342     		cmp	r3, r2
 734 04dc 71D0     		beq	.L142
 735 04de FB68     		ldr	r3, [r7, #12]
 736 04e0 1B68     		ldr	r3, [r3]
 737 04e2 214A     		ldr	r2, .L527+12
 738 04e4 9342     		cmp	r3, r2
 739 04e6 6AD0     		beq	.L143
 740 04e8 FB68     		ldr	r3, [r7, #12]
 741 04ea 1B68     		ldr	r3, [r3]
 742 04ec 1F4A     		ldr	r2, .L527+16
 743 04ee 9342     		cmp	r3, r2
 744 04f0 63D0     		beq	.L144
ARM GAS  C:\msys64\tmp\ccAtyqF0.s 			page 14


 745 04f2 FB68     		ldr	r3, [r7, #12]
 746 04f4 1B68     		ldr	r3, [r3]
 747 04f6 1E4A     		ldr	r2, .L527+20
 748 04f8 9342     		cmp	r3, r2
 749 04fa 5BD0     		beq	.L145
 750 04fc FB68     		ldr	r3, [r7, #12]
 751 04fe 1B68     		ldr	r3, [r3]
 752 0500 1C4A     		ldr	r2, .L527+24
 753 0502 9342     		cmp	r3, r2
 754 0504 53D0     		beq	.L146
 755 0506 FB68     		ldr	r3, [r7, #12]
 756 0508 1B68     		ldr	r3, [r3]
 757 050a 1B4A     		ldr	r2, .L527+28
 758 050c 9342     		cmp	r3, r2
 759 050e 4BD0     		beq	.L147
 760 0510 FB68     		ldr	r3, [r7, #12]
 761 0512 1B68     		ldr	r3, [r3]
 762 0514 194A     		ldr	r2, .L527+32
 763 0516 9342     		cmp	r3, r2
 764 0518 43D0     		beq	.L148
 765 051a FB68     		ldr	r3, [r7, #12]
 766 051c 1B68     		ldr	r3, [r3]
 767 051e 184A     		ldr	r2, .L527+36
 768 0520 9342     		cmp	r3, r2
 769 0522 3BD0     		beq	.L149
 770 0524 FB68     		ldr	r3, [r7, #12]
 771 0526 1B68     		ldr	r3, [r3]
 772 0528 164A     		ldr	r2, .L527+40
 773 052a 9342     		cmp	r3, r2
 774 052c 12D0     		beq	.L150
 775 052e FB68     		ldr	r3, [r7, #12]
 776 0530 1B68     		ldr	r3, [r3]
 777 0532 154A     		ldr	r2, .L527+44
 778 0534 9342     		cmp	r3, r2
 779 0536 0AD0     		beq	.L151
 780 0538 FB68     		ldr	r3, [r7, #12]
 781 053a 1B68     		ldr	r3, [r3]
 782 053c 134A     		ldr	r2, .L527+48
 783 053e 9342     		cmp	r3, r2
 784 0540 02D1     		bne	.L152
 785 0542 4FF48013 		mov	r3, #1048576
 786 0546 3FE0     		b	.L164
 787              	.L152:
 788 0548 4FF08063 		mov	r3, #67108864
 789 054c 3CE0     		b	.L164
 790              	.L151:
 791 054e 4FF48013 		mov	r3, #1048576
 792 0552 39E0     		b	.L164
 793              	.L150:
 794 0554 4FF48013 		mov	r3, #1048576
 795 0558 36E0     		b	.L164
 796              	.L528:
 797 055a 00BF     		.align	2
 798              	.L527:
 799 055c 00600240 		.word	1073897472
 800 0560 10600240 		.word	1073897488
 801 0564 10640240 		.word	1073898512
ARM GAS  C:\msys64\tmp\ccAtyqF0.s 			page 15


 802 0568 70600240 		.word	1073897584
 803 056c 70640240 		.word	1073898608
 804 0570 28600240 		.word	1073897512
 805 0574 28640240 		.word	1073898536
 806 0578 88600240 		.word	1073897608
 807 057c 88640240 		.word	1073898632
 808 0580 40600240 		.word	1073897536
 809 0584 40640240 		.word	1073898560
 810 0588 A0600240 		.word	1073897632
 811 058c A0640240 		.word	1073898656
 812 0590 58640240 		.word	1073898584
 813 0594 00640240 		.word	1073898496
 814 0598 B8600240 		.word	1073897656
 815              	.L149:
 816 059c 4FF48013 		mov	r3, #1048576
 817 05a0 12E0     		b	.L164
 818              	.L148:
 819 05a2 4FF48063 		mov	r3, #1024
 820 05a6 0FE0     		b	.L164
 821              	.L147:
 822 05a8 4FF48063 		mov	r3, #1024
 823 05ac 0CE0     		b	.L164
 824              	.L146:
 825 05ae 4FF48063 		mov	r3, #1024
 826 05b2 09E0     		b	.L164
 827              	.L145:
 828 05b4 4FF48063 		mov	r3, #1024
 829 05b8 06E0     		b	.L164
 830              	.L144:
 831 05ba 1023     		movs	r3, #16
 832 05bc 04E0     		b	.L164
 833              	.L143:
 834 05be 1023     		movs	r3, #16
 835 05c0 02E0     		b	.L164
 836              	.L142:
 837 05c2 1023     		movs	r3, #16
 838 05c4 00E0     		b	.L164
 839              	.L141:
 840 05c6 1023     		movs	r3, #16
 841              	.L164:
 842 05c8 8C4A     		ldr	r2, .L529
 843 05ca 9360     		str	r3, [r2, #8]
 844 05cc C6E0     		b	.L139
 845              	.L140:
 846 05ce FB68     		ldr	r3, [r7, #12]
 847 05d0 1B68     		ldr	r3, [r3]
 848 05d2 1A46     		mov	r2, r3
 849 05d4 8A4B     		ldr	r3, .L529+4
 850 05d6 9A42     		cmp	r2, r3
 851 05d8 60D9     		bls	.L166
 852 05da FB68     		ldr	r3, [r7, #12]
 853 05dc 1B68     		ldr	r3, [r3]
 854 05de 894A     		ldr	r2, .L529+8
 855 05e0 9342     		cmp	r3, r2
 856 05e2 57D0     		beq	.L167
 857 05e4 FB68     		ldr	r3, [r7, #12]
 858 05e6 1B68     		ldr	r3, [r3]
ARM GAS  C:\msys64\tmp\ccAtyqF0.s 			page 16


 859 05e8 874A     		ldr	r2, .L529+12
 860 05ea 9342     		cmp	r3, r2
 861 05ec 50D0     		beq	.L168
 862 05ee FB68     		ldr	r3, [r7, #12]
 863 05f0 1B68     		ldr	r3, [r3]
 864 05f2 864A     		ldr	r2, .L529+16
 865 05f4 9342     		cmp	r3, r2
 866 05f6 49D0     		beq	.L169
 867 05f8 FB68     		ldr	r3, [r7, #12]
 868 05fa 1B68     		ldr	r3, [r3]
 869 05fc 844A     		ldr	r2, .L529+20
 870 05fe 9342     		cmp	r3, r2
 871 0600 42D0     		beq	.L170
 872 0602 FB68     		ldr	r3, [r7, #12]
 873 0604 1B68     		ldr	r3, [r3]
 874 0606 834A     		ldr	r2, .L529+24
 875 0608 9342     		cmp	r3, r2
 876 060a 3AD0     		beq	.L171
 877 060c FB68     		ldr	r3, [r7, #12]
 878 060e 1B68     		ldr	r3, [r3]
 879 0610 814A     		ldr	r2, .L529+28
 880 0612 9342     		cmp	r3, r2
 881 0614 32D0     		beq	.L172
 882 0616 FB68     		ldr	r3, [r7, #12]
 883 0618 1B68     		ldr	r3, [r3]
 884 061a 804A     		ldr	r2, .L529+32
 885 061c 9342     		cmp	r3, r2
 886 061e 2AD0     		beq	.L173
 887 0620 FB68     		ldr	r3, [r7, #12]
 888 0622 1B68     		ldr	r3, [r3]
 889 0624 7E4A     		ldr	r2, .L529+36
 890 0626 9342     		cmp	r3, r2
 891 0628 22D0     		beq	.L174
 892 062a FB68     		ldr	r3, [r7, #12]
 893 062c 1B68     		ldr	r3, [r3]
 894 062e 7D4A     		ldr	r2, .L529+40
 895 0630 9342     		cmp	r3, r2
 896 0632 1AD0     		beq	.L175
 897 0634 FB68     		ldr	r3, [r7, #12]
 898 0636 1B68     		ldr	r3, [r3]
 899 0638 7B4A     		ldr	r2, .L529+44
 900 063a 9342     		cmp	r3, r2
 901 063c 12D0     		beq	.L176
 902 063e FB68     		ldr	r3, [r7, #12]
 903 0640 1B68     		ldr	r3, [r3]
 904 0642 7A4A     		ldr	r2, .L529+48
 905 0644 9342     		cmp	r3, r2
 906 0646 0AD0     		beq	.L177
 907 0648 FB68     		ldr	r3, [r7, #12]
 908 064a 1B68     		ldr	r3, [r3]
 909 064c 784A     		ldr	r2, .L529+52
 910 064e 9342     		cmp	r3, r2
 911 0650 02D1     		bne	.L178
 912 0652 4FF48013 		mov	r3, #1048576
 913 0656 1EE0     		b	.L190
 914              	.L178:
 915 0658 4FF08063 		mov	r3, #67108864
ARM GAS  C:\msys64\tmp\ccAtyqF0.s 			page 17


 916 065c 1BE0     		b	.L190
 917              	.L177:
 918 065e 4FF48013 		mov	r3, #1048576
 919 0662 18E0     		b	.L190
 920              	.L176:
 921 0664 4FF48013 		mov	r3, #1048576
 922 0668 15E0     		b	.L190
 923              	.L175:
 924 066a 4FF48013 		mov	r3, #1048576
 925 066e 12E0     		b	.L190
 926              	.L174:
 927 0670 4FF48063 		mov	r3, #1024
 928 0674 0FE0     		b	.L190
 929              	.L173:
 930 0676 4FF48063 		mov	r3, #1024
 931 067a 0CE0     		b	.L190
 932              	.L172:
 933 067c 4FF48063 		mov	r3, #1024
 934 0680 09E0     		b	.L190
 935              	.L171:
 936 0682 4FF48063 		mov	r3, #1024
 937 0686 06E0     		b	.L190
 938              	.L170:
 939 0688 1023     		movs	r3, #16
 940 068a 04E0     		b	.L190
 941              	.L169:
 942 068c 1023     		movs	r3, #16
 943 068e 02E0     		b	.L190
 944              	.L168:
 945 0690 1023     		movs	r3, #16
 946 0692 00E0     		b	.L190
 947              	.L167:
 948 0694 1023     		movs	r3, #16
 949              	.L190:
 950 0696 674A     		ldr	r2, .L529+56
 951 0698 D360     		str	r3, [r2, #12]
 952 069a 5FE0     		b	.L139
 953              	.L166:
 954 069c FB68     		ldr	r3, [r7, #12]
 955 069e 1B68     		ldr	r3, [r3]
 956 06a0 584A     		ldr	r2, .L529+8
 957 06a2 9342     		cmp	r3, r2
 958 06a4 57D0     		beq	.L192
 959 06a6 FB68     		ldr	r3, [r7, #12]
 960 06a8 1B68     		ldr	r3, [r3]
 961 06aa 574A     		ldr	r2, .L529+12
 962 06ac 9342     		cmp	r3, r2
 963 06ae 50D0     		beq	.L193
 964 06b0 FB68     		ldr	r3, [r7, #12]
 965 06b2 1B68     		ldr	r3, [r3]
 966 06b4 554A     		ldr	r2, .L529+16
 967 06b6 9342     		cmp	r3, r2
 968 06b8 49D0     		beq	.L194
 969 06ba FB68     		ldr	r3, [r7, #12]
 970 06bc 1B68     		ldr	r3, [r3]
 971 06be 544A     		ldr	r2, .L529+20
 972 06c0 9342     		cmp	r3, r2
ARM GAS  C:\msys64\tmp\ccAtyqF0.s 			page 18


 973 06c2 42D0     		beq	.L195
 974 06c4 FB68     		ldr	r3, [r7, #12]
 975 06c6 1B68     		ldr	r3, [r3]
 976 06c8 524A     		ldr	r2, .L529+24
 977 06ca 9342     		cmp	r3, r2
 978 06cc 3AD0     		beq	.L196
 979 06ce FB68     		ldr	r3, [r7, #12]
 980 06d0 1B68     		ldr	r3, [r3]
 981 06d2 514A     		ldr	r2, .L529+28
 982 06d4 9342     		cmp	r3, r2
 983 06d6 32D0     		beq	.L197
 984 06d8 FB68     		ldr	r3, [r7, #12]
 985 06da 1B68     		ldr	r3, [r3]
 986 06dc 4F4A     		ldr	r2, .L529+32
 987 06de 9342     		cmp	r3, r2
 988 06e0 2AD0     		beq	.L198
 989 06e2 FB68     		ldr	r3, [r7, #12]
 990 06e4 1B68     		ldr	r3, [r3]
 991 06e6 4E4A     		ldr	r2, .L529+36
 992 06e8 9342     		cmp	r3, r2
 993 06ea 22D0     		beq	.L199
 994 06ec FB68     		ldr	r3, [r7, #12]
 995 06ee 1B68     		ldr	r3, [r3]
 996 06f0 4C4A     		ldr	r2, .L529+40
 997 06f2 9342     		cmp	r3, r2
 998 06f4 1AD0     		beq	.L200
 999 06f6 FB68     		ldr	r3, [r7, #12]
 1000 06f8 1B68     		ldr	r3, [r3]
 1001 06fa 4B4A     		ldr	r2, .L529+44
 1002 06fc 9342     		cmp	r3, r2
 1003 06fe 12D0     		beq	.L201
 1004 0700 FB68     		ldr	r3, [r7, #12]
 1005 0702 1B68     		ldr	r3, [r3]
 1006 0704 494A     		ldr	r2, .L529+48
 1007 0706 9342     		cmp	r3, r2
 1008 0708 0AD0     		beq	.L202
 1009 070a FB68     		ldr	r3, [r7, #12]
 1010 070c 1B68     		ldr	r3, [r3]
 1011 070e 484A     		ldr	r2, .L529+52
 1012 0710 9342     		cmp	r3, r2
 1013 0712 02D1     		bne	.L203
 1014 0714 4FF48013 		mov	r3, #1048576
 1015 0718 1EE0     		b	.L215
 1016              	.L203:
 1017 071a 4FF08063 		mov	r3, #67108864
 1018 071e 1BE0     		b	.L215
 1019              	.L202:
 1020 0720 4FF48013 		mov	r3, #1048576
 1021 0724 18E0     		b	.L215
 1022              	.L201:
 1023 0726 4FF48013 		mov	r3, #1048576
 1024 072a 15E0     		b	.L215
 1025              	.L200:
 1026 072c 4FF48013 		mov	r3, #1048576
 1027 0730 12E0     		b	.L215
 1028              	.L199:
 1029 0732 4FF48063 		mov	r3, #1024
ARM GAS  C:\msys64\tmp\ccAtyqF0.s 			page 19


 1030 0736 0FE0     		b	.L215
 1031              	.L198:
 1032 0738 4FF48063 		mov	r3, #1024
 1033 073c 0CE0     		b	.L215
 1034              	.L197:
 1035 073e 4FF48063 		mov	r3, #1024
 1036 0742 09E0     		b	.L215
 1037              	.L196:
 1038 0744 4FF48063 		mov	r3, #1024
 1039 0748 06E0     		b	.L215
 1040              	.L195:
 1041 074a 1023     		movs	r3, #16
 1042 074c 04E0     		b	.L215
 1043              	.L194:
 1044 074e 1023     		movs	r3, #16
 1045 0750 02E0     		b	.L215
 1046              	.L193:
 1047 0752 1023     		movs	r3, #16
 1048 0754 00E0     		b	.L215
 1049              	.L192:
 1050 0756 1023     		movs	r3, #16
 1051              	.L215:
 1052 0758 364A     		ldr	r2, .L529+56
 1053 075a 9360     		str	r3, [r2, #8]
 1054              	.L139:
 1055 075c FB68     		ldr	r3, [r7, #12]
 1056 075e 1B68     		ldr	r3, [r3]
 1057 0760 1A46     		mov	r2, r3
 1058 0762 354B     		ldr	r3, .L529+60
 1059 0764 9A42     		cmp	r2, r3
 1060 0766 40F28280 		bls	.L216
 1061 076a FB68     		ldr	r3, [r7, #12]
 1062 076c 1B68     		ldr	r3, [r3]
 1063 076e 254A     		ldr	r2, .L529+8
 1064 0770 9342     		cmp	r3, r2
 1065 0772 78D0     		beq	.L217
 1066 0774 FB68     		ldr	r3, [r7, #12]
 1067 0776 1B68     		ldr	r3, [r3]
 1068 0778 234A     		ldr	r2, .L529+12
 1069 077a 9342     		cmp	r3, r2
 1070 077c 71D0     		beq	.L218
 1071 077e FB68     		ldr	r3, [r7, #12]
 1072 0780 1B68     		ldr	r3, [r3]
 1073 0782 224A     		ldr	r2, .L529+16
 1074 0784 9342     		cmp	r3, r2
 1075 0786 6AD0     		beq	.L219
 1076 0788 FB68     		ldr	r3, [r7, #12]
 1077 078a 1B68     		ldr	r3, [r3]
 1078 078c 204A     		ldr	r2, .L529+20
 1079 078e 9342     		cmp	r3, r2
 1080 0790 63D0     		beq	.L220
 1081 0792 FB68     		ldr	r3, [r7, #12]
 1082 0794 1B68     		ldr	r3, [r3]
 1083 0796 1F4A     		ldr	r2, .L529+24
 1084 0798 9342     		cmp	r3, r2
 1085 079a 5BD0     		beq	.L221
 1086 079c FB68     		ldr	r3, [r7, #12]
ARM GAS  C:\msys64\tmp\ccAtyqF0.s 			page 20


 1087 079e 1B68     		ldr	r3, [r3]
 1088 07a0 1D4A     		ldr	r2, .L529+28
 1089 07a2 9342     		cmp	r3, r2
 1090 07a4 53D0     		beq	.L222
 1091 07a6 FB68     		ldr	r3, [r7, #12]
 1092 07a8 1B68     		ldr	r3, [r3]
 1093 07aa 1C4A     		ldr	r2, .L529+32
 1094 07ac 9342     		cmp	r3, r2
 1095 07ae 4BD0     		beq	.L223
 1096 07b0 FB68     		ldr	r3, [r7, #12]
 1097 07b2 1B68     		ldr	r3, [r3]
 1098 07b4 1A4A     		ldr	r2, .L529+36
 1099 07b6 9342     		cmp	r3, r2
 1100 07b8 43D0     		beq	.L224
 1101 07ba FB68     		ldr	r3, [r7, #12]
 1102 07bc 1B68     		ldr	r3, [r3]
 1103 07be 194A     		ldr	r2, .L529+40
 1104 07c0 9342     		cmp	r3, r2
 1105 07c2 3BD0     		beq	.L225
 1106 07c4 FB68     		ldr	r3, [r7, #12]
 1107 07c6 1B68     		ldr	r3, [r3]
 1108 07c8 174A     		ldr	r2, .L529+44
 1109 07ca 9342     		cmp	r3, r2
 1110 07cc 12D0     		beq	.L226
 1111 07ce FB68     		ldr	r3, [r7, #12]
 1112 07d0 1B68     		ldr	r3, [r3]
 1113 07d2 164A     		ldr	r2, .L529+48
 1114 07d4 9342     		cmp	r3, r2
 1115 07d6 0AD0     		beq	.L227
 1116 07d8 FB68     		ldr	r3, [r7, #12]
 1117 07da 1B68     		ldr	r3, [r3]
 1118 07dc 144A     		ldr	r2, .L529+52
 1119 07de 9342     		cmp	r3, r2
 1120 07e0 02D1     		bne	.L228
 1121 07e2 4FF40023 		mov	r3, #524288
 1122 07e6 3FE0     		b	.L240
 1123              	.L228:
 1124 07e8 4FF00073 		mov	r3, #33554432
 1125 07ec 3CE0     		b	.L240
 1126              	.L227:
 1127 07ee 4FF40023 		mov	r3, #524288
 1128 07f2 39E0     		b	.L240
 1129              	.L226:
 1130 07f4 4FF40023 		mov	r3, #524288
 1131 07f8 36E0     		b	.L240
 1132              	.L530:
 1133 07fa 00BF     		.align	2
 1134              	.L529:
 1135 07fc 00640240 		.word	1073898496
 1136 0800 58600240 		.word	1073897560
 1137 0804 10600240 		.word	1073897488
 1138 0808 10640240 		.word	1073898512
 1139 080c 70600240 		.word	1073897584
 1140 0810 70640240 		.word	1073898608
 1141 0814 28600240 		.word	1073897512
 1142 0818 28640240 		.word	1073898536
 1143 081c 88600240 		.word	1073897608
ARM GAS  C:\msys64\tmp\ccAtyqF0.s 			page 21


 1144 0820 88640240 		.word	1073898632
 1145 0824 40600240 		.word	1073897536
 1146 0828 40640240 		.word	1073898560
 1147 082c A0600240 		.word	1073897632
 1148 0830 A0640240 		.word	1073898656
 1149 0834 00600240 		.word	1073897472
 1150 0838 58640240 		.word	1073898584
 1151              	.L225:
 1152 083c 4FF40023 		mov	r3, #524288
 1153 0840 12E0     		b	.L240
 1154              	.L224:
 1155 0842 4FF40073 		mov	r3, #512
 1156 0846 0FE0     		b	.L240
 1157              	.L223:
 1158 0848 4FF40073 		mov	r3, #512
 1159 084c 0CE0     		b	.L240
 1160              	.L222:
 1161 084e 4FF40073 		mov	r3, #512
 1162 0852 09E0     		b	.L240
 1163              	.L221:
 1164 0854 4FF40073 		mov	r3, #512
 1165 0858 06E0     		b	.L240
 1166              	.L220:
 1167 085a 0823     		movs	r3, #8
 1168 085c 04E0     		b	.L240
 1169              	.L219:
 1170 085e 0823     		movs	r3, #8
 1171 0860 02E0     		b	.L240
 1172              	.L218:
 1173 0862 0823     		movs	r3, #8
 1174 0864 00E0     		b	.L240
 1175              	.L217:
 1176 0866 0823     		movs	r3, #8
 1177              	.L240:
 1178 0868 8C4A     		ldr	r2, .L531
 1179 086a D360     		str	r3, [r2, #12]
 1180 086c 4EE1     		b	.L241
 1181              	.L216:
 1182 086e FB68     		ldr	r3, [r7, #12]
 1183 0870 1B68     		ldr	r3, [r3]
 1184 0872 1A46     		mov	r2, r3
 1185 0874 8A4B     		ldr	r3, .L531+4
 1186 0876 9A42     		cmp	r2, r3
 1187 0878 60D9     		bls	.L242
 1188 087a FB68     		ldr	r3, [r7, #12]
 1189 087c 1B68     		ldr	r3, [r3]
 1190 087e 894A     		ldr	r2, .L531+8
 1191 0880 9342     		cmp	r3, r2
 1192 0882 57D0     		beq	.L243
 1193 0884 FB68     		ldr	r3, [r7, #12]
 1194 0886 1B68     		ldr	r3, [r3]
 1195 0888 874A     		ldr	r2, .L531+12
 1196 088a 9342     		cmp	r3, r2
 1197 088c 50D0     		beq	.L244
 1198 088e FB68     		ldr	r3, [r7, #12]
 1199 0890 1B68     		ldr	r3, [r3]
 1200 0892 864A     		ldr	r2, .L531+16
ARM GAS  C:\msys64\tmp\ccAtyqF0.s 			page 22


 1201 0894 9342     		cmp	r3, r2
 1202 0896 49D0     		beq	.L245
 1203 0898 FB68     		ldr	r3, [r7, #12]
 1204 089a 1B68     		ldr	r3, [r3]
 1205 089c 844A     		ldr	r2, .L531+20
 1206 089e 9342     		cmp	r3, r2
 1207 08a0 42D0     		beq	.L246
 1208 08a2 FB68     		ldr	r3, [r7, #12]
 1209 08a4 1B68     		ldr	r3, [r3]
 1210 08a6 834A     		ldr	r2, .L531+24
 1211 08a8 9342     		cmp	r3, r2
 1212 08aa 3AD0     		beq	.L247
 1213 08ac FB68     		ldr	r3, [r7, #12]
 1214 08ae 1B68     		ldr	r3, [r3]
 1215 08b0 814A     		ldr	r2, .L531+28
 1216 08b2 9342     		cmp	r3, r2
 1217 08b4 32D0     		beq	.L248
 1218 08b6 FB68     		ldr	r3, [r7, #12]
 1219 08b8 1B68     		ldr	r3, [r3]
 1220 08ba 804A     		ldr	r2, .L531+32
 1221 08bc 9342     		cmp	r3, r2
 1222 08be 2AD0     		beq	.L249
 1223 08c0 FB68     		ldr	r3, [r7, #12]
 1224 08c2 1B68     		ldr	r3, [r3]
 1225 08c4 7E4A     		ldr	r2, .L531+36
 1226 08c6 9342     		cmp	r3, r2
 1227 08c8 22D0     		beq	.L250
 1228 08ca FB68     		ldr	r3, [r7, #12]
 1229 08cc 1B68     		ldr	r3, [r3]
 1230 08ce 7D4A     		ldr	r2, .L531+40
 1231 08d0 9342     		cmp	r3, r2
 1232 08d2 1AD0     		beq	.L251
 1233 08d4 FB68     		ldr	r3, [r7, #12]
 1234 08d6 1B68     		ldr	r3, [r3]
 1235 08d8 7B4A     		ldr	r2, .L531+44
 1236 08da 9342     		cmp	r3, r2
 1237 08dc 12D0     		beq	.L252
 1238 08de FB68     		ldr	r3, [r7, #12]
 1239 08e0 1B68     		ldr	r3, [r3]
 1240 08e2 7A4A     		ldr	r2, .L531+48
 1241 08e4 9342     		cmp	r3, r2
 1242 08e6 0AD0     		beq	.L253
 1243 08e8 FB68     		ldr	r3, [r7, #12]
 1244 08ea 1B68     		ldr	r3, [r3]
 1245 08ec 784A     		ldr	r2, .L531+52
 1246 08ee 9342     		cmp	r3, r2
 1247 08f0 02D1     		bne	.L254
 1248 08f2 4FF40023 		mov	r3, #524288
 1249 08f6 1EE0     		b	.L266
 1250              	.L254:
 1251 08f8 4FF00073 		mov	r3, #33554432
 1252 08fc 1BE0     		b	.L266
 1253              	.L253:
 1254 08fe 4FF40023 		mov	r3, #524288
 1255 0902 18E0     		b	.L266
 1256              	.L252:
 1257 0904 4FF40023 		mov	r3, #524288
ARM GAS  C:\msys64\tmp\ccAtyqF0.s 			page 23


 1258 0908 15E0     		b	.L266
 1259              	.L251:
 1260 090a 4FF40023 		mov	r3, #524288
 1261 090e 12E0     		b	.L266
 1262              	.L250:
 1263 0910 4FF40073 		mov	r3, #512
 1264 0914 0FE0     		b	.L266
 1265              	.L249:
 1266 0916 4FF40073 		mov	r3, #512
 1267 091a 0CE0     		b	.L266
 1268              	.L248:
 1269 091c 4FF40073 		mov	r3, #512
 1270 0920 09E0     		b	.L266
 1271              	.L247:
 1272 0922 4FF40073 		mov	r3, #512
 1273 0926 06E0     		b	.L266
 1274              	.L246:
 1275 0928 0823     		movs	r3, #8
 1276 092a 04E0     		b	.L266
 1277              	.L245:
 1278 092c 0823     		movs	r3, #8
 1279 092e 02E0     		b	.L266
 1280              	.L244:
 1281 0930 0823     		movs	r3, #8
 1282 0932 00E0     		b	.L266
 1283              	.L243:
 1284 0934 0823     		movs	r3, #8
 1285              	.L266:
 1286 0936 594A     		ldr	r2, .L531
 1287 0938 9360     		str	r3, [r2, #8]
 1288 093a E7E0     		b	.L241
 1289              	.L242:
 1290 093c FB68     		ldr	r3, [r7, #12]
 1291 093e 1B68     		ldr	r3, [r3]
 1292 0940 1A46     		mov	r2, r3
 1293 0942 644B     		ldr	r3, .L531+56
 1294 0944 9A42     		cmp	r2, r3
 1295 0946 60D9     		bls	.L268
 1296 0948 FB68     		ldr	r3, [r7, #12]
 1297 094a 1B68     		ldr	r3, [r3]
 1298 094c 554A     		ldr	r2, .L531+8
 1299 094e 9342     		cmp	r3, r2
 1300 0950 57D0     		beq	.L269
 1301 0952 FB68     		ldr	r3, [r7, #12]
 1302 0954 1B68     		ldr	r3, [r3]
 1303 0956 544A     		ldr	r2, .L531+12
 1304 0958 9342     		cmp	r3, r2
 1305 095a 50D0     		beq	.L270
 1306 095c FB68     		ldr	r3, [r7, #12]
 1307 095e 1B68     		ldr	r3, [r3]
 1308 0960 524A     		ldr	r2, .L531+16
 1309 0962 9342     		cmp	r3, r2
 1310 0964 49D0     		beq	.L271
 1311 0966 FB68     		ldr	r3, [r7, #12]
 1312 0968 1B68     		ldr	r3, [r3]
 1313 096a 514A     		ldr	r2, .L531+20
 1314 096c 9342     		cmp	r3, r2
ARM GAS  C:\msys64\tmp\ccAtyqF0.s 			page 24


 1315 096e 42D0     		beq	.L272
 1316 0970 FB68     		ldr	r3, [r7, #12]
 1317 0972 1B68     		ldr	r3, [r3]
 1318 0974 4F4A     		ldr	r2, .L531+24
 1319 0976 9342     		cmp	r3, r2
 1320 0978 3AD0     		beq	.L273
 1321 097a FB68     		ldr	r3, [r7, #12]
 1322 097c 1B68     		ldr	r3, [r3]
 1323 097e 4E4A     		ldr	r2, .L531+28
 1324 0980 9342     		cmp	r3, r2
 1325 0982 32D0     		beq	.L274
 1326 0984 FB68     		ldr	r3, [r7, #12]
 1327 0986 1B68     		ldr	r3, [r3]
 1328 0988 4C4A     		ldr	r2, .L531+32
 1329 098a 9342     		cmp	r3, r2
 1330 098c 2AD0     		beq	.L275
 1331 098e FB68     		ldr	r3, [r7, #12]
 1332 0990 1B68     		ldr	r3, [r3]
 1333 0992 4B4A     		ldr	r2, .L531+36
 1334 0994 9342     		cmp	r3, r2
 1335 0996 22D0     		beq	.L276
 1336 0998 FB68     		ldr	r3, [r7, #12]
 1337 099a 1B68     		ldr	r3, [r3]
 1338 099c 494A     		ldr	r2, .L531+40
 1339 099e 9342     		cmp	r3, r2
 1340 09a0 1AD0     		beq	.L277
 1341 09a2 FB68     		ldr	r3, [r7, #12]
 1342 09a4 1B68     		ldr	r3, [r3]
 1343 09a6 484A     		ldr	r2, .L531+44
 1344 09a8 9342     		cmp	r3, r2
 1345 09aa 12D0     		beq	.L278
 1346 09ac FB68     		ldr	r3, [r7, #12]
 1347 09ae 1B68     		ldr	r3, [r3]
 1348 09b0 464A     		ldr	r2, .L531+48
 1349 09b2 9342     		cmp	r3, r2
 1350 09b4 0AD0     		beq	.L279
 1351 09b6 FB68     		ldr	r3, [r7, #12]
 1352 09b8 1B68     		ldr	r3, [r3]
 1353 09ba 454A     		ldr	r2, .L531+52
 1354 09bc 9342     		cmp	r3, r2
 1355 09be 02D1     		bne	.L280
 1356 09c0 4FF40023 		mov	r3, #524288
 1357 09c4 1EE0     		b	.L292
 1358              	.L280:
 1359 09c6 4FF00073 		mov	r3, #33554432
 1360 09ca 1BE0     		b	.L292
 1361              	.L279:
 1362 09cc 4FF40023 		mov	r3, #524288
 1363 09d0 18E0     		b	.L292
 1364              	.L278:
 1365 09d2 4FF40023 		mov	r3, #524288
 1366 09d6 15E0     		b	.L292
 1367              	.L277:
 1368 09d8 4FF40023 		mov	r3, #524288
 1369 09dc 12E0     		b	.L292
 1370              	.L276:
 1371 09de 4FF40073 		mov	r3, #512
ARM GAS  C:\msys64\tmp\ccAtyqF0.s 			page 25


 1372 09e2 0FE0     		b	.L292
 1373              	.L275:
 1374 09e4 4FF40073 		mov	r3, #512
 1375 09e8 0CE0     		b	.L292
 1376              	.L274:
 1377 09ea 4FF40073 		mov	r3, #512
 1378 09ee 09E0     		b	.L292
 1379              	.L273:
 1380 09f0 4FF40073 		mov	r3, #512
 1381 09f4 06E0     		b	.L292
 1382              	.L272:
 1383 09f6 0823     		movs	r3, #8
 1384 09f8 04E0     		b	.L292
 1385              	.L271:
 1386 09fa 0823     		movs	r3, #8
 1387 09fc 02E0     		b	.L292
 1388              	.L270:
 1389 09fe 0823     		movs	r3, #8
 1390 0a00 00E0     		b	.L292
 1391              	.L269:
 1392 0a02 0823     		movs	r3, #8
 1393              	.L292:
 1394 0a04 344A     		ldr	r2, .L531+60
 1395 0a06 D360     		str	r3, [r2, #12]
 1396 0a08 80E0     		b	.L241
 1397              	.L268:
 1398 0a0a FB68     		ldr	r3, [r7, #12]
 1399 0a0c 1B68     		ldr	r3, [r3]
 1400 0a0e 254A     		ldr	r2, .L531+8
 1401 0a10 9342     		cmp	r3, r2
 1402 0a12 78D0     		beq	.L294
 1403 0a14 FB68     		ldr	r3, [r7, #12]
 1404 0a16 1B68     		ldr	r3, [r3]
 1405 0a18 234A     		ldr	r2, .L531+12
 1406 0a1a 9342     		cmp	r3, r2
 1407 0a1c 71D0     		beq	.L295
 1408 0a1e FB68     		ldr	r3, [r7, #12]
 1409 0a20 1B68     		ldr	r3, [r3]
 1410 0a22 224A     		ldr	r2, .L531+16
 1411 0a24 9342     		cmp	r3, r2
 1412 0a26 6AD0     		beq	.L296
 1413 0a28 FB68     		ldr	r3, [r7, #12]
 1414 0a2a 1B68     		ldr	r3, [r3]
 1415 0a2c 204A     		ldr	r2, .L531+20
 1416 0a2e 9342     		cmp	r3, r2
 1417 0a30 63D0     		beq	.L297
 1418 0a32 FB68     		ldr	r3, [r7, #12]
 1419 0a34 1B68     		ldr	r3, [r3]
 1420 0a36 1F4A     		ldr	r2, .L531+24
 1421 0a38 9342     		cmp	r3, r2
 1422 0a3a 5BD0     		beq	.L298
 1423 0a3c FB68     		ldr	r3, [r7, #12]
 1424 0a3e 1B68     		ldr	r3, [r3]
 1425 0a40 1D4A     		ldr	r2, .L531+28
 1426 0a42 9342     		cmp	r3, r2
 1427 0a44 53D0     		beq	.L299
 1428 0a46 FB68     		ldr	r3, [r7, #12]
ARM GAS  C:\msys64\tmp\ccAtyqF0.s 			page 26


 1429 0a48 1B68     		ldr	r3, [r3]
 1430 0a4a 1C4A     		ldr	r2, .L531+32
 1431 0a4c 9342     		cmp	r3, r2
 1432 0a4e 4BD0     		beq	.L300
 1433 0a50 FB68     		ldr	r3, [r7, #12]
 1434 0a52 1B68     		ldr	r3, [r3]
 1435 0a54 1A4A     		ldr	r2, .L531+36
 1436 0a56 9342     		cmp	r3, r2
 1437 0a58 43D0     		beq	.L301
 1438 0a5a FB68     		ldr	r3, [r7, #12]
 1439 0a5c 1B68     		ldr	r3, [r3]
 1440 0a5e 194A     		ldr	r2, .L531+40
 1441 0a60 9342     		cmp	r3, r2
 1442 0a62 3BD0     		beq	.L302
 1443 0a64 FB68     		ldr	r3, [r7, #12]
 1444 0a66 1B68     		ldr	r3, [r3]
 1445 0a68 174A     		ldr	r2, .L531+44
 1446 0a6a 9342     		cmp	r3, r2
 1447 0a6c 12D0     		beq	.L303
 1448 0a6e FB68     		ldr	r3, [r7, #12]
 1449 0a70 1B68     		ldr	r3, [r3]
 1450 0a72 164A     		ldr	r2, .L531+48
 1451 0a74 9342     		cmp	r3, r2
 1452 0a76 0AD0     		beq	.L304
 1453 0a78 FB68     		ldr	r3, [r7, #12]
 1454 0a7a 1B68     		ldr	r3, [r3]
 1455 0a7c 144A     		ldr	r2, .L531+52
 1456 0a7e 9342     		cmp	r3, r2
 1457 0a80 02D1     		bne	.L305
 1458 0a82 4FF40023 		mov	r3, #524288
 1459 0a86 3FE0     		b	.L317
 1460              	.L305:
 1461 0a88 4FF00073 		mov	r3, #33554432
 1462 0a8c 3CE0     		b	.L317
 1463              	.L304:
 1464 0a8e 4FF40023 		mov	r3, #524288
 1465 0a92 39E0     		b	.L317
 1466              	.L303:
 1467 0a94 4FF40023 		mov	r3, #524288
 1468 0a98 36E0     		b	.L317
 1469              	.L532:
 1470 0a9a 00BF     		.align	2
 1471              	.L531:
 1472 0a9c 00640240 		.word	1073898496
 1473 0aa0 B8600240 		.word	1073897656
 1474 0aa4 10600240 		.word	1073897488
 1475 0aa8 10640240 		.word	1073898512
 1476 0aac 70600240 		.word	1073897584
 1477 0ab0 70640240 		.word	1073898608
 1478 0ab4 28600240 		.word	1073897512
 1479 0ab8 28640240 		.word	1073898536
 1480 0abc 88600240 		.word	1073897608
 1481 0ac0 88640240 		.word	1073898632
 1482 0ac4 40600240 		.word	1073897536
 1483 0ac8 40640240 		.word	1073898560
 1484 0acc A0600240 		.word	1073897632
 1485 0ad0 A0640240 		.word	1073898656
ARM GAS  C:\msys64\tmp\ccAtyqF0.s 			page 27


 1486 0ad4 58600240 		.word	1073897560
 1487 0ad8 00600240 		.word	1073897472
 1488              	.L302:
 1489 0adc 4FF40023 		mov	r3, #524288
 1490 0ae0 12E0     		b	.L317
 1491              	.L301:
 1492 0ae2 4FF40073 		mov	r3, #512
 1493 0ae6 0FE0     		b	.L317
 1494              	.L300:
 1495 0ae8 4FF40073 		mov	r3, #512
 1496 0aec 0CE0     		b	.L317
 1497              	.L299:
 1498 0aee 4FF40073 		mov	r3, #512
 1499 0af2 09E0     		b	.L317
 1500              	.L298:
 1501 0af4 4FF40073 		mov	r3, #512
 1502 0af8 06E0     		b	.L317
 1503              	.L297:
 1504 0afa 0823     		movs	r3, #8
 1505 0afc 04E0     		b	.L317
 1506              	.L296:
 1507 0afe 0823     		movs	r3, #8
 1508 0b00 02E0     		b	.L317
 1509              	.L295:
 1510 0b02 0823     		movs	r3, #8
 1511 0b04 00E0     		b	.L317
 1512              	.L294:
 1513 0b06 0823     		movs	r3, #8
 1514              	.L317:
 1515 0b08 8A4A     		ldr	r2, .L533
 1516 0b0a 9360     		str	r3, [r2, #8]
 1517              	.L241:
 1518 0b0c FB68     		ldr	r3, [r7, #12]
 1519 0b0e 1B68     		ldr	r3, [r3]
 1520 0b10 1A46     		mov	r2, r3
 1521 0b12 894B     		ldr	r3, .L533+4
 1522 0b14 9A42     		cmp	r2, r3
 1523 0b16 60D9     		bls	.L318
 1524 0b18 FB68     		ldr	r3, [r7, #12]
 1525 0b1a 1B68     		ldr	r3, [r3]
 1526 0b1c 874A     		ldr	r2, .L533+8
 1527 0b1e 9342     		cmp	r3, r2
 1528 0b20 57D0     		beq	.L319
 1529 0b22 FB68     		ldr	r3, [r7, #12]
 1530 0b24 1B68     		ldr	r3, [r3]
 1531 0b26 864A     		ldr	r2, .L533+12
 1532 0b28 9342     		cmp	r3, r2
 1533 0b2a 50D0     		beq	.L320
 1534 0b2c FB68     		ldr	r3, [r7, #12]
 1535 0b2e 1B68     		ldr	r3, [r3]
 1536 0b30 844A     		ldr	r2, .L533+16
 1537 0b32 9342     		cmp	r3, r2
 1538 0b34 49D0     		beq	.L321
 1539 0b36 FB68     		ldr	r3, [r7, #12]
 1540 0b38 1B68     		ldr	r3, [r3]
 1541 0b3a 834A     		ldr	r2, .L533+20
 1542 0b3c 9342     		cmp	r3, r2
ARM GAS  C:\msys64\tmp\ccAtyqF0.s 			page 28


 1543 0b3e 42D0     		beq	.L322
 1544 0b40 FB68     		ldr	r3, [r7, #12]
 1545 0b42 1B68     		ldr	r3, [r3]
 1546 0b44 814A     		ldr	r2, .L533+24
 1547 0b46 9342     		cmp	r3, r2
 1548 0b48 3AD0     		beq	.L323
 1549 0b4a FB68     		ldr	r3, [r7, #12]
 1550 0b4c 1B68     		ldr	r3, [r3]
 1551 0b4e 804A     		ldr	r2, .L533+28
 1552 0b50 9342     		cmp	r3, r2
 1553 0b52 32D0     		beq	.L324
 1554 0b54 FB68     		ldr	r3, [r7, #12]
 1555 0b56 1B68     		ldr	r3, [r3]
 1556 0b58 7E4A     		ldr	r2, .L533+32
 1557 0b5a 9342     		cmp	r3, r2
 1558 0b5c 2AD0     		beq	.L325
 1559 0b5e FB68     		ldr	r3, [r7, #12]
 1560 0b60 1B68     		ldr	r3, [r3]
 1561 0b62 7D4A     		ldr	r2, .L533+36
 1562 0b64 9342     		cmp	r3, r2
 1563 0b66 22D0     		beq	.L326
 1564 0b68 FB68     		ldr	r3, [r7, #12]
 1565 0b6a 1B68     		ldr	r3, [r3]
 1566 0b6c 7B4A     		ldr	r2, .L533+40
 1567 0b6e 9342     		cmp	r3, r2
 1568 0b70 1AD0     		beq	.L327
 1569 0b72 FB68     		ldr	r3, [r7, #12]
 1570 0b74 1B68     		ldr	r3, [r3]
 1571 0b76 7A4A     		ldr	r2, .L533+44
 1572 0b78 9342     		cmp	r3, r2
 1573 0b7a 12D0     		beq	.L328
 1574 0b7c FB68     		ldr	r3, [r7, #12]
 1575 0b7e 1B68     		ldr	r3, [r3]
 1576 0b80 784A     		ldr	r2, .L533+48
 1577 0b82 9342     		cmp	r3, r2
 1578 0b84 0AD0     		beq	.L329
 1579 0b86 FB68     		ldr	r3, [r7, #12]
 1580 0b88 1B68     		ldr	r3, [r3]
 1581 0b8a 774A     		ldr	r2, .L533+52
 1582 0b8c 9342     		cmp	r3, r2
 1583 0b8e 02D1     		bne	.L330
 1584 0b90 4FF48023 		mov	r3, #262144
 1585 0b94 1EE0     		b	.L342
 1586              	.L330:
 1587 0b96 4FF08073 		mov	r3, #16777216
 1588 0b9a 1BE0     		b	.L342
 1589              	.L329:
 1590 0b9c 4FF48023 		mov	r3, #262144
 1591 0ba0 18E0     		b	.L342
 1592              	.L328:
 1593 0ba2 4FF48023 		mov	r3, #262144
 1594 0ba6 15E0     		b	.L342
 1595              	.L327:
 1596 0ba8 4FF48023 		mov	r3, #262144
 1597 0bac 12E0     		b	.L342
 1598              	.L326:
 1599 0bae 4FF48073 		mov	r3, #256
ARM GAS  C:\msys64\tmp\ccAtyqF0.s 			page 29


 1600 0bb2 0FE0     		b	.L342
 1601              	.L325:
 1602 0bb4 4FF48073 		mov	r3, #256
 1603 0bb8 0CE0     		b	.L342
 1604              	.L324:
 1605 0bba 4FF48073 		mov	r3, #256
 1606 0bbe 09E0     		b	.L342
 1607              	.L323:
 1608 0bc0 4FF48073 		mov	r3, #256
 1609 0bc4 06E0     		b	.L342
 1610              	.L322:
 1611 0bc6 0423     		movs	r3, #4
 1612 0bc8 04E0     		b	.L342
 1613              	.L321:
 1614 0bca 0423     		movs	r3, #4
 1615 0bcc 02E0     		b	.L342
 1616              	.L320:
 1617 0bce 0423     		movs	r3, #4
 1618 0bd0 00E0     		b	.L342
 1619              	.L319:
 1620 0bd2 0423     		movs	r3, #4
 1621              	.L342:
 1622 0bd4 654A     		ldr	r2, .L533+56
 1623 0bd6 D360     		str	r3, [r2, #12]
 1624 0bd8 50E1     		b	.L343
 1625              	.L318:
 1626 0bda FB68     		ldr	r3, [r7, #12]
 1627 0bdc 1B68     		ldr	r3, [r3]
 1628 0bde 1A46     		mov	r2, r3
 1629 0be0 634B     		ldr	r3, .L533+60
 1630 0be2 9A42     		cmp	r2, r3
 1631 0be4 60D9     		bls	.L344
 1632 0be6 FB68     		ldr	r3, [r7, #12]
 1633 0be8 1B68     		ldr	r3, [r3]
 1634 0bea 544A     		ldr	r2, .L533+8
 1635 0bec 9342     		cmp	r3, r2
 1636 0bee 57D0     		beq	.L345
 1637 0bf0 FB68     		ldr	r3, [r7, #12]
 1638 0bf2 1B68     		ldr	r3, [r3]
 1639 0bf4 524A     		ldr	r2, .L533+12
 1640 0bf6 9342     		cmp	r3, r2
 1641 0bf8 50D0     		beq	.L346
 1642 0bfa FB68     		ldr	r3, [r7, #12]
 1643 0bfc 1B68     		ldr	r3, [r3]
 1644 0bfe 514A     		ldr	r2, .L533+16
 1645 0c00 9342     		cmp	r3, r2
 1646 0c02 49D0     		beq	.L347
 1647 0c04 FB68     		ldr	r3, [r7, #12]
 1648 0c06 1B68     		ldr	r3, [r3]
 1649 0c08 4F4A     		ldr	r2, .L533+20
 1650 0c0a 9342     		cmp	r3, r2
 1651 0c0c 42D0     		beq	.L348
 1652 0c0e FB68     		ldr	r3, [r7, #12]
 1653 0c10 1B68     		ldr	r3, [r3]
 1654 0c12 4E4A     		ldr	r2, .L533+24
 1655 0c14 9342     		cmp	r3, r2
 1656 0c16 3AD0     		beq	.L349
ARM GAS  C:\msys64\tmp\ccAtyqF0.s 			page 30


 1657 0c18 FB68     		ldr	r3, [r7, #12]
 1658 0c1a 1B68     		ldr	r3, [r3]
 1659 0c1c 4C4A     		ldr	r2, .L533+28
 1660 0c1e 9342     		cmp	r3, r2
 1661 0c20 32D0     		beq	.L350
 1662 0c22 FB68     		ldr	r3, [r7, #12]
 1663 0c24 1B68     		ldr	r3, [r3]
 1664 0c26 4B4A     		ldr	r2, .L533+32
 1665 0c28 9342     		cmp	r3, r2
 1666 0c2a 2AD0     		beq	.L351
 1667 0c2c FB68     		ldr	r3, [r7, #12]
 1668 0c2e 1B68     		ldr	r3, [r3]
 1669 0c30 494A     		ldr	r2, .L533+36
 1670 0c32 9342     		cmp	r3, r2
 1671 0c34 22D0     		beq	.L352
 1672 0c36 FB68     		ldr	r3, [r7, #12]
 1673 0c38 1B68     		ldr	r3, [r3]
 1674 0c3a 484A     		ldr	r2, .L533+40
 1675 0c3c 9342     		cmp	r3, r2
 1676 0c3e 1AD0     		beq	.L353
 1677 0c40 FB68     		ldr	r3, [r7, #12]
 1678 0c42 1B68     		ldr	r3, [r3]
 1679 0c44 464A     		ldr	r2, .L533+44
 1680 0c46 9342     		cmp	r3, r2
 1681 0c48 12D0     		beq	.L354
 1682 0c4a FB68     		ldr	r3, [r7, #12]
 1683 0c4c 1B68     		ldr	r3, [r3]
 1684 0c4e 454A     		ldr	r2, .L533+48
 1685 0c50 9342     		cmp	r3, r2
 1686 0c52 0AD0     		beq	.L355
 1687 0c54 FB68     		ldr	r3, [r7, #12]
 1688 0c56 1B68     		ldr	r3, [r3]
 1689 0c58 434A     		ldr	r2, .L533+52
 1690 0c5a 9342     		cmp	r3, r2
 1691 0c5c 02D1     		bne	.L356
 1692 0c5e 4FF48023 		mov	r3, #262144
 1693 0c62 1EE0     		b	.L368
 1694              	.L356:
 1695 0c64 4FF08073 		mov	r3, #16777216
 1696 0c68 1BE0     		b	.L368
 1697              	.L355:
 1698 0c6a 4FF48023 		mov	r3, #262144
 1699 0c6e 18E0     		b	.L368
 1700              	.L354:
 1701 0c70 4FF48023 		mov	r3, #262144
 1702 0c74 15E0     		b	.L368
 1703              	.L353:
 1704 0c76 4FF48023 		mov	r3, #262144
 1705 0c7a 12E0     		b	.L368
 1706              	.L352:
 1707 0c7c 4FF48073 		mov	r3, #256
 1708 0c80 0FE0     		b	.L368
 1709              	.L351:
 1710 0c82 4FF48073 		mov	r3, #256
 1711 0c86 0CE0     		b	.L368
 1712              	.L350:
 1713 0c88 4FF48073 		mov	r3, #256
ARM GAS  C:\msys64\tmp\ccAtyqF0.s 			page 31


 1714 0c8c 09E0     		b	.L368
 1715              	.L349:
 1716 0c8e 4FF48073 		mov	r3, #256
 1717 0c92 06E0     		b	.L368
 1718              	.L348:
 1719 0c94 0423     		movs	r3, #4
 1720 0c96 04E0     		b	.L368
 1721              	.L347:
 1722 0c98 0423     		movs	r3, #4
 1723 0c9a 02E0     		b	.L368
 1724              	.L346:
 1725 0c9c 0423     		movs	r3, #4
 1726 0c9e 00E0     		b	.L368
 1727              	.L345:
 1728 0ca0 0423     		movs	r3, #4
 1729              	.L368:
 1730 0ca2 324A     		ldr	r2, .L533+56
 1731 0ca4 9360     		str	r3, [r2, #8]
 1732 0ca6 E9E0     		b	.L343
 1733              	.L344:
 1734 0ca8 FB68     		ldr	r3, [r7, #12]
 1735 0caa 1B68     		ldr	r3, [r3]
 1736 0cac 1A46     		mov	r2, r3
 1737 0cae 314B     		ldr	r3, .L533+64
 1738 0cb0 9A42     		cmp	r2, r3
 1739 0cb2 40F28380 		bls	.L370
 1740 0cb6 FB68     		ldr	r3, [r7, #12]
 1741 0cb8 1B68     		ldr	r3, [r3]
 1742 0cba 204A     		ldr	r2, .L533+8
 1743 0cbc 9342     		cmp	r3, r2
 1744 0cbe 79D0     		beq	.L371
 1745 0cc0 FB68     		ldr	r3, [r7, #12]
 1746 0cc2 1B68     		ldr	r3, [r3]
 1747 0cc4 1E4A     		ldr	r2, .L533+12
 1748 0cc6 9342     		cmp	r3, r2
 1749 0cc8 72D0     		beq	.L372
 1750 0cca FB68     		ldr	r3, [r7, #12]
 1751 0ccc 1B68     		ldr	r3, [r3]
 1752 0cce 1D4A     		ldr	r2, .L533+16
 1753 0cd0 9342     		cmp	r3, r2
 1754 0cd2 6BD0     		beq	.L373
 1755 0cd4 FB68     		ldr	r3, [r7, #12]
 1756 0cd6 1B68     		ldr	r3, [r3]
 1757 0cd8 1B4A     		ldr	r2, .L533+20
 1758 0cda 9342     		cmp	r3, r2
 1759 0cdc 64D0     		beq	.L374
 1760 0cde FB68     		ldr	r3, [r7, #12]
 1761 0ce0 1B68     		ldr	r3, [r3]
 1762 0ce2 1A4A     		ldr	r2, .L533+24
 1763 0ce4 9342     		cmp	r3, r2
 1764 0ce6 5CD0     		beq	.L375
 1765 0ce8 FB68     		ldr	r3, [r7, #12]
 1766 0cea 1B68     		ldr	r3, [r3]
 1767 0cec 184A     		ldr	r2, .L533+28
 1768 0cee 9342     		cmp	r3, r2
 1769 0cf0 54D0     		beq	.L376
 1770 0cf2 FB68     		ldr	r3, [r7, #12]
ARM GAS  C:\msys64\tmp\ccAtyqF0.s 			page 32


 1771 0cf4 1B68     		ldr	r3, [r3]
 1772 0cf6 174A     		ldr	r2, .L533+32
 1773 0cf8 9342     		cmp	r3, r2
 1774 0cfa 4CD0     		beq	.L377
 1775 0cfc FB68     		ldr	r3, [r7, #12]
 1776 0cfe 1B68     		ldr	r3, [r3]
 1777 0d00 154A     		ldr	r2, .L533+36
 1778 0d02 9342     		cmp	r3, r2
 1779 0d04 44D0     		beq	.L378
 1780 0d06 FB68     		ldr	r3, [r7, #12]
 1781 0d08 1B68     		ldr	r3, [r3]
 1782 0d0a 144A     		ldr	r2, .L533+40
 1783 0d0c 9342     		cmp	r3, r2
 1784 0d0e 3CD0     		beq	.L379
 1785 0d10 FB68     		ldr	r3, [r7, #12]
 1786 0d12 1B68     		ldr	r3, [r3]
 1787 0d14 124A     		ldr	r2, .L533+44
 1788 0d16 9342     		cmp	r3, r2
 1789 0d18 34D0     		beq	.L380
 1790 0d1a FB68     		ldr	r3, [r7, #12]
 1791 0d1c 1B68     		ldr	r3, [r3]
 1792 0d1e 114A     		ldr	r2, .L533+48
 1793 0d20 9342     		cmp	r3, r2
 1794 0d22 2CD0     		beq	.L381
 1795 0d24 FB68     		ldr	r3, [r7, #12]
 1796 0d26 1B68     		ldr	r3, [r3]
 1797 0d28 0F4A     		ldr	r2, .L533+52
 1798 0d2a 9342     		cmp	r3, r2
 1799 0d2c 24D1     		bne	.L382
 1800 0d2e 4FF48023 		mov	r3, #262144
 1801 0d32 40E0     		b	.L394
 1802              	.L534:
 1803              		.align	2
 1804              	.L533:
 1805 0d34 00600240 		.word	1073897472
 1806 0d38 58640240 		.word	1073898584
 1807 0d3c 10600240 		.word	1073897488
 1808 0d40 10640240 		.word	1073898512
 1809 0d44 70600240 		.word	1073897584
 1810 0d48 70640240 		.word	1073898608
 1811 0d4c 28600240 		.word	1073897512
 1812 0d50 28640240 		.word	1073898536
 1813 0d54 88600240 		.word	1073897608
 1814 0d58 88640240 		.word	1073898632
 1815 0d5c 40600240 		.word	1073897536
 1816 0d60 40640240 		.word	1073898560
 1817 0d64 A0600240 		.word	1073897632
 1818 0d68 A0640240 		.word	1073898656
 1819 0d6c 00640240 		.word	1073898496
 1820 0d70 B8600240 		.word	1073897656
 1821 0d74 58600240 		.word	1073897560
 1822              	.L382:
 1823 0d78 4FF08073 		mov	r3, #16777216
 1824 0d7c 1BE0     		b	.L394
 1825              	.L381:
 1826 0d7e 4FF48023 		mov	r3, #262144
 1827 0d82 18E0     		b	.L394
ARM GAS  C:\msys64\tmp\ccAtyqF0.s 			page 33


 1828              	.L380:
 1829 0d84 4FF48023 		mov	r3, #262144
 1830 0d88 15E0     		b	.L394
 1831              	.L379:
 1832 0d8a 4FF48023 		mov	r3, #262144
 1833 0d8e 12E0     		b	.L394
 1834              	.L378:
 1835 0d90 4FF48073 		mov	r3, #256
 1836 0d94 0FE0     		b	.L394
 1837              	.L377:
 1838 0d96 4FF48073 		mov	r3, #256
 1839 0d9a 0CE0     		b	.L394
 1840              	.L376:
 1841 0d9c 4FF48073 		mov	r3, #256
 1842 0da0 09E0     		b	.L394
 1843              	.L375:
 1844 0da2 4FF48073 		mov	r3, #256
 1845 0da6 06E0     		b	.L394
 1846              	.L374:
 1847 0da8 0423     		movs	r3, #4
 1848 0daa 04E0     		b	.L394
 1849              	.L373:
 1850 0dac 0423     		movs	r3, #4
 1851 0dae 02E0     		b	.L394
 1852              	.L372:
 1853 0db0 0423     		movs	r3, #4
 1854 0db2 00E0     		b	.L394
 1855              	.L371:
 1856 0db4 0423     		movs	r3, #4
 1857              	.L394:
 1858 0db6 8B4A     		ldr	r2, .L535
 1859 0db8 D360     		str	r3, [r2, #12]
 1860 0dba 5FE0     		b	.L343
 1861              	.L370:
 1862 0dbc FB68     		ldr	r3, [r7, #12]
 1863 0dbe 1B68     		ldr	r3, [r3]
 1864 0dc0 894A     		ldr	r2, .L535+4
 1865 0dc2 9342     		cmp	r3, r2
 1866 0dc4 57D0     		beq	.L396
 1867 0dc6 FB68     		ldr	r3, [r7, #12]
 1868 0dc8 1B68     		ldr	r3, [r3]
 1869 0dca 884A     		ldr	r2, .L535+8
 1870 0dcc 9342     		cmp	r3, r2
 1871 0dce 50D0     		beq	.L397
 1872 0dd0 FB68     		ldr	r3, [r7, #12]
 1873 0dd2 1B68     		ldr	r3, [r3]
 1874 0dd4 864A     		ldr	r2, .L535+12
 1875 0dd6 9342     		cmp	r3, r2
 1876 0dd8 49D0     		beq	.L398
 1877 0dda FB68     		ldr	r3, [r7, #12]
 1878 0ddc 1B68     		ldr	r3, [r3]
 1879 0dde 854A     		ldr	r2, .L535+16
 1880 0de0 9342     		cmp	r3, r2
 1881 0de2 42D0     		beq	.L399
 1882 0de4 FB68     		ldr	r3, [r7, #12]
 1883 0de6 1B68     		ldr	r3, [r3]
 1884 0de8 834A     		ldr	r2, .L535+20
ARM GAS  C:\msys64\tmp\ccAtyqF0.s 			page 34


 1885 0dea 9342     		cmp	r3, r2
 1886 0dec 3AD0     		beq	.L400
 1887 0dee FB68     		ldr	r3, [r7, #12]
 1888 0df0 1B68     		ldr	r3, [r3]
 1889 0df2 824A     		ldr	r2, .L535+24
 1890 0df4 9342     		cmp	r3, r2
 1891 0df6 32D0     		beq	.L401
 1892 0df8 FB68     		ldr	r3, [r7, #12]
 1893 0dfa 1B68     		ldr	r3, [r3]
 1894 0dfc 804A     		ldr	r2, .L535+28
 1895 0dfe 9342     		cmp	r3, r2
 1896 0e00 2AD0     		beq	.L402
 1897 0e02 FB68     		ldr	r3, [r7, #12]
 1898 0e04 1B68     		ldr	r3, [r3]
 1899 0e06 7F4A     		ldr	r2, .L535+32
 1900 0e08 9342     		cmp	r3, r2
 1901 0e0a 22D0     		beq	.L403
 1902 0e0c FB68     		ldr	r3, [r7, #12]
 1903 0e0e 1B68     		ldr	r3, [r3]
 1904 0e10 7D4A     		ldr	r2, .L535+36
 1905 0e12 9342     		cmp	r3, r2
 1906 0e14 1AD0     		beq	.L404
 1907 0e16 FB68     		ldr	r3, [r7, #12]
 1908 0e18 1B68     		ldr	r3, [r3]
 1909 0e1a 7C4A     		ldr	r2, .L535+40
 1910 0e1c 9342     		cmp	r3, r2
 1911 0e1e 12D0     		beq	.L405
 1912 0e20 FB68     		ldr	r3, [r7, #12]
 1913 0e22 1B68     		ldr	r3, [r3]
 1914 0e24 7A4A     		ldr	r2, .L535+44
 1915 0e26 9342     		cmp	r3, r2
 1916 0e28 0AD0     		beq	.L406
 1917 0e2a FB68     		ldr	r3, [r7, #12]
 1918 0e2c 1B68     		ldr	r3, [r3]
 1919 0e2e 794A     		ldr	r2, .L535+48
 1920 0e30 9342     		cmp	r3, r2
 1921 0e32 02D1     		bne	.L407
 1922 0e34 4FF48023 		mov	r3, #262144
 1923 0e38 1EE0     		b	.L419
 1924              	.L407:
 1925 0e3a 4FF08073 		mov	r3, #16777216
 1926 0e3e 1BE0     		b	.L419
 1927              	.L406:
 1928 0e40 4FF48023 		mov	r3, #262144
 1929 0e44 18E0     		b	.L419
 1930              	.L405:
 1931 0e46 4FF48023 		mov	r3, #262144
 1932 0e4a 15E0     		b	.L419
 1933              	.L404:
 1934 0e4c 4FF48023 		mov	r3, #262144
 1935 0e50 12E0     		b	.L419
 1936              	.L403:
 1937 0e52 4FF48073 		mov	r3, #256
 1938 0e56 0FE0     		b	.L419
 1939              	.L402:
 1940 0e58 4FF48073 		mov	r3, #256
 1941 0e5c 0CE0     		b	.L419
ARM GAS  C:\msys64\tmp\ccAtyqF0.s 			page 35


 1942              	.L401:
 1943 0e5e 4FF48073 		mov	r3, #256
 1944 0e62 09E0     		b	.L419
 1945              	.L400:
 1946 0e64 4FF48073 		mov	r3, #256
 1947 0e68 06E0     		b	.L419
 1948              	.L399:
 1949 0e6a 0423     		movs	r3, #4
 1950 0e6c 04E0     		b	.L419
 1951              	.L398:
 1952 0e6e 0423     		movs	r3, #4
 1953 0e70 02E0     		b	.L419
 1954              	.L397:
 1955 0e72 0423     		movs	r3, #4
 1956 0e74 00E0     		b	.L419
 1957              	.L396:
 1958 0e76 0423     		movs	r3, #4
 1959              	.L419:
 1960 0e78 5A4A     		ldr	r2, .L535
 1961 0e7a 9360     		str	r3, [r2, #8]
 1962              	.L343:
 1963 0e7c FB68     		ldr	r3, [r7, #12]
 1964 0e7e 1B68     		ldr	r3, [r3]
 1965 0e80 1A46     		mov	r2, r3
 1966 0e82 654B     		ldr	r3, .L535+52
 1967 0e84 9A42     		cmp	r2, r3
 1968 0e86 5CD9     		bls	.L420
 1969 0e88 FB68     		ldr	r3, [r7, #12]
 1970 0e8a 1B68     		ldr	r3, [r3]
 1971 0e8c 564A     		ldr	r2, .L535+4
 1972 0e8e 9342     		cmp	r3, r2
 1973 0e90 53D0     		beq	.L421
 1974 0e92 FB68     		ldr	r3, [r7, #12]
 1975 0e94 1B68     		ldr	r3, [r3]
 1976 0e96 554A     		ldr	r2, .L535+8
 1977 0e98 9342     		cmp	r3, r2
 1978 0e9a 4CD0     		beq	.L422
 1979 0e9c FB68     		ldr	r3, [r7, #12]
 1980 0e9e 1B68     		ldr	r3, [r3]
 1981 0ea0 534A     		ldr	r2, .L535+12
 1982 0ea2 9342     		cmp	r3, r2
 1983 0ea4 45D0     		beq	.L423
 1984 0ea6 FB68     		ldr	r3, [r7, #12]
 1985 0ea8 1B68     		ldr	r3, [r3]
 1986 0eaa 524A     		ldr	r2, .L535+16
 1987 0eac 9342     		cmp	r3, r2
 1988 0eae 3ED0     		beq	.L424
 1989 0eb0 FB68     		ldr	r3, [r7, #12]
 1990 0eb2 1B68     		ldr	r3, [r3]
 1991 0eb4 504A     		ldr	r2, .L535+20
 1992 0eb6 9342     		cmp	r3, r2
 1993 0eb8 37D0     		beq	.L425
 1994 0eba FB68     		ldr	r3, [r7, #12]
 1995 0ebc 1B68     		ldr	r3, [r3]
 1996 0ebe 4F4A     		ldr	r2, .L535+24
 1997 0ec0 9342     		cmp	r3, r2
 1998 0ec2 30D0     		beq	.L426
ARM GAS  C:\msys64\tmp\ccAtyqF0.s 			page 36


 1999 0ec4 FB68     		ldr	r3, [r7, #12]
 2000 0ec6 1B68     		ldr	r3, [r3]
 2001 0ec8 4D4A     		ldr	r2, .L535+28
 2002 0eca 9342     		cmp	r3, r2
 2003 0ecc 29D0     		beq	.L427
 2004 0ece FB68     		ldr	r3, [r7, #12]
 2005 0ed0 1B68     		ldr	r3, [r3]
 2006 0ed2 4C4A     		ldr	r2, .L535+32
 2007 0ed4 9342     		cmp	r3, r2
 2008 0ed6 22D0     		beq	.L428
 2009 0ed8 FB68     		ldr	r3, [r7, #12]
 2010 0eda 1B68     		ldr	r3, [r3]
 2011 0edc 4A4A     		ldr	r2, .L535+36
 2012 0ede 9342     		cmp	r3, r2
 2013 0ee0 1AD0     		beq	.L429
 2014 0ee2 FB68     		ldr	r3, [r7, #12]
 2015 0ee4 1B68     		ldr	r3, [r3]
 2016 0ee6 494A     		ldr	r2, .L535+40
 2017 0ee8 9342     		cmp	r3, r2
 2018 0eea 12D0     		beq	.L430
 2019 0eec FB68     		ldr	r3, [r7, #12]
 2020 0eee 1B68     		ldr	r3, [r3]
 2021 0ef0 474A     		ldr	r2, .L535+44
 2022 0ef2 9342     		cmp	r3, r2
 2023 0ef4 0AD0     		beq	.L431
 2024 0ef6 FB68     		ldr	r3, [r7, #12]
 2025 0ef8 1B68     		ldr	r3, [r3]
 2026 0efa 464A     		ldr	r2, .L535+48
 2027 0efc 9342     		cmp	r3, r2
 2028 0efe 02D1     		bne	.L432
 2029 0f00 4FF48033 		mov	r3, #65536
 2030 0f04 1AE0     		b	.L444
 2031              	.L432:
 2032 0f06 4FF48003 		mov	r3, #4194304
 2033 0f0a 17E0     		b	.L444
 2034              	.L431:
 2035 0f0c 4FF48033 		mov	r3, #65536
 2036 0f10 14E0     		b	.L444
 2037              	.L430:
 2038 0f12 4FF48033 		mov	r3, #65536
 2039 0f16 11E0     		b	.L444
 2040              	.L429:
 2041 0f18 4FF48033 		mov	r3, #65536
 2042 0f1c 0EE0     		b	.L444
 2043              	.L428:
 2044 0f1e 4023     		movs	r3, #64
 2045 0f20 0CE0     		b	.L444
 2046              	.L427:
 2047 0f22 4023     		movs	r3, #64
 2048 0f24 0AE0     		b	.L444
 2049              	.L426:
 2050 0f26 4023     		movs	r3, #64
 2051 0f28 08E0     		b	.L444
 2052              	.L425:
 2053 0f2a 4023     		movs	r3, #64
 2054 0f2c 06E0     		b	.L444
 2055              	.L424:
ARM GAS  C:\msys64\tmp\ccAtyqF0.s 			page 37


 2056 0f2e 0123     		movs	r3, #1
 2057 0f30 04E0     		b	.L444
 2058              	.L423:
 2059 0f32 0123     		movs	r3, #1
 2060 0f34 02E0     		b	.L444
 2061              	.L422:
 2062 0f36 0123     		movs	r3, #1
 2063 0f38 00E0     		b	.L444
 2064              	.L421:
 2065 0f3a 0123     		movs	r3, #1
 2066              	.L444:
 2067 0f3c 374A     		ldr	r2, .L535+56
 2068 0f3e D360     		str	r3, [r2, #12]
 2069 0f40 41E1     		b	.L445
 2070              	.L420:
 2071 0f42 FB68     		ldr	r3, [r7, #12]
 2072 0f44 1B68     		ldr	r3, [r3]
 2073 0f46 1A46     		mov	r2, r3
 2074 0f48 354B     		ldr	r3, .L535+60
 2075 0f4a 9A42     		cmp	r2, r3
 2076 0f4c 7CD9     		bls	.L446
 2077 0f4e FB68     		ldr	r3, [r7, #12]
 2078 0f50 1B68     		ldr	r3, [r3]
 2079 0f52 254A     		ldr	r2, .L535+4
 2080 0f54 9342     		cmp	r3, r2
 2081 0f56 73D0     		beq	.L447
 2082 0f58 FB68     		ldr	r3, [r7, #12]
 2083 0f5a 1B68     		ldr	r3, [r3]
 2084 0f5c 234A     		ldr	r2, .L535+8
 2085 0f5e 9342     		cmp	r3, r2
 2086 0f60 6CD0     		beq	.L448
 2087 0f62 FB68     		ldr	r3, [r7, #12]
 2088 0f64 1B68     		ldr	r3, [r3]
 2089 0f66 224A     		ldr	r2, .L535+12
 2090 0f68 9342     		cmp	r3, r2
 2091 0f6a 65D0     		beq	.L449
 2092 0f6c FB68     		ldr	r3, [r7, #12]
 2093 0f6e 1B68     		ldr	r3, [r3]
 2094 0f70 204A     		ldr	r2, .L535+16
 2095 0f72 9342     		cmp	r3, r2
 2096 0f74 5ED0     		beq	.L450
 2097 0f76 FB68     		ldr	r3, [r7, #12]
 2098 0f78 1B68     		ldr	r3, [r3]
 2099 0f7a 1F4A     		ldr	r2, .L535+20
 2100 0f7c 9342     		cmp	r3, r2
 2101 0f7e 57D0     		beq	.L451
 2102 0f80 FB68     		ldr	r3, [r7, #12]
 2103 0f82 1B68     		ldr	r3, [r3]
 2104 0f84 1D4A     		ldr	r2, .L535+24
 2105 0f86 9342     		cmp	r3, r2
 2106 0f88 50D0     		beq	.L452
 2107 0f8a FB68     		ldr	r3, [r7, #12]
 2108 0f8c 1B68     		ldr	r3, [r3]
 2109 0f8e 1C4A     		ldr	r2, .L535+28
 2110 0f90 9342     		cmp	r3, r2
 2111 0f92 49D0     		beq	.L453
 2112 0f94 FB68     		ldr	r3, [r7, #12]
ARM GAS  C:\msys64\tmp\ccAtyqF0.s 			page 38


 2113 0f96 1B68     		ldr	r3, [r3]
 2114 0f98 1A4A     		ldr	r2, .L535+32
 2115 0f9a 9342     		cmp	r3, r2
 2116 0f9c 42D0     		beq	.L454
 2117 0f9e FB68     		ldr	r3, [r7, #12]
 2118 0fa0 1B68     		ldr	r3, [r3]
 2119 0fa2 194A     		ldr	r2, .L535+36
 2120 0fa4 9342     		cmp	r3, r2
 2121 0fa6 1AD0     		beq	.L455
 2122 0fa8 FB68     		ldr	r3, [r7, #12]
 2123 0faa 1B68     		ldr	r3, [r3]
 2124 0fac 174A     		ldr	r2, .L535+40
 2125 0fae 9342     		cmp	r3, r2
 2126 0fb0 12D0     		beq	.L456
 2127 0fb2 FB68     		ldr	r3, [r7, #12]
 2128 0fb4 1B68     		ldr	r3, [r3]
 2129 0fb6 164A     		ldr	r2, .L535+44
 2130 0fb8 9342     		cmp	r3, r2
 2131 0fba 0AD0     		beq	.L457
 2132 0fbc FB68     		ldr	r3, [r7, #12]
 2133 0fbe 1B68     		ldr	r3, [r3]
 2134 0fc0 144A     		ldr	r2, .L535+48
 2135 0fc2 9342     		cmp	r3, r2
 2136 0fc4 02D1     		bne	.L458
 2137 0fc6 4FF48033 		mov	r3, #65536
 2138 0fca 3AE0     		b	.L470
 2139              	.L458:
 2140 0fcc 4FF48003 		mov	r3, #4194304
 2141 0fd0 37E0     		b	.L470
 2142              	.L457:
 2143 0fd2 4FF48033 		mov	r3, #65536
 2144 0fd6 34E0     		b	.L470
 2145              	.L456:
 2146 0fd8 4FF48033 		mov	r3, #65536
 2147 0fdc 31E0     		b	.L470
 2148              	.L455:
 2149 0fde 4FF48033 		mov	r3, #65536
 2150 0fe2 2EE0     		b	.L470
 2151              	.L536:
 2152              		.align	2
 2153              	.L535:
 2154 0fe4 00600240 		.word	1073897472
 2155 0fe8 10600240 		.word	1073897488
 2156 0fec 10640240 		.word	1073898512
 2157 0ff0 70600240 		.word	1073897584
 2158 0ff4 70640240 		.word	1073898608
 2159 0ff8 28600240 		.word	1073897512
 2160 0ffc 28640240 		.word	1073898536
 2161 1000 88600240 		.word	1073897608
 2162 1004 88640240 		.word	1073898632
 2163 1008 40600240 		.word	1073897536
 2164 100c 40640240 		.word	1073898560
 2165 1010 A0600240 		.word	1073897632
 2166 1014 A0640240 		.word	1073898656
 2167 1018 58640240 		.word	1073898584
 2168 101c 00640240 		.word	1073898496
 2169 1020 B8600240 		.word	1073897656
ARM GAS  C:\msys64\tmp\ccAtyqF0.s 			page 39


 2170              	.L454:
 2171 1024 4023     		movs	r3, #64
 2172 1026 0CE0     		b	.L470
 2173              	.L453:
 2174 1028 4023     		movs	r3, #64
 2175 102a 0AE0     		b	.L470
 2176              	.L452:
 2177 102c 4023     		movs	r3, #64
 2178 102e 08E0     		b	.L470
 2179              	.L451:
 2180 1030 4023     		movs	r3, #64
 2181 1032 06E0     		b	.L470
 2182              	.L450:
 2183 1034 0123     		movs	r3, #1
 2184 1036 04E0     		b	.L470
 2185              	.L449:
 2186 1038 0123     		movs	r3, #1
 2187 103a 02E0     		b	.L470
 2188              	.L448:
 2189 103c 0123     		movs	r3, #1
 2190 103e 00E0     		b	.L470
 2191              	.L447:
 2192 1040 0123     		movs	r3, #1
 2193              	.L470:
 2194 1042 7B4A     		ldr	r2, .L537
 2195 1044 9360     		str	r3, [r2, #8]
 2196 1046 BEE0     		b	.L445
 2197              	.L446:
 2198 1048 FB68     		ldr	r3, [r7, #12]
 2199 104a 1B68     		ldr	r3, [r3]
 2200 104c 1A46     		mov	r2, r3
 2201 104e 794B     		ldr	r3, .L537+4
 2202 1050 9A42     		cmp	r2, r3
 2203 1052 5CD9     		bls	.L472
 2204 1054 FB68     		ldr	r3, [r7, #12]
 2205 1056 1B68     		ldr	r3, [r3]
 2206 1058 774A     		ldr	r2, .L537+8
 2207 105a 9342     		cmp	r3, r2
 2208 105c 53D0     		beq	.L473
 2209 105e FB68     		ldr	r3, [r7, #12]
 2210 1060 1B68     		ldr	r3, [r3]
 2211 1062 764A     		ldr	r2, .L537+12
 2212 1064 9342     		cmp	r3, r2
 2213 1066 4CD0     		beq	.L474
 2214 1068 FB68     		ldr	r3, [r7, #12]
 2215 106a 1B68     		ldr	r3, [r3]
 2216 106c 744A     		ldr	r2, .L537+16
 2217 106e 9342     		cmp	r3, r2
 2218 1070 45D0     		beq	.L475
 2219 1072 FB68     		ldr	r3, [r7, #12]
 2220 1074 1B68     		ldr	r3, [r3]
 2221 1076 734A     		ldr	r2, .L537+20
 2222 1078 9342     		cmp	r3, r2
 2223 107a 3ED0     		beq	.L476
 2224 107c FB68     		ldr	r3, [r7, #12]
 2225 107e 1B68     		ldr	r3, [r3]
 2226 1080 714A     		ldr	r2, .L537+24
ARM GAS  C:\msys64\tmp\ccAtyqF0.s 			page 40


 2227 1082 9342     		cmp	r3, r2
 2228 1084 37D0     		beq	.L477
 2229 1086 FB68     		ldr	r3, [r7, #12]
 2230 1088 1B68     		ldr	r3, [r3]
 2231 108a 704A     		ldr	r2, .L537+28
 2232 108c 9342     		cmp	r3, r2
 2233 108e 30D0     		beq	.L478
 2234 1090 FB68     		ldr	r3, [r7, #12]
 2235 1092 1B68     		ldr	r3, [r3]
 2236 1094 6E4A     		ldr	r2, .L537+32
 2237 1096 9342     		cmp	r3, r2
 2238 1098 29D0     		beq	.L479
 2239 109a FB68     		ldr	r3, [r7, #12]
 2240 109c 1B68     		ldr	r3, [r3]
 2241 109e 6D4A     		ldr	r2, .L537+36
 2242 10a0 9342     		cmp	r3, r2
 2243 10a2 22D0     		beq	.L480
 2244 10a4 FB68     		ldr	r3, [r7, #12]
 2245 10a6 1B68     		ldr	r3, [r3]
 2246 10a8 6B4A     		ldr	r2, .L537+40
 2247 10aa 9342     		cmp	r3, r2
 2248 10ac 1AD0     		beq	.L481
 2249 10ae FB68     		ldr	r3, [r7, #12]
 2250 10b0 1B68     		ldr	r3, [r3]
 2251 10b2 6A4A     		ldr	r2, .L537+44
 2252 10b4 9342     		cmp	r3, r2
 2253 10b6 12D0     		beq	.L482
 2254 10b8 FB68     		ldr	r3, [r7, #12]
 2255 10ba 1B68     		ldr	r3, [r3]
 2256 10bc 684A     		ldr	r2, .L537+48
 2257 10be 9342     		cmp	r3, r2
 2258 10c0 0AD0     		beq	.L483
 2259 10c2 FB68     		ldr	r3, [r7, #12]
 2260 10c4 1B68     		ldr	r3, [r3]
 2261 10c6 674A     		ldr	r2, .L537+52
 2262 10c8 9342     		cmp	r3, r2
 2263 10ca 02D1     		bne	.L484
 2264 10cc 4FF48033 		mov	r3, #65536
 2265 10d0 1AE0     		b	.L496
 2266              	.L484:
 2267 10d2 4FF48003 		mov	r3, #4194304
 2268 10d6 17E0     		b	.L496
 2269              	.L483:
 2270 10d8 4FF48033 		mov	r3, #65536
 2271 10dc 14E0     		b	.L496
 2272              	.L482:
 2273 10de 4FF48033 		mov	r3, #65536
 2274 10e2 11E0     		b	.L496
 2275              	.L481:
 2276 10e4 4FF48033 		mov	r3, #65536
 2277 10e8 0EE0     		b	.L496
 2278              	.L480:
 2279 10ea 4023     		movs	r3, #64
 2280 10ec 0CE0     		b	.L496
 2281              	.L479:
 2282 10ee 4023     		movs	r3, #64
 2283 10f0 0AE0     		b	.L496
ARM GAS  C:\msys64\tmp\ccAtyqF0.s 			page 41


 2284              	.L478:
 2285 10f2 4023     		movs	r3, #64
 2286 10f4 08E0     		b	.L496
 2287              	.L477:
 2288 10f6 4023     		movs	r3, #64
 2289 10f8 06E0     		b	.L496
 2290              	.L476:
 2291 10fa 0123     		movs	r3, #1
 2292 10fc 04E0     		b	.L496
 2293              	.L475:
 2294 10fe 0123     		movs	r3, #1
 2295 1100 02E0     		b	.L496
 2296              	.L474:
 2297 1102 0123     		movs	r3, #1
 2298 1104 00E0     		b	.L496
 2299              	.L473:
 2300 1106 0123     		movs	r3, #1
 2301              	.L496:
 2302 1108 574A     		ldr	r2, .L537+56
 2303 110a D360     		str	r3, [r2, #12]
 2304 110c 5BE0     		b	.L445
 2305              	.L472:
 2306 110e FB68     		ldr	r3, [r7, #12]
 2307 1110 1B68     		ldr	r3, [r3]
 2308 1112 494A     		ldr	r2, .L537+8
 2309 1114 9342     		cmp	r3, r2
 2310 1116 53D0     		beq	.L498
 2311 1118 FB68     		ldr	r3, [r7, #12]
 2312 111a 1B68     		ldr	r3, [r3]
 2313 111c 474A     		ldr	r2, .L537+12
 2314 111e 9342     		cmp	r3, r2
 2315 1120 4CD0     		beq	.L499
 2316 1122 FB68     		ldr	r3, [r7, #12]
 2317 1124 1B68     		ldr	r3, [r3]
 2318 1126 464A     		ldr	r2, .L537+16
 2319 1128 9342     		cmp	r3, r2
 2320 112a 45D0     		beq	.L500
 2321 112c FB68     		ldr	r3, [r7, #12]
 2322 112e 1B68     		ldr	r3, [r3]
 2323 1130 444A     		ldr	r2, .L537+20
 2324 1132 9342     		cmp	r3, r2
 2325 1134 3ED0     		beq	.L501
 2326 1136 FB68     		ldr	r3, [r7, #12]
 2327 1138 1B68     		ldr	r3, [r3]
 2328 113a 434A     		ldr	r2, .L537+24
 2329 113c 9342     		cmp	r3, r2
 2330 113e 37D0     		beq	.L502
 2331 1140 FB68     		ldr	r3, [r7, #12]
 2332 1142 1B68     		ldr	r3, [r3]
 2333 1144 414A     		ldr	r2, .L537+28
 2334 1146 9342     		cmp	r3, r2
 2335 1148 30D0     		beq	.L503
 2336 114a FB68     		ldr	r3, [r7, #12]
 2337 114c 1B68     		ldr	r3, [r3]
 2338 114e 404A     		ldr	r2, .L537+32
 2339 1150 9342     		cmp	r3, r2
 2340 1152 29D0     		beq	.L504
ARM GAS  C:\msys64\tmp\ccAtyqF0.s 			page 42


 2341 1154 FB68     		ldr	r3, [r7, #12]
 2342 1156 1B68     		ldr	r3, [r3]
 2343 1158 3E4A     		ldr	r2, .L537+36
 2344 115a 9342     		cmp	r3, r2
 2345 115c 22D0     		beq	.L505
 2346 115e FB68     		ldr	r3, [r7, #12]
 2347 1160 1B68     		ldr	r3, [r3]
 2348 1162 3D4A     		ldr	r2, .L537+40
 2349 1164 9342     		cmp	r3, r2
 2350 1166 1AD0     		beq	.L506
 2351 1168 FB68     		ldr	r3, [r7, #12]
 2352 116a 1B68     		ldr	r3, [r3]
 2353 116c 3B4A     		ldr	r2, .L537+44
 2354 116e 9342     		cmp	r3, r2
 2355 1170 12D0     		beq	.L507
 2356 1172 FB68     		ldr	r3, [r7, #12]
 2357 1174 1B68     		ldr	r3, [r3]
 2358 1176 3A4A     		ldr	r2, .L537+48
 2359 1178 9342     		cmp	r3, r2
 2360 117a 0AD0     		beq	.L508
 2361 117c FB68     		ldr	r3, [r7, #12]
 2362 117e 1B68     		ldr	r3, [r3]
 2363 1180 384A     		ldr	r2, .L537+52
 2364 1182 9342     		cmp	r3, r2
 2365 1184 02D1     		bne	.L509
 2366 1186 4FF48033 		mov	r3, #65536
 2367 118a 1AE0     		b	.L521
 2368              	.L509:
 2369 118c 4FF48003 		mov	r3, #4194304
 2370 1190 17E0     		b	.L521
 2371              	.L508:
 2372 1192 4FF48033 		mov	r3, #65536
 2373 1196 14E0     		b	.L521
 2374              	.L507:
 2375 1198 4FF48033 		mov	r3, #65536
 2376 119c 11E0     		b	.L521
 2377              	.L506:
 2378 119e 4FF48033 		mov	r3, #65536
 2379 11a2 0EE0     		b	.L521
 2380              	.L505:
 2381 11a4 4023     		movs	r3, #64
 2382 11a6 0CE0     		b	.L521
 2383              	.L504:
 2384 11a8 4023     		movs	r3, #64
 2385 11aa 0AE0     		b	.L521
 2386              	.L503:
 2387 11ac 4023     		movs	r3, #64
 2388 11ae 08E0     		b	.L521
 2389              	.L502:
 2390 11b0 4023     		movs	r3, #64
 2391 11b2 06E0     		b	.L521
 2392              	.L501:
 2393 11b4 0123     		movs	r3, #1
 2394 11b6 04E0     		b	.L521
 2395              	.L500:
 2396 11b8 0123     		movs	r3, #1
 2397 11ba 02E0     		b	.L521
ARM GAS  C:\msys64\tmp\ccAtyqF0.s 			page 43


 2398              	.L499:
 2399 11bc 0123     		movs	r3, #1
 2400 11be 00E0     		b	.L521
 2401              	.L498:
 2402 11c0 0123     		movs	r3, #1
 2403              	.L521:
 2404 11c2 294A     		ldr	r2, .L537+56
 2405 11c4 9360     		str	r3, [r2, #8]
 2406              	.L445:
 2407 11c6 FB68     		ldr	r3, [r7, #12]
 2408 11c8 1B68     		ldr	r3, [r3]
 2409 11ca 1A68     		ldr	r2, [r3]
 2410 11cc FB68     		ldr	r3, [r7, #12]
 2411 11ce 1B68     		ldr	r3, [r3]
 2412 11d0 42F01602 		orr	r2, r2, #22
 2413 11d4 1A60     		str	r2, [r3]
 2414 11d6 FB68     		ldr	r3, [r7, #12]
 2415 11d8 1B68     		ldr	r3, [r3]
 2416 11da 5A69     		ldr	r2, [r3, #20]
 2417 11dc FB68     		ldr	r3, [r7, #12]
 2418 11de 1B68     		ldr	r3, [r3]
 2419 11e0 42F08002 		orr	r2, r2, #128
 2420 11e4 5A61     		str	r2, [r3, #20]
 2421 11e6 FB68     		ldr	r3, [r7, #12]
 2422 11e8 1B6C     		ldr	r3, [r3, #64]
 2423 11ea 002B     		cmp	r3, #0
 2424 11ec 03D1     		bne	.L522
 2425 11ee FB68     		ldr	r3, [r7, #12]
 2426 11f0 9B6C     		ldr	r3, [r3, #72]
 2427 11f2 002B     		cmp	r3, #0
 2428 11f4 07D0     		beq	.L523
 2429              	.L522:
 2430 11f6 FB68     		ldr	r3, [r7, #12]
 2431 11f8 1B68     		ldr	r3, [r3]
 2432 11fa 1A68     		ldr	r2, [r3]
 2433 11fc FB68     		ldr	r3, [r7, #12]
 2434 11fe 1B68     		ldr	r3, [r3]
 2435 1200 42F00802 		orr	r2, r2, #8
 2436 1204 1A60     		str	r2, [r3]
 2437              	.L523:
 2438 1206 FB68     		ldr	r3, [r7, #12]
 2439 1208 1B68     		ldr	r3, [r3]
 2440 120a 1A68     		ldr	r2, [r3]
 2441 120c FB68     		ldr	r3, [r7, #12]
 2442 120e 1B68     		ldr	r3, [r3]
 2443 1210 42F00102 		orr	r2, r2, #1
 2444 1214 1A60     		str	r2, [r3]
 2445 1216 05E0     		b	.L524
 2446              	.L11:
 2447 1218 FB68     		ldr	r3, [r7, #12]
 2448 121a 0022     		movs	r2, #0
 2449 121c 83F83420 		strb	r2, [r3, #52]
 2450 1220 0223     		movs	r3, #2
 2451 1222 FB75     		strb	r3, [r7, #23]
 2452              	.L524:
 2453 1224 FB7D     		ldrb	r3, [r7, #23]	@ zero_extendqisi2
 2454              	.L9:
ARM GAS  C:\msys64\tmp\ccAtyqF0.s 			page 44


 2455 1226 1846     		mov	r0, r3
 2456 1228 1837     		adds	r7, r7, #24
 2457 122a BD46     		mov	sp, r7
 2458              		@ sp needed
 2459 122c 80BD     		pop	{r7, pc}
 2460              	.L538:
 2461 122e 00BF     		.align	2
 2462              	.L537:
 2463 1230 00640240 		.word	1073898496
 2464 1234 58600240 		.word	1073897560
 2465 1238 10600240 		.word	1073897488
 2466 123c 10640240 		.word	1073898512
 2467 1240 70600240 		.word	1073897584
 2468 1244 70640240 		.word	1073898608
 2469 1248 28600240 		.word	1073897512
 2470 124c 28640240 		.word	1073898536
 2471 1250 88600240 		.word	1073897608
 2472 1254 88640240 		.word	1073898632
 2473 1258 40600240 		.word	1073897536
 2474 125c 40640240 		.word	1073898560
 2475 1260 A0600240 		.word	1073897632
 2476 1264 A0640240 		.word	1073898656
 2477 1268 00600240 		.word	1073897472
 2479              		.section	.text.HAL_DMAEx_ChangeMemory,"ax",%progbits
 2480              		.align	1
 2481              		.global	HAL_DMAEx_ChangeMemory
 2482              		.syntax unified
 2483              		.thumb
 2484              		.thumb_func
 2486              	HAL_DMAEx_ChangeMemory:
 2487              		@ args = 0, pretend = 0, frame = 16
 2488              		@ frame_needed = 1, uses_anonymous_args = 0
 2489              		@ link register save eliminated.
 2490 0000 80B4     		push	{r7}
 2491 0002 85B0     		sub	sp, sp, #20
 2492 0004 00AF     		add	r7, sp, #0
 2493 0006 F860     		str	r0, [r7, #12]
 2494 0008 B960     		str	r1, [r7, #8]
 2495 000a 1346     		mov	r3, r2
 2496 000c FB71     		strb	r3, [r7, #7]
 2497 000e FB79     		ldrb	r3, [r7, #7]	@ zero_extendqisi2
 2498 0010 002B     		cmp	r3, #0
 2499 0012 04D1     		bne	.L540
 2500 0014 FB68     		ldr	r3, [r7, #12]
 2501 0016 1B68     		ldr	r3, [r3]
 2502 0018 BA68     		ldr	r2, [r7, #8]
 2503 001a DA60     		str	r2, [r3, #12]
 2504 001c 03E0     		b	.L541
 2505              	.L540:
 2506 001e FB68     		ldr	r3, [r7, #12]
 2507 0020 1B68     		ldr	r3, [r3]
 2508 0022 BA68     		ldr	r2, [r7, #8]
 2509 0024 1A61     		str	r2, [r3, #16]
 2510              	.L541:
 2511 0026 0023     		movs	r3, #0
 2512 0028 1846     		mov	r0, r3
 2513 002a 1437     		adds	r7, r7, #20
ARM GAS  C:\msys64\tmp\ccAtyqF0.s 			page 45


 2514 002c BD46     		mov	sp, r7
 2515              		@ sp needed
 2516 002e 5DF8047B 		ldr	r7, [sp], #4
 2517 0032 7047     		bx	lr
 2519              		.section	.text.DMA_MultiBufferSetConfig,"ax",%progbits
 2520              		.align	1
 2521              		.syntax unified
 2522              		.thumb
 2523              		.thumb_func
 2525              	DMA_MultiBufferSetConfig:
 2526              		@ args = 0, pretend = 0, frame = 16
 2527              		@ frame_needed = 1, uses_anonymous_args = 0
 2528              		@ link register save eliminated.
 2529 0000 80B4     		push	{r7}
 2530 0002 85B0     		sub	sp, sp, #20
 2531 0004 00AF     		add	r7, sp, #0
 2532 0006 F860     		str	r0, [r7, #12]
 2533 0008 B960     		str	r1, [r7, #8]
 2534 000a 7A60     		str	r2, [r7, #4]
 2535 000c 3B60     		str	r3, [r7]
 2536 000e FB68     		ldr	r3, [r7, #12]
 2537 0010 1B68     		ldr	r3, [r3]
 2538 0012 3A68     		ldr	r2, [r7]
 2539 0014 5A60     		str	r2, [r3, #4]
 2540 0016 FB68     		ldr	r3, [r7, #12]
 2541 0018 9B68     		ldr	r3, [r3, #8]
 2542 001a 402B     		cmp	r3, #64
 2543 001c 08D1     		bne	.L544
 2544 001e FB68     		ldr	r3, [r7, #12]
 2545 0020 1B68     		ldr	r3, [r3]
 2546 0022 7A68     		ldr	r2, [r7, #4]
 2547 0024 9A60     		str	r2, [r3, #8]
 2548 0026 FB68     		ldr	r3, [r7, #12]
 2549 0028 1B68     		ldr	r3, [r3]
 2550 002a BA68     		ldr	r2, [r7, #8]
 2551 002c DA60     		str	r2, [r3, #12]
 2552 002e 07E0     		b	.L546
 2553              	.L544:
 2554 0030 FB68     		ldr	r3, [r7, #12]
 2555 0032 1B68     		ldr	r3, [r3]
 2556 0034 BA68     		ldr	r2, [r7, #8]
 2557 0036 9A60     		str	r2, [r3, #8]
 2558 0038 FB68     		ldr	r3, [r7, #12]
 2559 003a 1B68     		ldr	r3, [r3]
 2560 003c 7A68     		ldr	r2, [r7, #4]
 2561 003e DA60     		str	r2, [r3, #12]
 2562              	.L546:
 2563 0040 00BF     		nop
 2564 0042 1437     		adds	r7, r7, #20
 2565 0044 BD46     		mov	sp, r7
 2566              		@ sp needed
 2567 0046 5DF8047B 		ldr	r7, [sp], #4
 2568 004a 7047     		bx	lr
 2570              		.ident	"GCC: (GNU) 13.3.0"
ARM GAS  C:\msys64\tmp\ccAtyqF0.s 			page 46

