ARM GAS  C:\msys64\tmp\cc4I7vX5.s 			page 1


   1              		.cpu cortex-m7
   2              		.arch armv7e-m
   3              		.fpu fpv5-sp-d16
   4              		.eabi_attribute 27, 1
   5              		.eabi_attribute 28, 1
   6              		.eabi_attribute 20, 1
   7              		.eabi_attribute 21, 1
   8              		.eabi_attribute 23, 3
   9              		.eabi_attribute 24, 1
  10              		.eabi_attribute 25, 1
  11              		.eabi_attribute 26, 1
  12              		.eabi_attribute 30, 6
  13              		.eabi_attribute 34, 1
  14              		.eabi_attribute 18, 4
  15              		.file	"stm32f7xx_hal_pwr.c"
  16              		.text
  17              		.section	.text.HAL_PWR_DeInit,"ax",%progbits
  18              		.align	1
  19              		.global	HAL_PWR_DeInit
  20              		.syntax unified
  21              		.thumb
  22              		.thumb_func
  24              	HAL_PWR_DeInit:
  25              		@ args = 0, pretend = 0, frame = 0
  26              		@ frame_needed = 1, uses_anonymous_args = 0
  27              		@ link register save eliminated.
  28 0000 80B4     		push	{r7}
  29 0002 00AF     		add	r7, sp, #0
  30 0004 084B     		ldr	r3, .L2
  31 0006 1B6A     		ldr	r3, [r3, #32]
  32 0008 074A     		ldr	r2, .L2
  33 000a 43F08053 		orr	r3, r3, #268435456
  34 000e 1362     		str	r3, [r2, #32]
  35 0010 054B     		ldr	r3, .L2
  36 0012 1B6A     		ldr	r3, [r3, #32]
  37 0014 044A     		ldr	r2, .L2
  38 0016 23F08053 		bic	r3, r3, #268435456
  39 001a 1362     		str	r3, [r2, #32]
  40 001c 00BF     		nop
  41 001e BD46     		mov	sp, r7
  42              		@ sp needed
  43 0020 5DF8047B 		ldr	r7, [sp], #4
  44 0024 7047     		bx	lr
  45              	.L3:
  46 0026 00BF     		.align	2
  47              	.L2:
  48 0028 00380240 		.word	1073887232
  50              		.section	.text.HAL_PWR_EnableBkUpAccess,"ax",%progbits
  51              		.align	1
  52              		.global	HAL_PWR_EnableBkUpAccess
  53              		.syntax unified
  54              		.thumb
  55              		.thumb_func
  57              	HAL_PWR_EnableBkUpAccess:
  58              		@ args = 0, pretend = 0, frame = 0
  59              		@ frame_needed = 1, uses_anonymous_args = 0
  60              		@ link register save eliminated.
ARM GAS  C:\msys64\tmp\cc4I7vX5.s 			page 2


  61 0000 80B4     		push	{r7}
  62 0002 00AF     		add	r7, sp, #0
  63 0004 054B     		ldr	r3, .L5
  64 0006 1B68     		ldr	r3, [r3]
  65 0008 044A     		ldr	r2, .L5
  66 000a 43F48073 		orr	r3, r3, #256
  67 000e 1360     		str	r3, [r2]
  68 0010 00BF     		nop
  69 0012 BD46     		mov	sp, r7
  70              		@ sp needed
  71 0014 5DF8047B 		ldr	r7, [sp], #4
  72 0018 7047     		bx	lr
  73              	.L6:
  74 001a 00BF     		.align	2
  75              	.L5:
  76 001c 00700040 		.word	1073770496
  78              		.section	.text.HAL_PWR_DisableBkUpAccess,"ax",%progbits
  79              		.align	1
  80              		.global	HAL_PWR_DisableBkUpAccess
  81              		.syntax unified
  82              		.thumb
  83              		.thumb_func
  85              	HAL_PWR_DisableBkUpAccess:
  86              		@ args = 0, pretend = 0, frame = 0
  87              		@ frame_needed = 1, uses_anonymous_args = 0
  88              		@ link register save eliminated.
  89 0000 80B4     		push	{r7}
  90 0002 00AF     		add	r7, sp, #0
  91 0004 054B     		ldr	r3, .L8
  92 0006 1B68     		ldr	r3, [r3]
  93 0008 044A     		ldr	r2, .L8
  94 000a 23F48073 		bic	r3, r3, #256
  95 000e 1360     		str	r3, [r2]
  96 0010 00BF     		nop
  97 0012 BD46     		mov	sp, r7
  98              		@ sp needed
  99 0014 5DF8047B 		ldr	r7, [sp], #4
 100 0018 7047     		bx	lr
 101              	.L9:
 102 001a 00BF     		.align	2
 103              	.L8:
 104 001c 00700040 		.word	1073770496
 106              		.section	.text.HAL_PWR_ConfigPVD,"ax",%progbits
 107              		.align	1
 108              		.global	HAL_PWR_ConfigPVD
 109              		.syntax unified
 110              		.thumb
 111              		.thumb_func
 113              	HAL_PWR_ConfigPVD:
 114              		@ args = 0, pretend = 0, frame = 8
 115              		@ frame_needed = 1, uses_anonymous_args = 0
 116              		@ link register save eliminated.
 117 0000 80B4     		push	{r7}
 118 0002 83B0     		sub	sp, sp, #12
 119 0004 00AF     		add	r7, sp, #0
 120 0006 7860     		str	r0, [r7, #4]
 121 0008 2B4B     		ldr	r3, .L16
ARM GAS  C:\msys64\tmp\cc4I7vX5.s 			page 3


 122 000a 1B68     		ldr	r3, [r3]
 123 000c 23F0E002 		bic	r2, r3, #224
 124 0010 7B68     		ldr	r3, [r7, #4]
 125 0012 1B68     		ldr	r3, [r3]
 126 0014 2849     		ldr	r1, .L16
 127 0016 1343     		orrs	r3, r3, r2
 128 0018 0B60     		str	r3, [r1]
 129 001a 284B     		ldr	r3, .L16+4
 130 001c 5B68     		ldr	r3, [r3, #4]
 131 001e 274A     		ldr	r2, .L16+4
 132 0020 23F48033 		bic	r3, r3, #65536
 133 0024 5360     		str	r3, [r2, #4]
 134 0026 254B     		ldr	r3, .L16+4
 135 0028 1B68     		ldr	r3, [r3]
 136 002a 244A     		ldr	r2, .L16+4
 137 002c 23F48033 		bic	r3, r3, #65536
 138 0030 1360     		str	r3, [r2]
 139 0032 224B     		ldr	r3, .L16+4
 140 0034 9B68     		ldr	r3, [r3, #8]
 141 0036 214A     		ldr	r2, .L16+4
 142 0038 23F48033 		bic	r3, r3, #65536
 143 003c 9360     		str	r3, [r2, #8]
 144 003e 1F4B     		ldr	r3, .L16+4
 145 0040 DB68     		ldr	r3, [r3, #12]
 146 0042 1E4A     		ldr	r2, .L16+4
 147 0044 23F48033 		bic	r3, r3, #65536
 148 0048 D360     		str	r3, [r2, #12]
 149 004a 7B68     		ldr	r3, [r7, #4]
 150 004c 5B68     		ldr	r3, [r3, #4]
 151 004e 03F48033 		and	r3, r3, #65536
 152 0052 002B     		cmp	r3, #0
 153 0054 05D0     		beq	.L11
 154 0056 194B     		ldr	r3, .L16+4
 155 0058 1B68     		ldr	r3, [r3]
 156 005a 184A     		ldr	r2, .L16+4
 157 005c 43F48033 		orr	r3, r3, #65536
 158 0060 1360     		str	r3, [r2]
 159              	.L11:
 160 0062 7B68     		ldr	r3, [r7, #4]
 161 0064 5B68     		ldr	r3, [r3, #4]
 162 0066 03F40033 		and	r3, r3, #131072
 163 006a 002B     		cmp	r3, #0
 164 006c 05D0     		beq	.L12
 165 006e 134B     		ldr	r3, .L16+4
 166 0070 5B68     		ldr	r3, [r3, #4]
 167 0072 124A     		ldr	r2, .L16+4
 168 0074 43F48033 		orr	r3, r3, #65536
 169 0078 5360     		str	r3, [r2, #4]
 170              	.L12:
 171 007a 7B68     		ldr	r3, [r7, #4]
 172 007c 5B68     		ldr	r3, [r3, #4]
 173 007e 03F00103 		and	r3, r3, #1
 174 0082 002B     		cmp	r3, #0
 175 0084 05D0     		beq	.L13
 176 0086 0D4B     		ldr	r3, .L16+4
 177 0088 9B68     		ldr	r3, [r3, #8]
 178 008a 0C4A     		ldr	r2, .L16+4
ARM GAS  C:\msys64\tmp\cc4I7vX5.s 			page 4


 179 008c 43F48033 		orr	r3, r3, #65536
 180 0090 9360     		str	r3, [r2, #8]
 181              	.L13:
 182 0092 7B68     		ldr	r3, [r7, #4]
 183 0094 5B68     		ldr	r3, [r3, #4]
 184 0096 03F00203 		and	r3, r3, #2
 185 009a 002B     		cmp	r3, #0
 186 009c 05D0     		beq	.L15
 187 009e 074B     		ldr	r3, .L16+4
 188 00a0 DB68     		ldr	r3, [r3, #12]
 189 00a2 064A     		ldr	r2, .L16+4
 190 00a4 43F48033 		orr	r3, r3, #65536
 191 00a8 D360     		str	r3, [r2, #12]
 192              	.L15:
 193 00aa 00BF     		nop
 194 00ac 0C37     		adds	r7, r7, #12
 195 00ae BD46     		mov	sp, r7
 196              		@ sp needed
 197 00b0 5DF8047B 		ldr	r7, [sp], #4
 198 00b4 7047     		bx	lr
 199              	.L17:
 200 00b6 00BF     		.align	2
 201              	.L16:
 202 00b8 00700040 		.word	1073770496
 203 00bc 003C0140 		.word	1073822720
 205              		.section	.text.HAL_PWR_EnablePVD,"ax",%progbits
 206              		.align	1
 207              		.global	HAL_PWR_EnablePVD
 208              		.syntax unified
 209              		.thumb
 210              		.thumb_func
 212              	HAL_PWR_EnablePVD:
 213              		@ args = 0, pretend = 0, frame = 0
 214              		@ frame_needed = 1, uses_anonymous_args = 0
 215              		@ link register save eliminated.
 216 0000 80B4     		push	{r7}
 217 0002 00AF     		add	r7, sp, #0
 218 0004 054B     		ldr	r3, .L19
 219 0006 1B68     		ldr	r3, [r3]
 220 0008 044A     		ldr	r2, .L19
 221 000a 43F01003 		orr	r3, r3, #16
 222 000e 1360     		str	r3, [r2]
 223 0010 00BF     		nop
 224 0012 BD46     		mov	sp, r7
 225              		@ sp needed
 226 0014 5DF8047B 		ldr	r7, [sp], #4
 227 0018 7047     		bx	lr
 228              	.L20:
 229 001a 00BF     		.align	2
 230              	.L19:
 231 001c 00700040 		.word	1073770496
 233              		.section	.text.HAL_PWR_DisablePVD,"ax",%progbits
 234              		.align	1
 235              		.global	HAL_PWR_DisablePVD
 236              		.syntax unified
 237              		.thumb
 238              		.thumb_func
ARM GAS  C:\msys64\tmp\cc4I7vX5.s 			page 5


 240              	HAL_PWR_DisablePVD:
 241              		@ args = 0, pretend = 0, frame = 0
 242              		@ frame_needed = 1, uses_anonymous_args = 0
 243              		@ link register save eliminated.
 244 0000 80B4     		push	{r7}
 245 0002 00AF     		add	r7, sp, #0
 246 0004 054B     		ldr	r3, .L22
 247 0006 1B68     		ldr	r3, [r3]
 248 0008 044A     		ldr	r2, .L22
 249 000a 23F01003 		bic	r3, r3, #16
 250 000e 1360     		str	r3, [r2]
 251 0010 00BF     		nop
 252 0012 BD46     		mov	sp, r7
 253              		@ sp needed
 254 0014 5DF8047B 		ldr	r7, [sp], #4
 255 0018 7047     		bx	lr
 256              	.L23:
 257 001a 00BF     		.align	2
 258              	.L22:
 259 001c 00700040 		.word	1073770496
 261              		.section	.text.HAL_PWR_EnableWakeUpPin,"ax",%progbits
 262              		.align	1
 263              		.global	HAL_PWR_EnableWakeUpPin
 264              		.syntax unified
 265              		.thumb
 266              		.thumb_func
 268              	HAL_PWR_EnableWakeUpPin:
 269              		@ args = 0, pretend = 0, frame = 8
 270              		@ frame_needed = 1, uses_anonymous_args = 0
 271              		@ link register save eliminated.
 272 0000 80B4     		push	{r7}
 273 0002 83B0     		sub	sp, sp, #12
 274 0004 00AF     		add	r7, sp, #0
 275 0006 7860     		str	r0, [r7, #4]
 276 0008 0C4B     		ldr	r3, .L25
 277 000a DA68     		ldr	r2, [r3, #12]
 278 000c 7B68     		ldr	r3, [r7, #4]
 279 000e 03F47C53 		and	r3, r3, #16128
 280 0012 0A49     		ldr	r1, .L25
 281 0014 1343     		orrs	r3, r3, r2
 282 0016 CB60     		str	r3, [r1, #12]
 283 0018 084B     		ldr	r3, .L25
 284 001a 9A68     		ldr	r2, [r3, #8]
 285 001c 7B68     		ldr	r3, [r7, #4]
 286 001e 03F47C53 		and	r3, r3, #16128
 287 0022 DB43     		mvns	r3, r3
 288 0024 1A40     		ands	r2, r2, r3
 289 0026 7B68     		ldr	r3, [r7, #4]
 290 0028 9B09     		lsrs	r3, r3, #6
 291 002a 0449     		ldr	r1, .L25
 292 002c 1343     		orrs	r3, r3, r2
 293 002e 8B60     		str	r3, [r1, #8]
 294 0030 00BF     		nop
 295 0032 0C37     		adds	r7, r7, #12
 296 0034 BD46     		mov	sp, r7
 297              		@ sp needed
 298 0036 5DF8047B 		ldr	r7, [sp], #4
ARM GAS  C:\msys64\tmp\cc4I7vX5.s 			page 6


 299 003a 7047     		bx	lr
 300              	.L26:
 301              		.align	2
 302              	.L25:
 303 003c 00700040 		.word	1073770496
 305              		.section	.text.HAL_PWR_DisableWakeUpPin,"ax",%progbits
 306              		.align	1
 307              		.global	HAL_PWR_DisableWakeUpPin
 308              		.syntax unified
 309              		.thumb
 310              		.thumb_func
 312              	HAL_PWR_DisableWakeUpPin:
 313              		@ args = 0, pretend = 0, frame = 8
 314              		@ frame_needed = 1, uses_anonymous_args = 0
 315              		@ link register save eliminated.
 316 0000 80B4     		push	{r7}
 317 0002 83B0     		sub	sp, sp, #12
 318 0004 00AF     		add	r7, sp, #0
 319 0006 7860     		str	r0, [r7, #4]
 320 0008 064B     		ldr	r3, .L28
 321 000a DA68     		ldr	r2, [r3, #12]
 322 000c 7B68     		ldr	r3, [r7, #4]
 323 000e DB43     		mvns	r3, r3
 324 0010 0449     		ldr	r1, .L28
 325 0012 1340     		ands	r3, r3, r2
 326 0014 CB60     		str	r3, [r1, #12]
 327 0016 00BF     		nop
 328 0018 0C37     		adds	r7, r7, #12
 329 001a BD46     		mov	sp, r7
 330              		@ sp needed
 331 001c 5DF8047B 		ldr	r7, [sp], #4
 332 0020 7047     		bx	lr
 333              	.L29:
 334 0022 00BF     		.align	2
 335              	.L28:
 336 0024 00700040 		.word	1073770496
 338              		.section	.text.HAL_PWR_EnterSLEEPMode,"ax",%progbits
 339              		.align	1
 340              		.global	HAL_PWR_EnterSLEEPMode
 341              		.syntax unified
 342              		.thumb
 343              		.thumb_func
 345              	HAL_PWR_EnterSLEEPMode:
 346              		@ args = 0, pretend = 0, frame = 8
 347              		@ frame_needed = 1, uses_anonymous_args = 0
 348              		@ link register save eliminated.
 349 0000 80B4     		push	{r7}
 350 0002 83B0     		sub	sp, sp, #12
 351 0004 00AF     		add	r7, sp, #0
 352 0006 7860     		str	r0, [r7, #4]
 353 0008 0B46     		mov	r3, r1
 354 000a FB70     		strb	r3, [r7, #3]
 355 000c 0C4B     		ldr	r3, .L34
 356 000e 1B69     		ldr	r3, [r3, #16]
 357 0010 0B4A     		ldr	r2, .L34
 358 0012 23F00403 		bic	r3, r3, #4
 359 0016 1361     		str	r3, [r2, #16]
ARM GAS  C:\msys64\tmp\cc4I7vX5.s 			page 7


 360              		.syntax unified
 361              	@ 879 "cmsis/core/cmsis_gcc.h" 1
 362 0018 BFF34F8F 		dsb 0xF
 363              	@ 0 "" 2
 364              		.thumb
 365              		.syntax unified
 366 001c 00BF     		nop
 367              		.syntax unified
 368              	@ 868 "cmsis/core/cmsis_gcc.h" 1
 369 001e BFF36F8F 		isb 0xF
 370              	@ 0 "" 2
 371              		.thumb
 372              		.syntax unified
 373 0022 00BF     		nop
 374 0024 FB78     		ldrb	r3, [r7, #3]	@ zero_extendqisi2
 375 0026 012B     		cmp	r3, #1
 376 0028 01D1     		bne	.L31
 377              		.syntax unified
 378              	@ 406 "Drivers/STM32F7xx_HAL_Driver/Src/stm32f7xx_hal_pwr.c" 1
 379 002a 30BF     		wfi
 380              	@ 0 "" 2
 381              		.thumb
 382              		.syntax unified
 383 002c 02E0     		b	.L33
 384              	.L31:
 385              		.syntax unified
 386              	@ 411 "Drivers/STM32F7xx_HAL_Driver/Src/stm32f7xx_hal_pwr.c" 1
 387 002e 40BF     		sev
 388              	@ 0 "" 2
 389              	@ 412 "Drivers/STM32F7xx_HAL_Driver/Src/stm32f7xx_hal_pwr.c" 1
 390 0030 20BF     		wfe
 391              	@ 0 "" 2
 392              	@ 413 "Drivers/STM32F7xx_HAL_Driver/Src/stm32f7xx_hal_pwr.c" 1
 393 0032 20BF     		wfe
 394              	@ 0 "" 2
 395              		.thumb
 396              		.syntax unified
 397              	.L33:
 398 0034 00BF     		nop
 399 0036 0C37     		adds	r7, r7, #12
 400 0038 BD46     		mov	sp, r7
 401              		@ sp needed
 402 003a 5DF8047B 		ldr	r7, [sp], #4
 403 003e 7047     		bx	lr
 404              	.L35:
 405              		.align	2
 406              	.L34:
 407 0040 00ED00E0 		.word	-536810240
 409              		.section	.text.HAL_PWR_EnterSTOPMode,"ax",%progbits
 410              		.align	1
 411              		.global	HAL_PWR_EnterSTOPMode
 412              		.syntax unified
 413              		.thumb
 414              		.thumb_func
 416              	HAL_PWR_EnterSTOPMode:
 417              		@ args = 0, pretend = 0, frame = 16
 418              		@ frame_needed = 1, uses_anonymous_args = 0
ARM GAS  C:\msys64\tmp\cc4I7vX5.s 			page 8


 419              		@ link register save eliminated.
 420 0000 80B4     		push	{r7}
 421 0002 85B0     		sub	sp, sp, #20
 422 0004 00AF     		add	r7, sp, #0
 423 0006 7860     		str	r0, [r7, #4]
 424 0008 0B46     		mov	r3, r1
 425 000a FB70     		strb	r3, [r7, #3]
 426 000c 0023     		movs	r3, #0
 427 000e FB60     		str	r3, [r7, #12]
 428 0010 164B     		ldr	r3, .L39
 429 0012 1B68     		ldr	r3, [r3]
 430 0014 FB60     		str	r3, [r7, #12]
 431 0016 FB68     		ldr	r3, [r7, #12]
 432 0018 23F00303 		bic	r3, r3, #3
 433 001c FB60     		str	r3, [r7, #12]
 434 001e FA68     		ldr	r2, [r7, #12]
 435 0020 7B68     		ldr	r3, [r7, #4]
 436 0022 1343     		orrs	r3, r3, r2
 437 0024 FB60     		str	r3, [r7, #12]
 438 0026 114A     		ldr	r2, .L39
 439 0028 FB68     		ldr	r3, [r7, #12]
 440 002a 1360     		str	r3, [r2]
 441 002c 104B     		ldr	r3, .L39+4
 442 002e 1B69     		ldr	r3, [r3, #16]
 443 0030 0F4A     		ldr	r2, .L39+4
 444 0032 43F00403 		orr	r3, r3, #4
 445 0036 1361     		str	r3, [r2, #16]
 446              		.syntax unified
 447              	@ 879 "cmsis/core/cmsis_gcc.h" 1
 448 0038 BFF34F8F 		dsb 0xF
 449              	@ 0 "" 2
 450              		.thumb
 451              		.syntax unified
 452 003c 00BF     		nop
 453              		.syntax unified
 454              	@ 868 "cmsis/core/cmsis_gcc.h" 1
 455 003e BFF36F8F 		isb 0xF
 456              	@ 0 "" 2
 457              		.thumb
 458              		.syntax unified
 459 0042 00BF     		nop
 460 0044 FB78     		ldrb	r3, [r7, #3]	@ zero_extendqisi2
 461 0046 012B     		cmp	r3, #1
 462 0048 01D1     		bne	.L37
 463              		.syntax unified
 464              	@ 466 "Drivers/STM32F7xx_HAL_Driver/Src/stm32f7xx_hal_pwr.c" 1
 465 004a 30BF     		wfi
 466              	@ 0 "" 2
 467              		.thumb
 468              		.syntax unified
 469 004c 02E0     		b	.L38
 470              	.L37:
 471              		.syntax unified
 472              	@ 471 "Drivers/STM32F7xx_HAL_Driver/Src/stm32f7xx_hal_pwr.c" 1
 473 004e 40BF     		sev
 474              	@ 0 "" 2
 475              	@ 472 "Drivers/STM32F7xx_HAL_Driver/Src/stm32f7xx_hal_pwr.c" 1
ARM GAS  C:\msys64\tmp\cc4I7vX5.s 			page 9


 476 0050 20BF     		wfe
 477              	@ 0 "" 2
 478              	@ 473 "Drivers/STM32F7xx_HAL_Driver/Src/stm32f7xx_hal_pwr.c" 1
 479 0052 20BF     		wfe
 480              	@ 0 "" 2
 481              		.thumb
 482              		.syntax unified
 483              	.L38:
 484 0054 064B     		ldr	r3, .L39+4
 485 0056 1B69     		ldr	r3, [r3, #16]
 486 0058 054A     		ldr	r2, .L39+4
 487 005a 23F00403 		bic	r3, r3, #4
 488 005e 1361     		str	r3, [r2, #16]
 489 0060 00BF     		nop
 490 0062 1437     		adds	r7, r7, #20
 491 0064 BD46     		mov	sp, r7
 492              		@ sp needed
 493 0066 5DF8047B 		ldr	r7, [sp], #4
 494 006a 7047     		bx	lr
 495              	.L40:
 496              		.align	2
 497              	.L39:
 498 006c 00700040 		.word	1073770496
 499 0070 00ED00E0 		.word	-536810240
 501              		.section	.text.HAL_PWR_EnterSTANDBYMode,"ax",%progbits
 502              		.align	1
 503              		.global	HAL_PWR_EnterSTANDBYMode
 504              		.syntax unified
 505              		.thumb
 506              		.thumb_func
 508              	HAL_PWR_EnterSTANDBYMode:
 509              		@ args = 0, pretend = 0, frame = 0
 510              		@ frame_needed = 1, uses_anonymous_args = 0
 511              		@ link register save eliminated.
 512 0000 80B4     		push	{r7}
 513 0002 00AF     		add	r7, sp, #0
 514 0004 084B     		ldr	r3, .L42
 515 0006 1B68     		ldr	r3, [r3]
 516 0008 074A     		ldr	r2, .L42
 517 000a 43F00203 		orr	r3, r3, #2
 518 000e 1360     		str	r3, [r2]
 519 0010 064B     		ldr	r3, .L42+4
 520 0012 1B69     		ldr	r3, [r3, #16]
 521 0014 054A     		ldr	r2, .L42+4
 522 0016 43F00403 		orr	r3, r3, #4
 523 001a 1361     		str	r3, [r2, #16]
 524              		.syntax unified
 525              	@ 502 "Drivers/STM32F7xx_HAL_Driver/Src/stm32f7xx_hal_pwr.c" 1
 526 001c 30BF     		wfi
 527              	@ 0 "" 2
 528              		.thumb
 529              		.syntax unified
 530 001e 00BF     		nop
 531 0020 BD46     		mov	sp, r7
 532              		@ sp needed
 533 0022 5DF8047B 		ldr	r7, [sp], #4
 534 0026 7047     		bx	lr
ARM GAS  C:\msys64\tmp\cc4I7vX5.s 			page 10


 535              	.L43:
 536              		.align	2
 537              	.L42:
 538 0028 00700040 		.word	1073770496
 539 002c 00ED00E0 		.word	-536810240
 541              		.section	.text.HAL_PWR_PVD_IRQHandler,"ax",%progbits
 542              		.align	1
 543              		.global	HAL_PWR_PVD_IRQHandler
 544              		.syntax unified
 545              		.thumb
 546              		.thumb_func
 548              	HAL_PWR_PVD_IRQHandler:
 549              		@ args = 0, pretend = 0, frame = 0
 550              		@ frame_needed = 1, uses_anonymous_args = 0
 551 0000 80B5     		push	{r7, lr}
 552 0002 00AF     		add	r7, sp, #0
 553 0004 064B     		ldr	r3, .L47
 554 0006 5B69     		ldr	r3, [r3, #20]
 555 0008 03F48033 		and	r3, r3, #65536
 556 000c 002B     		cmp	r3, #0
 557 000e 05D0     		beq	.L46
 558 0010 FFF7FEFF 		bl	HAL_PWR_PVDCallback
 559 0014 024B     		ldr	r3, .L47
 560 0016 4FF48032 		mov	r2, #65536
 561 001a 5A61     		str	r2, [r3, #20]
 562              	.L46:
 563 001c 00BF     		nop
 564 001e 80BD     		pop	{r7, pc}
 565              	.L48:
 566              		.align	2
 567              	.L47:
 568 0020 003C0140 		.word	1073822720
 570              		.section	.text.HAL_PWR_PVDCallback,"ax",%progbits
 571              		.align	1
 572              		.weak	HAL_PWR_PVDCallback
 573              		.syntax unified
 574              		.thumb
 575              		.thumb_func
 577              	HAL_PWR_PVDCallback:
 578              		@ args = 0, pretend = 0, frame = 0
 579              		@ frame_needed = 1, uses_anonymous_args = 0
 580              		@ link register save eliminated.
 581 0000 80B4     		push	{r7}
 582 0002 00AF     		add	r7, sp, #0
 583 0004 00BF     		nop
 584 0006 BD46     		mov	sp, r7
 585              		@ sp needed
 586 0008 5DF8047B 		ldr	r7, [sp], #4
 587 000c 7047     		bx	lr
 589              		.section	.text.HAL_PWR_EnableSleepOnExit,"ax",%progbits
 590              		.align	1
 591              		.global	HAL_PWR_EnableSleepOnExit
 592              		.syntax unified
 593              		.thumb
 594              		.thumb_func
 596              	HAL_PWR_EnableSleepOnExit:
 597              		@ args = 0, pretend = 0, frame = 0
ARM GAS  C:\msys64\tmp\cc4I7vX5.s 			page 11


 598              		@ frame_needed = 1, uses_anonymous_args = 0
 599              		@ link register save eliminated.
 600 0000 80B4     		push	{r7}
 601 0002 00AF     		add	r7, sp, #0
 602 0004 054B     		ldr	r3, .L51
 603 0006 1B69     		ldr	r3, [r3, #16]
 604 0008 044A     		ldr	r2, .L51
 605 000a 43F00203 		orr	r3, r3, #2
 606 000e 1361     		str	r3, [r2, #16]
 607 0010 00BF     		nop
 608 0012 BD46     		mov	sp, r7
 609              		@ sp needed
 610 0014 5DF8047B 		ldr	r7, [sp], #4
 611 0018 7047     		bx	lr
 612              	.L52:
 613 001a 00BF     		.align	2
 614              	.L51:
 615 001c 00ED00E0 		.word	-536810240
 617              		.section	.text.HAL_PWR_DisableSleepOnExit,"ax",%progbits
 618              		.align	1
 619              		.global	HAL_PWR_DisableSleepOnExit
 620              		.syntax unified
 621              		.thumb
 622              		.thumb_func
 624              	HAL_PWR_DisableSleepOnExit:
 625              		@ args = 0, pretend = 0, frame = 0
 626              		@ frame_needed = 1, uses_anonymous_args = 0
 627              		@ link register save eliminated.
 628 0000 80B4     		push	{r7}
 629 0002 00AF     		add	r7, sp, #0
 630 0004 054B     		ldr	r3, .L54
 631 0006 1B69     		ldr	r3, [r3, #16]
 632 0008 044A     		ldr	r2, .L54
 633 000a 23F00203 		bic	r3, r3, #2
 634 000e 1361     		str	r3, [r2, #16]
 635 0010 00BF     		nop
 636 0012 BD46     		mov	sp, r7
 637              		@ sp needed
 638 0014 5DF8047B 		ldr	r7, [sp], #4
 639 0018 7047     		bx	lr
 640              	.L55:
 641 001a 00BF     		.align	2
 642              	.L54:
 643 001c 00ED00E0 		.word	-536810240
 645              		.section	.text.HAL_PWR_EnableSEVOnPend,"ax",%progbits
 646              		.align	1
 647              		.global	HAL_PWR_EnableSEVOnPend
 648              		.syntax unified
 649              		.thumb
 650              		.thumb_func
 652              	HAL_PWR_EnableSEVOnPend:
 653              		@ args = 0, pretend = 0, frame = 0
 654              		@ frame_needed = 1, uses_anonymous_args = 0
 655              		@ link register save eliminated.
 656 0000 80B4     		push	{r7}
 657 0002 00AF     		add	r7, sp, #0
 658 0004 054B     		ldr	r3, .L57
ARM GAS  C:\msys64\tmp\cc4I7vX5.s 			page 12


 659 0006 1B69     		ldr	r3, [r3, #16]
 660 0008 044A     		ldr	r2, .L57
 661 000a 43F01003 		orr	r3, r3, #16
 662 000e 1361     		str	r3, [r2, #16]
 663 0010 00BF     		nop
 664 0012 BD46     		mov	sp, r7
 665              		@ sp needed
 666 0014 5DF8047B 		ldr	r7, [sp], #4
 667 0018 7047     		bx	lr
 668              	.L58:
 669 001a 00BF     		.align	2
 670              	.L57:
 671 001c 00ED00E0 		.word	-536810240
 673              		.section	.text.HAL_PWR_DisableSEVOnPend,"ax",%progbits
 674              		.align	1
 675              		.global	HAL_PWR_DisableSEVOnPend
 676              		.syntax unified
 677              		.thumb
 678              		.thumb_func
 680              	HAL_PWR_DisableSEVOnPend:
 681              		@ args = 0, pretend = 0, frame = 0
 682              		@ frame_needed = 1, uses_anonymous_args = 0
 683              		@ link register save eliminated.
 684 0000 80B4     		push	{r7}
 685 0002 00AF     		add	r7, sp, #0
 686 0004 054B     		ldr	r3, .L60
 687 0006 1B69     		ldr	r3, [r3, #16]
 688 0008 044A     		ldr	r2, .L60
 689 000a 23F01003 		bic	r3, r3, #16
 690 000e 1361     		str	r3, [r2, #16]
 691 0010 00BF     		nop
 692 0012 BD46     		mov	sp, r7
 693              		@ sp needed
 694 0014 5DF8047B 		ldr	r7, [sp], #4
 695 0018 7047     		bx	lr
 696              	.L61:
 697 001a 00BF     		.align	2
 698              	.L60:
 699 001c 00ED00E0 		.word	-536810240
 701              		.ident	"GCC: (GNU) 13.3.0"
ARM GAS  C:\msys64\tmp\cc4I7vX5.s 			page 13

