ARM GAS  C:\msys64\tmp\ccDI7K0i.s 			page 1


   1              		.cpu cortex-m7
   2              		.arch armv7e-m
   3              		.fpu fpv5-sp-d16
   4              		.eabi_attribute 27, 1
   5              		.eabi_attribute 28, 1
   6              		.eabi_attribute 20, 1
   7              		.eabi_attribute 21, 1
   8              		.eabi_attribute 23, 3
   9              		.eabi_attribute 24, 1
  10              		.eabi_attribute 25, 1
  11              		.eabi_attribute 26, 1
  12              		.eabi_attribute 30, 6
  13              		.eabi_attribute 34, 1
  14              		.eabi_attribute 18, 4
  15              		.file	"stm32f7xx_hal_rtc_ex.c"
  16              		.text
  17              		.section	.text.HAL_RTCEx_SetTimeStamp,"ax",%progbits
  18              		.align	1
  19              		.global	HAL_RTCEx_SetTimeStamp
  20              		.syntax unified
  21              		.thumb
  22              		.thumb_func
  24              	HAL_RTCEx_SetTimeStamp:
  25              		@ args = 0, pretend = 0, frame = 24
  26              		@ frame_needed = 1, uses_anonymous_args = 0
  27              		@ link register save eliminated.
  28 0000 80B4     		push	{r7}
  29 0002 87B0     		sub	sp, sp, #28
  30 0004 00AF     		add	r7, sp, #0
  31 0006 F860     		str	r0, [r7, #12]
  32 0008 B960     		str	r1, [r7, #8]
  33 000a 7A60     		str	r2, [r7, #4]
  34 000c 0023     		movs	r3, #0
  35 000e 7B61     		str	r3, [r7, #20]
  36 0010 FB68     		ldr	r3, [r7, #12]
  37 0012 1B7F     		ldrb	r3, [r3, #28]	@ zero_extendqisi2
  38 0014 012B     		cmp	r3, #1
  39 0016 01D1     		bne	.L2
  40 0018 0223     		movs	r3, #2
  41 001a 50E0     		b	.L3
  42              	.L2:
  43 001c FB68     		ldr	r3, [r7, #12]
  44 001e 0122     		movs	r2, #1
  45 0020 1A77     		strb	r2, [r3, #28]
  46 0022 FB68     		ldr	r3, [r7, #12]
  47 0024 0222     		movs	r2, #2
  48 0026 5A77     		strb	r2, [r3, #29]
  49 0028 FB68     		ldr	r3, [r7, #12]
  50 002a 1B68     		ldr	r3, [r3]
  51 002c DA6C     		ldr	r2, [r3, #76]
  52 002e FB68     		ldr	r3, [r7, #12]
  53 0030 1B68     		ldr	r3, [r3]
  54 0032 22F00602 		bic	r2, r2, #6
  55 0036 DA64     		str	r2, [r3, #76]
  56 0038 FB68     		ldr	r3, [r7, #12]
  57 003a 1B68     		ldr	r3, [r3]
  58 003c D96C     		ldr	r1, [r3, #76]
ARM GAS  C:\msys64\tmp\ccDI7K0i.s 			page 2


  59 003e FB68     		ldr	r3, [r7, #12]
  60 0040 1B68     		ldr	r3, [r3]
  61 0042 7A68     		ldr	r2, [r7, #4]
  62 0044 0A43     		orrs	r2, r2, r1
  63 0046 DA64     		str	r2, [r3, #76]
  64 0048 FB68     		ldr	r3, [r7, #12]
  65 004a 1B68     		ldr	r3, [r3]
  66 004c 9A68     		ldr	r2, [r3, #8]
  67 004e 1F4B     		ldr	r3, .L4
  68 0050 1340     		ands	r3, r3, r2
  69 0052 7B61     		str	r3, [r7, #20]
  70 0054 7A69     		ldr	r2, [r7, #20]
  71 0056 BB68     		ldr	r3, [r7, #8]
  72 0058 1343     		orrs	r3, r3, r2
  73 005a 7B61     		str	r3, [r7, #20]
  74 005c FB68     		ldr	r3, [r7, #12]
  75 005e 1B68     		ldr	r3, [r3]
  76 0060 CA22     		movs	r2, #202
  77 0062 5A62     		str	r2, [r3, #36]
  78 0064 FB68     		ldr	r3, [r7, #12]
  79 0066 1B68     		ldr	r3, [r3]
  80 0068 5322     		movs	r2, #83
  81 006a 5A62     		str	r2, [r3, #36]
  82 006c FB68     		ldr	r3, [r7, #12]
  83 006e 1B68     		ldr	r3, [r3]
  84 0070 7A69     		ldr	r2, [r7, #20]
  85 0072 9A60     		str	r2, [r3, #8]
  86 0074 FB68     		ldr	r3, [r7, #12]
  87 0076 1B68     		ldr	r3, [r3]
  88 0078 DB68     		ldr	r3, [r3, #12]
  89 007a DAB2     		uxtb	r2, r3
  90 007c FB68     		ldr	r3, [r7, #12]
  91 007e 1B68     		ldr	r3, [r3]
  92 0080 62F40862 		orn	r2, r2, #2176
  93 0084 DA60     		str	r2, [r3, #12]
  94 0086 FB68     		ldr	r3, [r7, #12]
  95 0088 1B68     		ldr	r3, [r3]
  96 008a DB68     		ldr	r3, [r3, #12]
  97 008c DAB2     		uxtb	r2, r3
  98 008e FB68     		ldr	r3, [r7, #12]
  99 0090 1B68     		ldr	r3, [r3]
 100 0092 62F48452 		orn	r2, r2, #4224
 101 0096 DA60     		str	r2, [r3, #12]
 102 0098 FB68     		ldr	r3, [r7, #12]
 103 009a 1B68     		ldr	r3, [r3]
 104 009c 9A68     		ldr	r2, [r3, #8]
 105 009e FB68     		ldr	r3, [r7, #12]
 106 00a0 1B68     		ldr	r3, [r3]
 107 00a2 42F40062 		orr	r2, r2, #2048
 108 00a6 9A60     		str	r2, [r3, #8]
 109 00a8 FB68     		ldr	r3, [r7, #12]
 110 00aa 1B68     		ldr	r3, [r3]
 111 00ac FF22     		movs	r2, #255
 112 00ae 5A62     		str	r2, [r3, #36]
 113 00b0 FB68     		ldr	r3, [r7, #12]
 114 00b2 0122     		movs	r2, #1
 115 00b4 5A77     		strb	r2, [r3, #29]
ARM GAS  C:\msys64\tmp\ccDI7K0i.s 			page 3


 116 00b6 FB68     		ldr	r3, [r7, #12]
 117 00b8 0022     		movs	r2, #0
 118 00ba 1A77     		strb	r2, [r3, #28]
 119 00bc 0023     		movs	r3, #0
 120              	.L3:
 121 00be 1846     		mov	r0, r3
 122 00c0 1C37     		adds	r7, r7, #28
 123 00c2 BD46     		mov	sp, r7
 124              		@ sp needed
 125 00c4 5DF8047B 		ldr	r7, [sp], #4
 126 00c8 7047     		bx	lr
 127              	.L5:
 128 00ca 00BF     		.align	2
 129              	.L4:
 130 00cc F7F7FFFF 		.word	-2057
 132              		.section	.text.HAL_RTCEx_SetTimeStamp_IT,"ax",%progbits
 133              		.align	1
 134              		.global	HAL_RTCEx_SetTimeStamp_IT
 135              		.syntax unified
 136              		.thumb
 137              		.thumb_func
 139              	HAL_RTCEx_SetTimeStamp_IT:
 140              		@ args = 0, pretend = 0, frame = 24
 141              		@ frame_needed = 1, uses_anonymous_args = 0
 142              		@ link register save eliminated.
 143 0000 80B4     		push	{r7}
 144 0002 87B0     		sub	sp, sp, #28
 145 0004 00AF     		add	r7, sp, #0
 146 0006 F860     		str	r0, [r7, #12]
 147 0008 B960     		str	r1, [r7, #8]
 148 000a 7A60     		str	r2, [r7, #4]
 149 000c 0023     		movs	r3, #0
 150 000e 7B61     		str	r3, [r7, #20]
 151 0010 FB68     		ldr	r3, [r7, #12]
 152 0012 1B7F     		ldrb	r3, [r3, #28]	@ zero_extendqisi2
 153 0014 012B     		cmp	r3, #1
 154 0016 01D1     		bne	.L7
 155 0018 0223     		movs	r3, #2
 156 001a 64E0     		b	.L8
 157              	.L7:
 158 001c FB68     		ldr	r3, [r7, #12]
 159 001e 0122     		movs	r2, #1
 160 0020 1A77     		strb	r2, [r3, #28]
 161 0022 FB68     		ldr	r3, [r7, #12]
 162 0024 0222     		movs	r2, #2
 163 0026 5A77     		strb	r2, [r3, #29]
 164 0028 FB68     		ldr	r3, [r7, #12]
 165 002a 1B68     		ldr	r3, [r3]
 166 002c DA6C     		ldr	r2, [r3, #76]
 167 002e FB68     		ldr	r3, [r7, #12]
 168 0030 1B68     		ldr	r3, [r3]
 169 0032 22F00602 		bic	r2, r2, #6
 170 0036 DA64     		str	r2, [r3, #76]
 171 0038 FB68     		ldr	r3, [r7, #12]
 172 003a 1B68     		ldr	r3, [r3]
 173 003c D96C     		ldr	r1, [r3, #76]
 174 003e FB68     		ldr	r3, [r7, #12]
ARM GAS  C:\msys64\tmp\ccDI7K0i.s 			page 4


 175 0040 1B68     		ldr	r3, [r3]
 176 0042 7A68     		ldr	r2, [r7, #4]
 177 0044 0A43     		orrs	r2, r2, r1
 178 0046 DA64     		str	r2, [r3, #76]
 179 0048 FB68     		ldr	r3, [r7, #12]
 180 004a 1B68     		ldr	r3, [r3]
 181 004c 9A68     		ldr	r2, [r3, #8]
 182 004e 294B     		ldr	r3, .L9
 183 0050 1340     		ands	r3, r3, r2
 184 0052 7B61     		str	r3, [r7, #20]
 185 0054 7A69     		ldr	r2, [r7, #20]
 186 0056 BB68     		ldr	r3, [r7, #8]
 187 0058 1343     		orrs	r3, r3, r2
 188 005a 7B61     		str	r3, [r7, #20]
 189 005c FB68     		ldr	r3, [r7, #12]
 190 005e 1B68     		ldr	r3, [r3]
 191 0060 CA22     		movs	r2, #202
 192 0062 5A62     		str	r2, [r3, #36]
 193 0064 FB68     		ldr	r3, [r7, #12]
 194 0066 1B68     		ldr	r3, [r3]
 195 0068 5322     		movs	r2, #83
 196 006a 5A62     		str	r2, [r3, #36]
 197 006c FB68     		ldr	r3, [r7, #12]
 198 006e 1B68     		ldr	r3, [r3]
 199 0070 7A69     		ldr	r2, [r7, #20]
 200 0072 9A60     		str	r2, [r3, #8]
 201 0074 FB68     		ldr	r3, [r7, #12]
 202 0076 1B68     		ldr	r3, [r3]
 203 0078 DB68     		ldr	r3, [r3, #12]
 204 007a DAB2     		uxtb	r2, r3
 205 007c FB68     		ldr	r3, [r7, #12]
 206 007e 1B68     		ldr	r3, [r3]
 207 0080 62F40862 		orn	r2, r2, #2176
 208 0084 DA60     		str	r2, [r3, #12]
 209 0086 FB68     		ldr	r3, [r7, #12]
 210 0088 1B68     		ldr	r3, [r3]
 211 008a DB68     		ldr	r3, [r3, #12]
 212 008c DAB2     		uxtb	r2, r3
 213 008e FB68     		ldr	r3, [r7, #12]
 214 0090 1B68     		ldr	r3, [r3]
 215 0092 62F48452 		orn	r2, r2, #4224
 216 0096 DA60     		str	r2, [r3, #12]
 217 0098 FB68     		ldr	r3, [r7, #12]
 218 009a 1B68     		ldr	r3, [r3]
 219 009c 9A68     		ldr	r2, [r3, #8]
 220 009e FB68     		ldr	r3, [r7, #12]
 221 00a0 1B68     		ldr	r3, [r3]
 222 00a2 42F40062 		orr	r2, r2, #2048
 223 00a6 9A60     		str	r2, [r3, #8]
 224 00a8 FB68     		ldr	r3, [r7, #12]
 225 00aa 1B68     		ldr	r3, [r3]
 226 00ac 9A68     		ldr	r2, [r3, #8]
 227 00ae FB68     		ldr	r3, [r7, #12]
 228 00b0 1B68     		ldr	r3, [r3]
 229 00b2 42F40042 		orr	r2, r2, #32768
 230 00b6 9A60     		str	r2, [r3, #8]
 231 00b8 FB68     		ldr	r3, [r7, #12]
ARM GAS  C:\msys64\tmp\ccDI7K0i.s 			page 5


 232 00ba 1B68     		ldr	r3, [r3]
 233 00bc FF22     		movs	r2, #255
 234 00be 5A62     		str	r2, [r3, #36]
 235 00c0 0D4B     		ldr	r3, .L9+4
 236 00c2 1B68     		ldr	r3, [r3]
 237 00c4 0C4A     		ldr	r2, .L9+4
 238 00c6 43F40013 		orr	r3, r3, #2097152
 239 00ca 1360     		str	r3, [r2]
 240 00cc 0A4B     		ldr	r3, .L9+4
 241 00ce 9B68     		ldr	r3, [r3, #8]
 242 00d0 094A     		ldr	r2, .L9+4
 243 00d2 43F40013 		orr	r3, r3, #2097152
 244 00d6 9360     		str	r3, [r2, #8]
 245 00d8 FB68     		ldr	r3, [r7, #12]
 246 00da 0122     		movs	r2, #1
 247 00dc 5A77     		strb	r2, [r3, #29]
 248 00de FB68     		ldr	r3, [r7, #12]
 249 00e0 0022     		movs	r2, #0
 250 00e2 1A77     		strb	r2, [r3, #28]
 251 00e4 0023     		movs	r3, #0
 252              	.L8:
 253 00e6 1846     		mov	r0, r3
 254 00e8 1C37     		adds	r7, r7, #28
 255 00ea BD46     		mov	sp, r7
 256              		@ sp needed
 257 00ec 5DF8047B 		ldr	r7, [sp], #4
 258 00f0 7047     		bx	lr
 259              	.L10:
 260 00f2 00BF     		.align	2
 261              	.L9:
 262 00f4 F7F7FFFF 		.word	-2057
 263 00f8 003C0140 		.word	1073822720
 265              		.section	.text.HAL_RTCEx_DeactivateTimeStamp,"ax",%progbits
 266              		.align	1
 267              		.global	HAL_RTCEx_DeactivateTimeStamp
 268              		.syntax unified
 269              		.thumb
 270              		.thumb_func
 272              	HAL_RTCEx_DeactivateTimeStamp:
 273              		@ args = 0, pretend = 0, frame = 16
 274              		@ frame_needed = 1, uses_anonymous_args = 0
 275              		@ link register save eliminated.
 276 0000 80B4     		push	{r7}
 277 0002 85B0     		sub	sp, sp, #20
 278 0004 00AF     		add	r7, sp, #0
 279 0006 7860     		str	r0, [r7, #4]
 280 0008 0023     		movs	r3, #0
 281 000a FB60     		str	r3, [r7, #12]
 282 000c 7B68     		ldr	r3, [r7, #4]
 283 000e 1B7F     		ldrb	r3, [r3, #28]	@ zero_extendqisi2
 284 0010 012B     		cmp	r3, #1
 285 0012 01D1     		bne	.L12
 286 0014 0223     		movs	r3, #2
 287 0016 2AE0     		b	.L13
 288              	.L12:
 289 0018 7B68     		ldr	r3, [r7, #4]
 290 001a 0122     		movs	r2, #1
ARM GAS  C:\msys64\tmp\ccDI7K0i.s 			page 6


 291 001c 1A77     		strb	r2, [r3, #28]
 292 001e 7B68     		ldr	r3, [r7, #4]
 293 0020 0222     		movs	r2, #2
 294 0022 5A77     		strb	r2, [r3, #29]
 295 0024 7B68     		ldr	r3, [r7, #4]
 296 0026 1B68     		ldr	r3, [r3]
 297 0028 CA22     		movs	r2, #202
 298 002a 5A62     		str	r2, [r3, #36]
 299 002c 7B68     		ldr	r3, [r7, #4]
 300 002e 1B68     		ldr	r3, [r3]
 301 0030 5322     		movs	r2, #83
 302 0032 5A62     		str	r2, [r3, #36]
 303 0034 7B68     		ldr	r3, [r7, #4]
 304 0036 1B68     		ldr	r3, [r3]
 305 0038 9A68     		ldr	r2, [r3, #8]
 306 003a 7B68     		ldr	r3, [r7, #4]
 307 003c 1B68     		ldr	r3, [r3]
 308 003e 22F40042 		bic	r2, r2, #32768
 309 0042 9A60     		str	r2, [r3, #8]
 310 0044 7B68     		ldr	r3, [r7, #4]
 311 0046 1B68     		ldr	r3, [r3]
 312 0048 9A68     		ldr	r2, [r3, #8]
 313 004a 0C4B     		ldr	r3, .L14
 314 004c 1340     		ands	r3, r3, r2
 315 004e FB60     		str	r3, [r7, #12]
 316 0050 7B68     		ldr	r3, [r7, #4]
 317 0052 1B68     		ldr	r3, [r3]
 318 0054 FA68     		ldr	r2, [r7, #12]
 319 0056 9A60     		str	r2, [r3, #8]
 320 0058 7B68     		ldr	r3, [r7, #4]
 321 005a 1B68     		ldr	r3, [r3]
 322 005c FF22     		movs	r2, #255
 323 005e 5A62     		str	r2, [r3, #36]
 324 0060 7B68     		ldr	r3, [r7, #4]
 325 0062 0122     		movs	r2, #1
 326 0064 5A77     		strb	r2, [r3, #29]
 327 0066 7B68     		ldr	r3, [r7, #4]
 328 0068 0022     		movs	r2, #0
 329 006a 1A77     		strb	r2, [r3, #28]
 330 006c 0023     		movs	r3, #0
 331              	.L13:
 332 006e 1846     		mov	r0, r3
 333 0070 1437     		adds	r7, r7, #20
 334 0072 BD46     		mov	sp, r7
 335              		@ sp needed
 336 0074 5DF8047B 		ldr	r7, [sp], #4
 337 0078 7047     		bx	lr
 338              	.L15:
 339 007a 00BF     		.align	2
 340              	.L14:
 341 007c F7F7FFFF 		.word	-2057
 343              		.section	.text.HAL_RTCEx_SetInternalTimeStamp,"ax",%progbits
 344              		.align	1
 345              		.global	HAL_RTCEx_SetInternalTimeStamp
 346              		.syntax unified
 347              		.thumb
 348              		.thumb_func
ARM GAS  C:\msys64\tmp\ccDI7K0i.s 			page 7


 350              	HAL_RTCEx_SetInternalTimeStamp:
 351              		@ args = 0, pretend = 0, frame = 8
 352              		@ frame_needed = 1, uses_anonymous_args = 0
 353              		@ link register save eliminated.
 354 0000 80B4     		push	{r7}
 355 0002 83B0     		sub	sp, sp, #12
 356 0004 00AF     		add	r7, sp, #0
 357 0006 7860     		str	r0, [r7, #4]
 358 0008 7B68     		ldr	r3, [r7, #4]
 359 000a 1B7F     		ldrb	r3, [r3, #28]	@ zero_extendqisi2
 360 000c 012B     		cmp	r3, #1
 361 000e 01D1     		bne	.L17
 362 0010 0223     		movs	r3, #2
 363 0012 29E0     		b	.L18
 364              	.L17:
 365 0014 7B68     		ldr	r3, [r7, #4]
 366 0016 0122     		movs	r2, #1
 367 0018 1A77     		strb	r2, [r3, #28]
 368 001a 7B68     		ldr	r3, [r7, #4]
 369 001c 0222     		movs	r2, #2
 370 001e 5A77     		strb	r2, [r3, #29]
 371 0020 7B68     		ldr	r3, [r7, #4]
 372 0022 1B68     		ldr	r3, [r3]
 373 0024 CA22     		movs	r2, #202
 374 0026 5A62     		str	r2, [r3, #36]
 375 0028 7B68     		ldr	r3, [r7, #4]
 376 002a 1B68     		ldr	r3, [r3]
 377 002c 5322     		movs	r2, #83
 378 002e 5A62     		str	r2, [r3, #36]
 379 0030 7B68     		ldr	r3, [r7, #4]
 380 0032 1B68     		ldr	r3, [r3]
 381 0034 DB68     		ldr	r3, [r3, #12]
 382 0036 D9B2     		uxtb	r1, r3
 383 0038 7B68     		ldr	r3, [r7, #4]
 384 003a 1A68     		ldr	r2, [r3]
 385 003c 0D4B     		ldr	r3, .L19
 386 003e 0B43     		orrs	r3, r3, r1
 387 0040 D360     		str	r3, [r2, #12]
 388 0042 7B68     		ldr	r3, [r7, #4]
 389 0044 1B68     		ldr	r3, [r3]
 390 0046 9A68     		ldr	r2, [r3, #8]
 391 0048 7B68     		ldr	r3, [r7, #4]
 392 004a 1B68     		ldr	r3, [r3]
 393 004c 42F08072 		orr	r2, r2, #16777216
 394 0050 9A60     		str	r2, [r3, #8]
 395 0052 7B68     		ldr	r3, [r7, #4]
 396 0054 1B68     		ldr	r3, [r3]
 397 0056 FF22     		movs	r2, #255
 398 0058 5A62     		str	r2, [r3, #36]
 399 005a 7B68     		ldr	r3, [r7, #4]
 400 005c 0122     		movs	r2, #1
 401 005e 5A77     		strb	r2, [r3, #29]
 402 0060 7B68     		ldr	r3, [r7, #4]
 403 0062 0022     		movs	r2, #0
 404 0064 1A77     		strb	r2, [r3, #28]
 405 0066 0023     		movs	r3, #0
 406              	.L18:
ARM GAS  C:\msys64\tmp\ccDI7K0i.s 			page 8


 407 0068 1846     		mov	r0, r3
 408 006a 0C37     		adds	r7, r7, #12
 409 006c BD46     		mov	sp, r7
 410              		@ sp needed
 411 006e 5DF8047B 		ldr	r7, [sp], #4
 412 0072 7047     		bx	lr
 413              	.L20:
 414              		.align	2
 415              	.L19:
 416 0074 7FFFFDFF 		.word	-131201
 418              		.section	.text.HAL_RTCEx_DeactivateInternalTimeStamp,"ax",%progbits
 419              		.align	1
 420              		.global	HAL_RTCEx_DeactivateInternalTimeStamp
 421              		.syntax unified
 422              		.thumb
 423              		.thumb_func
 425              	HAL_RTCEx_DeactivateInternalTimeStamp:
 426              		@ args = 0, pretend = 0, frame = 8
 427              		@ frame_needed = 1, uses_anonymous_args = 0
 428              		@ link register save eliminated.
 429 0000 80B4     		push	{r7}
 430 0002 83B0     		sub	sp, sp, #12
 431 0004 00AF     		add	r7, sp, #0
 432 0006 7860     		str	r0, [r7, #4]
 433 0008 7B68     		ldr	r3, [r7, #4]
 434 000a 1B7F     		ldrb	r3, [r3, #28]	@ zero_extendqisi2
 435 000c 012B     		cmp	r3, #1
 436 000e 01D1     		bne	.L22
 437 0010 0223     		movs	r3, #2
 438 0012 20E0     		b	.L23
 439              	.L22:
 440 0014 7B68     		ldr	r3, [r7, #4]
 441 0016 0122     		movs	r2, #1
 442 0018 1A77     		strb	r2, [r3, #28]
 443 001a 7B68     		ldr	r3, [r7, #4]
 444 001c 0222     		movs	r2, #2
 445 001e 5A77     		strb	r2, [r3, #29]
 446 0020 7B68     		ldr	r3, [r7, #4]
 447 0022 1B68     		ldr	r3, [r3]
 448 0024 CA22     		movs	r2, #202
 449 0026 5A62     		str	r2, [r3, #36]
 450 0028 7B68     		ldr	r3, [r7, #4]
 451 002a 1B68     		ldr	r3, [r3]
 452 002c 5322     		movs	r2, #83
 453 002e 5A62     		str	r2, [r3, #36]
 454 0030 7B68     		ldr	r3, [r7, #4]
 455 0032 1B68     		ldr	r3, [r3]
 456 0034 9A68     		ldr	r2, [r3, #8]
 457 0036 7B68     		ldr	r3, [r7, #4]
 458 0038 1B68     		ldr	r3, [r3]
 459 003a 22F08072 		bic	r2, r2, #16777216
 460 003e 9A60     		str	r2, [r3, #8]
 461 0040 7B68     		ldr	r3, [r7, #4]
 462 0042 1B68     		ldr	r3, [r3]
 463 0044 FF22     		movs	r2, #255
 464 0046 5A62     		str	r2, [r3, #36]
 465 0048 7B68     		ldr	r3, [r7, #4]
ARM GAS  C:\msys64\tmp\ccDI7K0i.s 			page 9


 466 004a 0122     		movs	r2, #1
 467 004c 5A77     		strb	r2, [r3, #29]
 468 004e 7B68     		ldr	r3, [r7, #4]
 469 0050 0022     		movs	r2, #0
 470 0052 1A77     		strb	r2, [r3, #28]
 471 0054 0023     		movs	r3, #0
 472              	.L23:
 473 0056 1846     		mov	r0, r3
 474 0058 0C37     		adds	r7, r7, #12
 475 005a BD46     		mov	sp, r7
 476              		@ sp needed
 477 005c 5DF8047B 		ldr	r7, [sp], #4
 478 0060 7047     		bx	lr
 480              		.section	.text.HAL_RTCEx_GetTimeStamp,"ax",%progbits
 481              		.align	1
 482              		.global	HAL_RTCEx_GetTimeStamp
 483              		.syntax unified
 484              		.thumb
 485              		.thumb_func
 487              	HAL_RTCEx_GetTimeStamp:
 488              		@ args = 0, pretend = 0, frame = 24
 489              		@ frame_needed = 1, uses_anonymous_args = 0
 490 0000 80B5     		push	{r7, lr}
 491 0002 86B0     		sub	sp, sp, #24
 492 0004 00AF     		add	r7, sp, #0
 493 0006 F860     		str	r0, [r7, #12]
 494 0008 B960     		str	r1, [r7, #8]
 495 000a 7A60     		str	r2, [r7, #4]
 496 000c 3B60     		str	r3, [r7]
 497 000e 0023     		movs	r3, #0
 498 0010 7B61     		str	r3, [r7, #20]
 499 0012 0023     		movs	r3, #0
 500 0014 3B61     		str	r3, [r7, #16]
 501 0016 FB68     		ldr	r3, [r7, #12]
 502 0018 1B68     		ldr	r3, [r3]
 503 001a 1A6B     		ldr	r2, [r3, #48]
 504 001c 4B4B     		ldr	r3, .L27
 505 001e 1340     		ands	r3, r3, r2
 506 0020 7B61     		str	r3, [r7, #20]
 507 0022 FB68     		ldr	r3, [r7, #12]
 508 0024 1B68     		ldr	r3, [r3]
 509 0026 5A6B     		ldr	r2, [r3, #52]
 510 0028 494B     		ldr	r3, .L27+4
 511 002a 1340     		ands	r3, r3, r2
 512 002c 3B61     		str	r3, [r7, #16]
 513 002e 7B69     		ldr	r3, [r7, #20]
 514 0030 1B0C     		lsrs	r3, r3, #16
 515 0032 DBB2     		uxtb	r3, r3
 516 0034 03F03F03 		and	r3, r3, #63
 517 0038 DAB2     		uxtb	r2, r3
 518 003a BB68     		ldr	r3, [r7, #8]
 519 003c 1A70     		strb	r2, [r3]
 520 003e 7B69     		ldr	r3, [r7, #20]
 521 0040 1B0A     		lsrs	r3, r3, #8
 522 0042 DBB2     		uxtb	r3, r3
 523 0044 03F07F03 		and	r3, r3, #127
 524 0048 DAB2     		uxtb	r2, r3
ARM GAS  C:\msys64\tmp\ccDI7K0i.s 			page 10


 525 004a BB68     		ldr	r3, [r7, #8]
 526 004c 5A70     		strb	r2, [r3, #1]
 527 004e 7B69     		ldr	r3, [r7, #20]
 528 0050 DBB2     		uxtb	r3, r3
 529 0052 03F07F03 		and	r3, r3, #127
 530 0056 DAB2     		uxtb	r2, r3
 531 0058 BB68     		ldr	r3, [r7, #8]
 532 005a 9A70     		strb	r2, [r3, #2]
 533 005c 7B69     		ldr	r3, [r7, #20]
 534 005e 9B0D     		lsrs	r3, r3, #22
 535 0060 DBB2     		uxtb	r3, r3
 536 0062 03F00103 		and	r3, r3, #1
 537 0066 DAB2     		uxtb	r2, r3
 538 0068 BB68     		ldr	r3, [r7, #8]
 539 006a DA70     		strb	r2, [r3, #3]
 540 006c FB68     		ldr	r3, [r7, #12]
 541 006e 1B68     		ldr	r3, [r3]
 542 0070 9A6B     		ldr	r2, [r3, #56]
 543 0072 BB68     		ldr	r3, [r7, #8]
 544 0074 5A60     		str	r2, [r3, #4]
 545 0076 7B68     		ldr	r3, [r7, #4]
 546 0078 0022     		movs	r2, #0
 547 007a DA70     		strb	r2, [r3, #3]
 548 007c 3B69     		ldr	r3, [r7, #16]
 549 007e 1B0A     		lsrs	r3, r3, #8
 550 0080 DBB2     		uxtb	r3, r3
 551 0082 03F01F03 		and	r3, r3, #31
 552 0086 DAB2     		uxtb	r2, r3
 553 0088 7B68     		ldr	r3, [r7, #4]
 554 008a 5A70     		strb	r2, [r3, #1]
 555 008c 3B69     		ldr	r3, [r7, #16]
 556 008e DBB2     		uxtb	r3, r3
 557 0090 03F03F03 		and	r3, r3, #63
 558 0094 DAB2     		uxtb	r2, r3
 559 0096 7B68     		ldr	r3, [r7, #4]
 560 0098 9A70     		strb	r2, [r3, #2]
 561 009a 3B69     		ldr	r3, [r7, #16]
 562 009c 5B0B     		lsrs	r3, r3, #13
 563 009e DBB2     		uxtb	r3, r3
 564 00a0 03F00703 		and	r3, r3, #7
 565 00a4 DAB2     		uxtb	r2, r3
 566 00a6 7B68     		ldr	r3, [r7, #4]
 567 00a8 1A70     		strb	r2, [r3]
 568 00aa 3B68     		ldr	r3, [r7]
 569 00ac 002B     		cmp	r3, #0
 570 00ae 35D1     		bne	.L25
 571 00b0 BB68     		ldr	r3, [r7, #8]
 572 00b2 1B78     		ldrb	r3, [r3]	@ zero_extendqisi2
 573 00b4 1846     		mov	r0, r3
 574 00b6 FFF7FEFF 		bl	RTC_Bcd2ToByte
 575 00ba 0346     		mov	r3, r0
 576 00bc 1A46     		mov	r2, r3
 577 00be BB68     		ldr	r3, [r7, #8]
 578 00c0 1A70     		strb	r2, [r3]
 579 00c2 BB68     		ldr	r3, [r7, #8]
 580 00c4 5B78     		ldrb	r3, [r3, #1]	@ zero_extendqisi2
 581 00c6 1846     		mov	r0, r3
ARM GAS  C:\msys64\tmp\ccDI7K0i.s 			page 11


 582 00c8 FFF7FEFF 		bl	RTC_Bcd2ToByte
 583 00cc 0346     		mov	r3, r0
 584 00ce 1A46     		mov	r2, r3
 585 00d0 BB68     		ldr	r3, [r7, #8]
 586 00d2 5A70     		strb	r2, [r3, #1]
 587 00d4 BB68     		ldr	r3, [r7, #8]
 588 00d6 9B78     		ldrb	r3, [r3, #2]	@ zero_extendqisi2
 589 00d8 1846     		mov	r0, r3
 590 00da FFF7FEFF 		bl	RTC_Bcd2ToByte
 591 00de 0346     		mov	r3, r0
 592 00e0 1A46     		mov	r2, r3
 593 00e2 BB68     		ldr	r3, [r7, #8]
 594 00e4 9A70     		strb	r2, [r3, #2]
 595 00e6 7B68     		ldr	r3, [r7, #4]
 596 00e8 5B78     		ldrb	r3, [r3, #1]	@ zero_extendqisi2
 597 00ea 1846     		mov	r0, r3
 598 00ec FFF7FEFF 		bl	RTC_Bcd2ToByte
 599 00f0 0346     		mov	r3, r0
 600 00f2 1A46     		mov	r2, r3
 601 00f4 7B68     		ldr	r3, [r7, #4]
 602 00f6 5A70     		strb	r2, [r3, #1]
 603 00f8 7B68     		ldr	r3, [r7, #4]
 604 00fa 9B78     		ldrb	r3, [r3, #2]	@ zero_extendqisi2
 605 00fc 1846     		mov	r0, r3
 606 00fe FFF7FEFF 		bl	RTC_Bcd2ToByte
 607 0102 0346     		mov	r3, r0
 608 0104 1A46     		mov	r2, r3
 609 0106 7B68     		ldr	r3, [r7, #4]
 610 0108 9A70     		strb	r2, [r3, #2]
 611 010a 7B68     		ldr	r3, [r7, #4]
 612 010c 1B78     		ldrb	r3, [r3]	@ zero_extendqisi2
 613 010e 1846     		mov	r0, r3
 614 0110 FFF7FEFF 		bl	RTC_Bcd2ToByte
 615 0114 0346     		mov	r3, r0
 616 0116 1A46     		mov	r2, r3
 617 0118 7B68     		ldr	r3, [r7, #4]
 618 011a 1A70     		strb	r2, [r3]
 619              	.L25:
 620 011c FB68     		ldr	r3, [r7, #12]
 621 011e 1B68     		ldr	r3, [r3]
 622 0120 DB68     		ldr	r3, [r3, #12]
 623 0122 D9B2     		uxtb	r1, r3
 624 0124 FB68     		ldr	r3, [r7, #12]
 625 0126 1A68     		ldr	r2, [r3]
 626 0128 0A4B     		ldr	r3, .L27+8
 627 012a 0B43     		orrs	r3, r3, r1
 628 012c D360     		str	r3, [r2, #12]
 629 012e FB68     		ldr	r3, [r7, #12]
 630 0130 1B68     		ldr	r3, [r3]
 631 0132 DB68     		ldr	r3, [r3, #12]
 632 0134 DAB2     		uxtb	r2, r3
 633 0136 FB68     		ldr	r3, [r7, #12]
 634 0138 1B68     		ldr	r3, [r3]
 635 013a 62F40862 		orn	r2, r2, #2176
 636 013e DA60     		str	r2, [r3, #12]
 637 0140 0023     		movs	r3, #0
 638 0142 1846     		mov	r0, r3
ARM GAS  C:\msys64\tmp\ccDI7K0i.s 			page 12


 639 0144 1837     		adds	r7, r7, #24
 640 0146 BD46     		mov	sp, r7
 641              		@ sp needed
 642 0148 80BD     		pop	{r7, pc}
 643              	.L28:
 644 014a 00BF     		.align	2
 645              	.L27:
 646 014c 7F7F7F00 		.word	8355711
 647 0150 3FFFFF00 		.word	16777023
 648 0154 7FFFFDFF 		.word	-131201
 650              		.section	.text.HAL_RTCEx_SetTamper,"ax",%progbits
 651              		.align	1
 652              		.global	HAL_RTCEx_SetTamper
 653              		.syntax unified
 654              		.thumb
 655              		.thumb_func
 657              	HAL_RTCEx_SetTamper:
 658              		@ args = 0, pretend = 0, frame = 16
 659              		@ frame_needed = 1, uses_anonymous_args = 0
 660              		@ link register save eliminated.
 661 0000 80B4     		push	{r7}
 662 0002 85B0     		sub	sp, sp, #20
 663 0004 00AF     		add	r7, sp, #0
 664 0006 7860     		str	r0, [r7, #4]
 665 0008 3960     		str	r1, [r7]
 666 000a 0023     		movs	r3, #0
 667 000c FB60     		str	r3, [r7, #12]
 668 000e 7B68     		ldr	r3, [r7, #4]
 669 0010 1B7F     		ldrb	r3, [r3, #28]	@ zero_extendqisi2
 670 0012 012B     		cmp	r3, #1
 671 0014 01D1     		bne	.L30
 672 0016 0223     		movs	r3, #2
 673 0018 E4E0     		b	.L31
 674              	.L30:
 675 001a 7B68     		ldr	r3, [r7, #4]
 676 001c 0122     		movs	r2, #1
 677 001e 1A77     		strb	r2, [r3, #28]
 678 0020 7B68     		ldr	r3, [r7, #4]
 679 0022 0222     		movs	r2, #2
 680 0024 5A77     		strb	r2, [r3, #29]
 681 0026 7B68     		ldr	r3, [r7, #4]
 682 0028 1B68     		ldr	r3, [r3]
 683 002a 1B6C     		ldr	r3, [r3, #64]
 684 002c FB60     		str	r3, [r7, #12]
 685 002e 3B68     		ldr	r3, [r7]
 686 0030 1B68     		ldr	r3, [r3]
 687 0032 FA68     		ldr	r2, [r7, #12]
 688 0034 1343     		orrs	r3, r3, r2
 689 0036 FB60     		str	r3, [r7, #12]
 690 0038 3B68     		ldr	r3, [r7]
 691 003a 9B68     		ldr	r3, [r3, #8]
 692 003c 022B     		cmp	r3, #2
 693 003e 06D1     		bne	.L32
 694 0040 3B68     		ldr	r3, [r7]
 695 0042 1B68     		ldr	r3, [r3]
 696 0044 5B00     		lsls	r3, r3, #1
 697 0046 FA68     		ldr	r2, [r7, #12]
ARM GAS  C:\msys64\tmp\ccDI7K0i.s 			page 13


 698 0048 1343     		orrs	r3, r3, r2
 699 004a FB60     		str	r3, [r7, #12]
 700 004c 06E0     		b	.L33
 701              	.L32:
 702 004e 3B68     		ldr	r3, [r7]
 703 0050 1B68     		ldr	r3, [r3]
 704 0052 5B00     		lsls	r3, r3, #1
 705 0054 DB43     		mvns	r3, r3
 706 0056 FA68     		ldr	r2, [r7, #12]
 707 0058 1340     		ands	r3, r3, r2
 708 005a FB60     		str	r3, [r7, #12]
 709              	.L33:
 710 005c 3B68     		ldr	r3, [r7]
 711 005e DB68     		ldr	r3, [r3, #12]
 712 0060 002B     		cmp	r3, #0
 713 0062 1ED0     		beq	.L34
 714 0064 3B68     		ldr	r3, [r7]
 715 0066 1B68     		ldr	r3, [r3]
 716 0068 03F00103 		and	r3, r3, #1
 717 006c 002B     		cmp	r3, #0
 718 006e 03D0     		beq	.L35
 719 0070 FB68     		ldr	r3, [r7, #12]
 720 0072 43F40033 		orr	r3, r3, #131072
 721 0076 FB60     		str	r3, [r7, #12]
 722              	.L35:
 723 0078 3B68     		ldr	r3, [r7]
 724 007a 1B68     		ldr	r3, [r3]
 725 007c 03F00803 		and	r3, r3, #8
 726 0080 002B     		cmp	r3, #0
 727 0082 03D0     		beq	.L36
 728 0084 FB68     		ldr	r3, [r7, #12]
 729 0086 43F48013 		orr	r3, r3, #1048576
 730 008a FB60     		str	r3, [r7, #12]
 731              	.L36:
 732 008c 3B68     		ldr	r3, [r7]
 733 008e 1B68     		ldr	r3, [r3]
 734 0090 03F02003 		and	r3, r3, #32
 735 0094 002B     		cmp	r3, #0
 736 0096 22D0     		beq	.L37
 737 0098 FB68     		ldr	r3, [r7, #12]
 738 009a 43F40003 		orr	r3, r3, #8388608
 739 009e FB60     		str	r3, [r7, #12]
 740 00a0 1DE0     		b	.L37
 741              	.L34:
 742 00a2 3B68     		ldr	r3, [r7]
 743 00a4 1B68     		ldr	r3, [r3]
 744 00a6 03F00103 		and	r3, r3, #1
 745 00aa 002B     		cmp	r3, #0
 746 00ac 03D0     		beq	.L38
 747 00ae FB68     		ldr	r3, [r7, #12]
 748 00b0 23F40033 		bic	r3, r3, #131072
 749 00b4 FB60     		str	r3, [r7, #12]
 750              	.L38:
 751 00b6 3B68     		ldr	r3, [r7]
 752 00b8 1B68     		ldr	r3, [r3]
 753 00ba 03F00803 		and	r3, r3, #8
 754 00be 002B     		cmp	r3, #0
ARM GAS  C:\msys64\tmp\ccDI7K0i.s 			page 14


 755 00c0 03D0     		beq	.L39
 756 00c2 FB68     		ldr	r3, [r7, #12]
 757 00c4 23F48013 		bic	r3, r3, #1048576
 758 00c8 FB60     		str	r3, [r7, #12]
 759              	.L39:
 760 00ca 3B68     		ldr	r3, [r7]
 761 00cc 1B68     		ldr	r3, [r3]
 762 00ce 03F02003 		and	r3, r3, #32
 763 00d2 002B     		cmp	r3, #0
 764 00d4 03D0     		beq	.L37
 765 00d6 FB68     		ldr	r3, [r7, #12]
 766 00d8 23F40003 		bic	r3, r3, #8388608
 767 00dc FB60     		str	r3, [r7, #12]
 768              	.L37:
 769 00de 3B68     		ldr	r3, [r7]
 770 00e0 1B69     		ldr	r3, [r3, #16]
 771 00e2 002B     		cmp	r3, #0
 772 00e4 1ED0     		beq	.L40
 773 00e6 3B68     		ldr	r3, [r7]
 774 00e8 1B68     		ldr	r3, [r3]
 775 00ea 03F00103 		and	r3, r3, #1
 776 00ee 002B     		cmp	r3, #0
 777 00f0 03D0     		beq	.L41
 778 00f2 FB68     		ldr	r3, [r7, #12]
 779 00f4 43F48023 		orr	r3, r3, #262144
 780 00f8 FB60     		str	r3, [r7, #12]
 781              	.L41:
 782 00fa 3B68     		ldr	r3, [r7]
 783 00fc 1B68     		ldr	r3, [r3]
 784 00fe 03F00803 		and	r3, r3, #8
 785 0102 002B     		cmp	r3, #0
 786 0104 03D0     		beq	.L42
 787 0106 FB68     		ldr	r3, [r7, #12]
 788 0108 43F40013 		orr	r3, r3, #2097152
 789 010c FB60     		str	r3, [r7, #12]
 790              	.L42:
 791 010e 3B68     		ldr	r3, [r7]
 792 0110 1B68     		ldr	r3, [r3]
 793 0112 03F02003 		and	r3, r3, #32
 794 0116 002B     		cmp	r3, #0
 795 0118 22D0     		beq	.L43
 796 011a FB68     		ldr	r3, [r7, #12]
 797 011c 43F08073 		orr	r3, r3, #16777216
 798 0120 FB60     		str	r3, [r7, #12]
 799 0122 1DE0     		b	.L43
 800              	.L40:
 801 0124 3B68     		ldr	r3, [r7]
 802 0126 1B68     		ldr	r3, [r3]
 803 0128 03F00103 		and	r3, r3, #1
 804 012c 002B     		cmp	r3, #0
 805 012e 03D0     		beq	.L44
 806 0130 FB68     		ldr	r3, [r7, #12]
 807 0132 23F48023 		bic	r3, r3, #262144
 808 0136 FB60     		str	r3, [r7, #12]
 809              	.L44:
 810 0138 3B68     		ldr	r3, [r7]
 811 013a 1B68     		ldr	r3, [r3]
ARM GAS  C:\msys64\tmp\ccDI7K0i.s 			page 15


 812 013c 03F00803 		and	r3, r3, #8
 813 0140 002B     		cmp	r3, #0
 814 0142 03D0     		beq	.L45
 815 0144 FB68     		ldr	r3, [r7, #12]
 816 0146 23F40013 		bic	r3, r3, #2097152
 817 014a FB60     		str	r3, [r7, #12]
 818              	.L45:
 819 014c 3B68     		ldr	r3, [r7]
 820 014e 1B68     		ldr	r3, [r3]
 821 0150 03F02003 		and	r3, r3, #32
 822 0154 002B     		cmp	r3, #0
 823 0156 03D0     		beq	.L43
 824 0158 FB68     		ldr	r3, [r7, #12]
 825 015a 23F08073 		bic	r3, r3, #16777216
 826 015e FB60     		str	r3, [r7, #12]
 827              	.L43:
 828 0160 FA68     		ldr	r2, [r7, #12]
 829 0162 234B     		ldr	r3, .L49
 830 0164 1340     		ands	r3, r3, r2
 831 0166 FB60     		str	r3, [r7, #12]
 832 0168 3B68     		ldr	r3, [r7]
 833 016a 5A69     		ldr	r2, [r3, #20]
 834 016c 3B68     		ldr	r3, [r7]
 835 016e 9B69     		ldr	r3, [r3, #24]
 836 0170 1A43     		orrs	r2, r2, r3
 837 0172 3B68     		ldr	r3, [r7]
 838 0174 DB69     		ldr	r3, [r3, #28]
 839 0176 1A43     		orrs	r2, r2, r3
 840 0178 3B68     		ldr	r3, [r7]
 841 017a 1B6A     		ldr	r3, [r3, #32]
 842 017c 1A43     		orrs	r2, r2, r3
 843 017e 3B68     		ldr	r3, [r7]
 844 0180 5B6A     		ldr	r3, [r3, #36]
 845 0182 1343     		orrs	r3, r3, r2
 846 0184 FA68     		ldr	r2, [r7, #12]
 847 0186 1343     		orrs	r3, r3, r2
 848 0188 FB60     		str	r3, [r7, #12]
 849 018a 3B68     		ldr	r3, [r7]
 850 018c 1B68     		ldr	r3, [r3]
 851 018e 03F00103 		and	r3, r3, #1
 852 0192 002B     		cmp	r3, #0
 853 0194 03D0     		beq	.L46
 854 0196 FB68     		ldr	r3, [r7, #12]
 855 0198 23F48033 		bic	r3, r3, #65536
 856 019c FB60     		str	r3, [r7, #12]
 857              	.L46:
 858 019e 3B68     		ldr	r3, [r7]
 859 01a0 1B68     		ldr	r3, [r3]
 860 01a2 03F00803 		and	r3, r3, #8
 861 01a6 002B     		cmp	r3, #0
 862 01a8 03D0     		beq	.L47
 863 01aa FB68     		ldr	r3, [r7, #12]
 864 01ac 23F40023 		bic	r3, r3, #524288
 865 01b0 FB60     		str	r3, [r7, #12]
 866              	.L47:
 867 01b2 3B68     		ldr	r3, [r7]
 868 01b4 1B68     		ldr	r3, [r3]
ARM GAS  C:\msys64\tmp\ccDI7K0i.s 			page 16


 869 01b6 03F02003 		and	r3, r3, #32
 870 01ba 002B     		cmp	r3, #0
 871 01bc 03D0     		beq	.L48
 872 01be FB68     		ldr	r3, [r7, #12]
 873 01c0 23F48003 		bic	r3, r3, #4194304
 874 01c4 FB60     		str	r3, [r7, #12]
 875              	.L48:
 876 01c6 FB68     		ldr	r3, [r7, #12]
 877 01c8 23F00403 		bic	r3, r3, #4
 878 01cc FB60     		str	r3, [r7, #12]
 879 01ce 7B68     		ldr	r3, [r7, #4]
 880 01d0 1B68     		ldr	r3, [r3]
 881 01d2 FA68     		ldr	r2, [r7, #12]
 882 01d4 1A64     		str	r2, [r3, #64]
 883 01d6 7B68     		ldr	r3, [r7, #4]
 884 01d8 0122     		movs	r2, #1
 885 01da 5A77     		strb	r2, [r3, #29]
 886 01dc 7B68     		ldr	r3, [r7, #4]
 887 01de 0022     		movs	r2, #0
 888 01e0 1A77     		strb	r2, [r3, #28]
 889 01e2 0023     		movs	r3, #0
 890              	.L31:
 891 01e4 1846     		mov	r0, r3
 892 01e6 1437     		adds	r7, r7, #20
 893 01e8 BD46     		mov	sp, r7
 894              		@ sp needed
 895 01ea 5DF8047B 		ldr	r7, [sp], #4
 896 01ee 7047     		bx	lr
 897              	.L50:
 898              		.align	2
 899              	.L49:
 900 01f0 7F00FFFF 		.word	-65409
 902              		.section	.text.HAL_RTCEx_SetTamper_IT,"ax",%progbits
 903              		.align	1
 904              		.global	HAL_RTCEx_SetTamper_IT
 905              		.syntax unified
 906              		.thumb
 907              		.thumb_func
 909              	HAL_RTCEx_SetTamper_IT:
 910              		@ args = 0, pretend = 0, frame = 16
 911              		@ frame_needed = 1, uses_anonymous_args = 0
 912              		@ link register save eliminated.
 913 0000 80B4     		push	{r7}
 914 0002 85B0     		sub	sp, sp, #20
 915 0004 00AF     		add	r7, sp, #0
 916 0006 7860     		str	r0, [r7, #4]
 917 0008 3960     		str	r1, [r7]
 918 000a 0023     		movs	r3, #0
 919 000c FB60     		str	r3, [r7, #12]
 920 000e 7B68     		ldr	r3, [r7, #4]
 921 0010 1B7F     		ldrb	r3, [r3, #28]	@ zero_extendqisi2
 922 0012 012B     		cmp	r3, #1
 923 0014 01D1     		bne	.L52
 924 0016 0223     		movs	r3, #2
 925 0018 D3E0     		b	.L53
 926              	.L52:
 927 001a 7B68     		ldr	r3, [r7, #4]
ARM GAS  C:\msys64\tmp\ccDI7K0i.s 			page 17


 928 001c 0122     		movs	r2, #1
 929 001e 1A77     		strb	r2, [r3, #28]
 930 0020 7B68     		ldr	r3, [r7, #4]
 931 0022 0222     		movs	r2, #2
 932 0024 5A77     		strb	r2, [r3, #29]
 933 0026 7B68     		ldr	r3, [r7, #4]
 934 0028 1B68     		ldr	r3, [r3]
 935 002a 1B6C     		ldr	r3, [r3, #64]
 936 002c FB60     		str	r3, [r7, #12]
 937 002e 3B68     		ldr	r3, [r7]
 938 0030 1B68     		ldr	r3, [r3]
 939 0032 FA68     		ldr	r2, [r7, #12]
 940 0034 1343     		orrs	r3, r3, r2
 941 0036 FB60     		str	r3, [r7, #12]
 942 0038 3B68     		ldr	r3, [r7]
 943 003a 9B68     		ldr	r3, [r3, #8]
 944 003c 022B     		cmp	r3, #2
 945 003e 06D1     		bne	.L54
 946 0040 3B68     		ldr	r3, [r7]
 947 0042 1B68     		ldr	r3, [r3]
 948 0044 5B00     		lsls	r3, r3, #1
 949 0046 FA68     		ldr	r2, [r7, #12]
 950 0048 1343     		orrs	r3, r3, r2
 951 004a FB60     		str	r3, [r7, #12]
 952 004c 06E0     		b	.L55
 953              	.L54:
 954 004e 3B68     		ldr	r3, [r7]
 955 0050 1B68     		ldr	r3, [r3]
 956 0052 5B00     		lsls	r3, r3, #1
 957 0054 DB43     		mvns	r3, r3
 958 0056 FA68     		ldr	r2, [r7, #12]
 959 0058 1340     		ands	r3, r3, r2
 960 005a FB60     		str	r3, [r7, #12]
 961              	.L55:
 962 005c 3B68     		ldr	r3, [r7]
 963 005e DB68     		ldr	r3, [r3, #12]
 964 0060 002B     		cmp	r3, #0
 965 0062 1ED0     		beq	.L56
 966 0064 3B68     		ldr	r3, [r7]
 967 0066 1B68     		ldr	r3, [r3]
 968 0068 03F00103 		and	r3, r3, #1
 969 006c 002B     		cmp	r3, #0
 970 006e 03D0     		beq	.L57
 971 0070 FB68     		ldr	r3, [r7, #12]
 972 0072 43F40033 		orr	r3, r3, #131072
 973 0076 FB60     		str	r3, [r7, #12]
 974              	.L57:
 975 0078 3B68     		ldr	r3, [r7]
 976 007a 1B68     		ldr	r3, [r3]
 977 007c 03F00803 		and	r3, r3, #8
 978 0080 002B     		cmp	r3, #0
 979 0082 03D0     		beq	.L58
 980 0084 FB68     		ldr	r3, [r7, #12]
 981 0086 43F48013 		orr	r3, r3, #1048576
 982 008a FB60     		str	r3, [r7, #12]
 983              	.L58:
 984 008c 3B68     		ldr	r3, [r7]
ARM GAS  C:\msys64\tmp\ccDI7K0i.s 			page 18


 985 008e 1B68     		ldr	r3, [r3]
 986 0090 03F02003 		and	r3, r3, #32
 987 0094 002B     		cmp	r3, #0
 988 0096 22D0     		beq	.L59
 989 0098 FB68     		ldr	r3, [r7, #12]
 990 009a 43F40003 		orr	r3, r3, #8388608
 991 009e FB60     		str	r3, [r7, #12]
 992 00a0 1DE0     		b	.L59
 993              	.L56:
 994 00a2 3B68     		ldr	r3, [r7]
 995 00a4 1B68     		ldr	r3, [r3]
 996 00a6 03F00103 		and	r3, r3, #1
 997 00aa 002B     		cmp	r3, #0
 998 00ac 03D0     		beq	.L60
 999 00ae FB68     		ldr	r3, [r7, #12]
 1000 00b0 23F40033 		bic	r3, r3, #131072
 1001 00b4 FB60     		str	r3, [r7, #12]
 1002              	.L60:
 1003 00b6 3B68     		ldr	r3, [r7]
 1004 00b8 1B68     		ldr	r3, [r3]
 1005 00ba 03F00803 		and	r3, r3, #8
 1006 00be 002B     		cmp	r3, #0
 1007 00c0 03D0     		beq	.L61
 1008 00c2 FB68     		ldr	r3, [r7, #12]
 1009 00c4 23F48013 		bic	r3, r3, #1048576
 1010 00c8 FB60     		str	r3, [r7, #12]
 1011              	.L61:
 1012 00ca 3B68     		ldr	r3, [r7]
 1013 00cc 1B68     		ldr	r3, [r3]
 1014 00ce 03F02003 		and	r3, r3, #32
 1015 00d2 002B     		cmp	r3, #0
 1016 00d4 03D0     		beq	.L59
 1017 00d6 FB68     		ldr	r3, [r7, #12]
 1018 00d8 23F40003 		bic	r3, r3, #8388608
 1019 00dc FB60     		str	r3, [r7, #12]
 1020              	.L59:
 1021 00de 3B68     		ldr	r3, [r7]
 1022 00e0 1B69     		ldr	r3, [r3, #16]
 1023 00e2 002B     		cmp	r3, #0
 1024 00e4 1ED0     		beq	.L62
 1025 00e6 3B68     		ldr	r3, [r7]
 1026 00e8 1B68     		ldr	r3, [r3]
 1027 00ea 03F00103 		and	r3, r3, #1
 1028 00ee 002B     		cmp	r3, #0
 1029 00f0 03D0     		beq	.L63
 1030 00f2 FB68     		ldr	r3, [r7, #12]
 1031 00f4 43F48023 		orr	r3, r3, #262144
 1032 00f8 FB60     		str	r3, [r7, #12]
 1033              	.L63:
 1034 00fa 3B68     		ldr	r3, [r7]
 1035 00fc 1B68     		ldr	r3, [r3]
 1036 00fe 03F00803 		and	r3, r3, #8
 1037 0102 002B     		cmp	r3, #0
 1038 0104 03D0     		beq	.L64
 1039 0106 FB68     		ldr	r3, [r7, #12]
 1040 0108 43F40013 		orr	r3, r3, #2097152
 1041 010c FB60     		str	r3, [r7, #12]
ARM GAS  C:\msys64\tmp\ccDI7K0i.s 			page 19


 1042              	.L64:
 1043 010e 3B68     		ldr	r3, [r7]
 1044 0110 1B68     		ldr	r3, [r3]
 1045 0112 03F02003 		and	r3, r3, #32
 1046 0116 002B     		cmp	r3, #0
 1047 0118 22D0     		beq	.L65
 1048 011a FB68     		ldr	r3, [r7, #12]
 1049 011c 43F08073 		orr	r3, r3, #16777216
 1050 0120 FB60     		str	r3, [r7, #12]
 1051 0122 1DE0     		b	.L65
 1052              	.L62:
 1053 0124 3B68     		ldr	r3, [r7]
 1054 0126 1B68     		ldr	r3, [r3]
 1055 0128 03F00103 		and	r3, r3, #1
 1056 012c 002B     		cmp	r3, #0
 1057 012e 03D0     		beq	.L66
 1058 0130 FB68     		ldr	r3, [r7, #12]
 1059 0132 23F48023 		bic	r3, r3, #262144
 1060 0136 FB60     		str	r3, [r7, #12]
 1061              	.L66:
 1062 0138 3B68     		ldr	r3, [r7]
 1063 013a 1B68     		ldr	r3, [r3]
 1064 013c 03F00803 		and	r3, r3, #8
 1065 0140 002B     		cmp	r3, #0
 1066 0142 03D0     		beq	.L67
 1067 0144 FB68     		ldr	r3, [r7, #12]
 1068 0146 23F40013 		bic	r3, r3, #2097152
 1069 014a FB60     		str	r3, [r7, #12]
 1070              	.L67:
 1071 014c 3B68     		ldr	r3, [r7]
 1072 014e 1B68     		ldr	r3, [r3]
 1073 0150 03F02003 		and	r3, r3, #32
 1074 0154 002B     		cmp	r3, #0
 1075 0156 03D0     		beq	.L65
 1076 0158 FB68     		ldr	r3, [r7, #12]
 1077 015a 23F08073 		bic	r3, r3, #16777216
 1078 015e FB60     		str	r3, [r7, #12]
 1079              	.L65:
 1080 0160 FA68     		ldr	r2, [r7, #12]
 1081 0162 1B4B     		ldr	r3, .L68
 1082 0164 1340     		ands	r3, r3, r2
 1083 0166 FB60     		str	r3, [r7, #12]
 1084 0168 3B68     		ldr	r3, [r7]
 1085 016a 5A69     		ldr	r2, [r3, #20]
 1086 016c 3B68     		ldr	r3, [r7]
 1087 016e 9B69     		ldr	r3, [r3, #24]
 1088 0170 1A43     		orrs	r2, r2, r3
 1089 0172 3B68     		ldr	r3, [r7]
 1090 0174 DB69     		ldr	r3, [r3, #28]
 1091 0176 1A43     		orrs	r2, r2, r3
 1092 0178 3B68     		ldr	r3, [r7]
 1093 017a 1B6A     		ldr	r3, [r3, #32]
 1094 017c 1A43     		orrs	r2, r2, r3
 1095 017e 3B68     		ldr	r3, [r7]
 1096 0180 5B6A     		ldr	r3, [r3, #36]
 1097 0182 1343     		orrs	r3, r3, r2
 1098 0184 FA68     		ldr	r2, [r7, #12]
ARM GAS  C:\msys64\tmp\ccDI7K0i.s 			page 20


 1099 0186 1343     		orrs	r3, r3, r2
 1100 0188 FB60     		str	r3, [r7, #12]
 1101 018a 3B68     		ldr	r3, [r7]
 1102 018c 5B68     		ldr	r3, [r3, #4]
 1103 018e FA68     		ldr	r2, [r7, #12]
 1104 0190 1343     		orrs	r3, r3, r2
 1105 0192 FB60     		str	r3, [r7, #12]
 1106 0194 7B68     		ldr	r3, [r7, #4]
 1107 0196 1B68     		ldr	r3, [r3]
 1108 0198 FA68     		ldr	r2, [r7, #12]
 1109 019a 1A64     		str	r2, [r3, #64]
 1110 019c 0D4B     		ldr	r3, .L68+4
 1111 019e 1B68     		ldr	r3, [r3]
 1112 01a0 0C4A     		ldr	r2, .L68+4
 1113 01a2 43F40013 		orr	r3, r3, #2097152
 1114 01a6 1360     		str	r3, [r2]
 1115 01a8 0A4B     		ldr	r3, .L68+4
 1116 01aa 9B68     		ldr	r3, [r3, #8]
 1117 01ac 094A     		ldr	r2, .L68+4
 1118 01ae 43F40013 		orr	r3, r3, #2097152
 1119 01b2 9360     		str	r3, [r2, #8]
 1120 01b4 7B68     		ldr	r3, [r7, #4]
 1121 01b6 0122     		movs	r2, #1
 1122 01b8 5A77     		strb	r2, [r3, #29]
 1123 01ba 7B68     		ldr	r3, [r7, #4]
 1124 01bc 0022     		movs	r2, #0
 1125 01be 1A77     		strb	r2, [r3, #28]
 1126 01c0 0023     		movs	r3, #0
 1127              	.L53:
 1128 01c2 1846     		mov	r0, r3
 1129 01c4 1437     		adds	r7, r7, #20
 1130 01c6 BD46     		mov	sp, r7
 1131              		@ sp needed
 1132 01c8 5DF8047B 		ldr	r7, [sp], #4
 1133 01cc 7047     		bx	lr
 1134              	.L69:
 1135 01ce 00BF     		.align	2
 1136              	.L68:
 1137 01d0 7F00FFFF 		.word	-65409
 1138 01d4 003C0140 		.word	1073822720
 1140              		.section	.text.HAL_RTCEx_DeactivateTamper,"ax",%progbits
 1141              		.align	1
 1142              		.global	HAL_RTCEx_DeactivateTamper
 1143              		.syntax unified
 1144              		.thumb
 1145              		.thumb_func
 1147              	HAL_RTCEx_DeactivateTamper:
 1148              		@ args = 0, pretend = 0, frame = 8
 1149              		@ frame_needed = 1, uses_anonymous_args = 0
 1150              		@ link register save eliminated.
 1151 0000 80B4     		push	{r7}
 1152 0002 83B0     		sub	sp, sp, #12
 1153 0004 00AF     		add	r7, sp, #0
 1154 0006 7860     		str	r0, [r7, #4]
 1155 0008 3960     		str	r1, [r7]
 1156 000a 7B68     		ldr	r3, [r7, #4]
 1157 000c 1B7F     		ldrb	r3, [r3, #28]	@ zero_extendqisi2
ARM GAS  C:\msys64\tmp\ccDI7K0i.s 			page 21


 1158 000e 012B     		cmp	r3, #1
 1159 0010 01D1     		bne	.L71
 1160 0012 0223     		movs	r3, #2
 1161 0014 3CE0     		b	.L72
 1162              	.L71:
 1163 0016 7B68     		ldr	r3, [r7, #4]
 1164 0018 0122     		movs	r2, #1
 1165 001a 1A77     		strb	r2, [r3, #28]
 1166 001c 7B68     		ldr	r3, [r7, #4]
 1167 001e 0222     		movs	r2, #2
 1168 0020 5A77     		strb	r2, [r3, #29]
 1169 0022 7B68     		ldr	r3, [r7, #4]
 1170 0024 1B68     		ldr	r3, [r3]
 1171 0026 196C     		ldr	r1, [r3, #64]
 1172 0028 3B68     		ldr	r3, [r7]
 1173 002a DA43     		mvns	r2, r3
 1174 002c 7B68     		ldr	r3, [r7, #4]
 1175 002e 1B68     		ldr	r3, [r3]
 1176 0030 0A40     		ands	r2, r2, r1
 1177 0032 1A64     		str	r2, [r3, #64]
 1178 0034 3B68     		ldr	r3, [r7]
 1179 0036 03F00103 		and	r3, r3, #1
 1180 003a 002B     		cmp	r3, #0
 1181 003c 07D0     		beq	.L73
 1182 003e 7B68     		ldr	r3, [r7, #4]
 1183 0040 1B68     		ldr	r3, [r3]
 1184 0042 196C     		ldr	r1, [r3, #64]
 1185 0044 7B68     		ldr	r3, [r7, #4]
 1186 0046 1A68     		ldr	r2, [r3]
 1187 0048 144B     		ldr	r3, .L76
 1188 004a 0B40     		ands	r3, r3, r1
 1189 004c 1364     		str	r3, [r2, #64]
 1190              	.L73:
 1191 004e 3B68     		ldr	r3, [r7]
 1192 0050 03F00803 		and	r3, r3, #8
 1193 0054 002B     		cmp	r3, #0
 1194 0056 07D0     		beq	.L74
 1195 0058 7B68     		ldr	r3, [r7, #4]
 1196 005a 1B68     		ldr	r3, [r3]
 1197 005c 196C     		ldr	r1, [r3, #64]
 1198 005e 7B68     		ldr	r3, [r7, #4]
 1199 0060 1A68     		ldr	r2, [r3]
 1200 0062 0F4B     		ldr	r3, .L76+4
 1201 0064 0B40     		ands	r3, r3, r1
 1202 0066 1364     		str	r3, [r2, #64]
 1203              	.L74:
 1204 0068 3B68     		ldr	r3, [r7]
 1205 006a 03F02003 		and	r3, r3, #32
 1206 006e 002B     		cmp	r3, #0
 1207 0070 07D0     		beq	.L75
 1208 0072 7B68     		ldr	r3, [r7, #4]
 1209 0074 1B68     		ldr	r3, [r3]
 1210 0076 196C     		ldr	r1, [r3, #64]
 1211 0078 7B68     		ldr	r3, [r7, #4]
 1212 007a 1A68     		ldr	r2, [r3]
 1213 007c 094B     		ldr	r3, .L76+8
 1214 007e 0B40     		ands	r3, r3, r1
ARM GAS  C:\msys64\tmp\ccDI7K0i.s 			page 22


 1215 0080 1364     		str	r3, [r2, #64]
 1216              	.L75:
 1217 0082 7B68     		ldr	r3, [r7, #4]
 1218 0084 0122     		movs	r2, #1
 1219 0086 5A77     		strb	r2, [r3, #29]
 1220 0088 7B68     		ldr	r3, [r7, #4]
 1221 008a 0022     		movs	r2, #0
 1222 008c 1A77     		strb	r2, [r3, #28]
 1223 008e 0023     		movs	r3, #0
 1224              	.L72:
 1225 0090 1846     		mov	r0, r3
 1226 0092 0C37     		adds	r7, r7, #12
 1227 0094 BD46     		mov	sp, r7
 1228              		@ sp needed
 1229 0096 5DF8047B 		ldr	r7, [sp], #4
 1230 009a 7047     		bx	lr
 1231              	.L77:
 1232              		.align	2
 1233              	.L76:
 1234 009c FBFFFEFF 		.word	-65541
 1235 00a0 FBFFF7FF 		.word	-524293
 1236 00a4 FBFFBFFF 		.word	-4194309
 1238              		.section	.text.HAL_RTCEx_TamperTimeStampIRQHandler,"ax",%progbits
 1239              		.align	1
 1240              		.global	HAL_RTCEx_TamperTimeStampIRQHandler
 1241              		.syntax unified
 1242              		.thumb
 1243              		.thumb_func
 1245              	HAL_RTCEx_TamperTimeStampIRQHandler:
 1246              		@ args = 0, pretend = 0, frame = 8
 1247              		@ frame_needed = 1, uses_anonymous_args = 0
 1248 0000 80B5     		push	{r7, lr}
 1249 0002 82B0     		sub	sp, sp, #8
 1250 0004 00AF     		add	r7, sp, #0
 1251 0006 7860     		str	r0, [r7, #4]
 1252 0008 394B     		ldr	r3, .L83
 1253 000a 4FF40012 		mov	r2, #2097152
 1254 000e 5A61     		str	r2, [r3, #20]
 1255 0010 7B68     		ldr	r3, [r7, #4]
 1256 0012 1B68     		ldr	r3, [r3]
 1257 0014 9B68     		ldr	r3, [r3, #8]
 1258 0016 03F40043 		and	r3, r3, #32768
 1259 001a 002B     		cmp	r3, #0
 1260 001c 12D0     		beq	.L79
 1261 001e 7B68     		ldr	r3, [r7, #4]
 1262 0020 1B68     		ldr	r3, [r3]
 1263 0022 DB68     		ldr	r3, [r3, #12]
 1264 0024 03F40063 		and	r3, r3, #2048
 1265 0028 002B     		cmp	r3, #0
 1266 002a 0BD0     		beq	.L79
 1267 002c 7868     		ldr	r0, [r7, #4]
 1268 002e FFF7FEFF 		bl	HAL_RTCEx_TimeStampEventCallback
 1269 0032 7B68     		ldr	r3, [r7, #4]
 1270 0034 1B68     		ldr	r3, [r3]
 1271 0036 DB68     		ldr	r3, [r3, #12]
 1272 0038 DAB2     		uxtb	r2, r3
 1273 003a 7B68     		ldr	r3, [r7, #4]
ARM GAS  C:\msys64\tmp\ccDI7K0i.s 			page 23


 1274 003c 1B68     		ldr	r3, [r3]
 1275 003e 62F40862 		orn	r2, r2, #2176
 1276 0042 DA60     		str	r2, [r3, #12]
 1277              	.L79:
 1278 0044 7B68     		ldr	r3, [r7, #4]
 1279 0046 1B68     		ldr	r3, [r3]
 1280 0048 1A6C     		ldr	r2, [r3, #64]
 1281 004a 2A4B     		ldr	r3, .L83+4
 1282 004c 1340     		ands	r3, r3, r2
 1283 004e 002B     		cmp	r3, #0
 1284 0050 12D0     		beq	.L80
 1285 0052 7B68     		ldr	r3, [r7, #4]
 1286 0054 1B68     		ldr	r3, [r3]
 1287 0056 DB68     		ldr	r3, [r3, #12]
 1288 0058 03F40053 		and	r3, r3, #8192
 1289 005c 002B     		cmp	r3, #0
 1290 005e 0BD0     		beq	.L80
 1291 0060 7B68     		ldr	r3, [r7, #4]
 1292 0062 1B68     		ldr	r3, [r3]
 1293 0064 DB68     		ldr	r3, [r3, #12]
 1294 0066 DAB2     		uxtb	r2, r3
 1295 0068 7B68     		ldr	r3, [r7, #4]
 1296 006a 1B68     		ldr	r3, [r3]
 1297 006c 62F40252 		orn	r2, r2, #8320
 1298 0070 DA60     		str	r2, [r3, #12]
 1299 0072 7868     		ldr	r0, [r7, #4]
 1300 0074 FFF7FEFF 		bl	HAL_RTCEx_Tamper1EventCallback
 1301              	.L80:
 1302 0078 7B68     		ldr	r3, [r7, #4]
 1303 007a 1B68     		ldr	r3, [r3]
 1304 007c 1A6C     		ldr	r2, [r3, #64]
 1305 007e 1E4B     		ldr	r3, .L83+8
 1306 0080 1340     		ands	r3, r3, r2
 1307 0082 002B     		cmp	r3, #0
 1308 0084 12D0     		beq	.L81
 1309 0086 7B68     		ldr	r3, [r7, #4]
 1310 0088 1B68     		ldr	r3, [r3]
 1311 008a DB68     		ldr	r3, [r3, #12]
 1312 008c 03F48043 		and	r3, r3, #16384
 1313 0090 002B     		cmp	r3, #0
 1314 0092 0BD0     		beq	.L81
 1315 0094 7B68     		ldr	r3, [r7, #4]
 1316 0096 1B68     		ldr	r3, [r3]
 1317 0098 DB68     		ldr	r3, [r3, #12]
 1318 009a DAB2     		uxtb	r2, r3
 1319 009c 7B68     		ldr	r3, [r7, #4]
 1320 009e 1B68     		ldr	r3, [r3]
 1321 00a0 62F48142 		orn	r2, r2, #16512
 1322 00a4 DA60     		str	r2, [r3, #12]
 1323 00a6 7868     		ldr	r0, [r7, #4]
 1324 00a8 FFF7FEFF 		bl	HAL_RTCEx_Tamper2EventCallback
 1325              	.L81:
 1326 00ac 7B68     		ldr	r3, [r7, #4]
 1327 00ae 1B68     		ldr	r3, [r3]
 1328 00b0 1A6C     		ldr	r2, [r3, #64]
 1329 00b2 124B     		ldr	r3, .L83+12
 1330 00b4 1340     		ands	r3, r3, r2
ARM GAS  C:\msys64\tmp\ccDI7K0i.s 			page 24


 1331 00b6 002B     		cmp	r3, #0
 1332 00b8 12D0     		beq	.L82
 1333 00ba 7B68     		ldr	r3, [r7, #4]
 1334 00bc 1B68     		ldr	r3, [r3]
 1335 00be DB68     		ldr	r3, [r3, #12]
 1336 00c0 03F40043 		and	r3, r3, #32768
 1337 00c4 002B     		cmp	r3, #0
 1338 00c6 0BD0     		beq	.L82
 1339 00c8 7B68     		ldr	r3, [r7, #4]
 1340 00ca 1B68     		ldr	r3, [r3]
 1341 00cc DB68     		ldr	r3, [r3, #12]
 1342 00ce D9B2     		uxtb	r1, r3
 1343 00d0 7B68     		ldr	r3, [r7, #4]
 1344 00d2 1A68     		ldr	r2, [r3]
 1345 00d4 0A4B     		ldr	r3, .L83+16
 1346 00d6 0B43     		orrs	r3, r3, r1
 1347 00d8 D360     		str	r3, [r2, #12]
 1348 00da 7868     		ldr	r0, [r7, #4]
 1349 00dc FFF7FEFF 		bl	HAL_RTCEx_Tamper3EventCallback
 1350              	.L82:
 1351 00e0 7B68     		ldr	r3, [r7, #4]
 1352 00e2 0122     		movs	r2, #1
 1353 00e4 5A77     		strb	r2, [r3, #29]
 1354 00e6 00BF     		nop
 1355 00e8 0837     		adds	r7, r7, #8
 1356 00ea BD46     		mov	sp, r7
 1357              		@ sp needed
 1358 00ec 80BD     		pop	{r7, pc}
 1359              	.L84:
 1360 00ee 00BF     		.align	2
 1361              	.L83:
 1362 00f0 003C0140 		.word	1073822720
 1363 00f4 04000100 		.word	65540
 1364 00f8 04000800 		.word	524292
 1365 00fc 04004000 		.word	4194308
 1366 0100 7F7FFFFF 		.word	-32897
 1368              		.section	.text.HAL_RTCEx_TimeStampEventCallback,"ax",%progbits
 1369              		.align	1
 1370              		.weak	HAL_RTCEx_TimeStampEventCallback
 1371              		.syntax unified
 1372              		.thumb
 1373              		.thumb_func
 1375              	HAL_RTCEx_TimeStampEventCallback:
 1376              		@ args = 0, pretend = 0, frame = 8
 1377              		@ frame_needed = 1, uses_anonymous_args = 0
 1378              		@ link register save eliminated.
 1379 0000 80B4     		push	{r7}
 1380 0002 83B0     		sub	sp, sp, #12
 1381 0004 00AF     		add	r7, sp, #0
 1382 0006 7860     		str	r0, [r7, #4]
 1383 0008 00BF     		nop
 1384 000a 0C37     		adds	r7, r7, #12
 1385 000c BD46     		mov	sp, r7
 1386              		@ sp needed
 1387 000e 5DF8047B 		ldr	r7, [sp], #4
 1388 0012 7047     		bx	lr
 1390              		.section	.text.HAL_RTCEx_Tamper1EventCallback,"ax",%progbits
ARM GAS  C:\msys64\tmp\ccDI7K0i.s 			page 25


 1391              		.align	1
 1392              		.weak	HAL_RTCEx_Tamper1EventCallback
 1393              		.syntax unified
 1394              		.thumb
 1395              		.thumb_func
 1397              	HAL_RTCEx_Tamper1EventCallback:
 1398              		@ args = 0, pretend = 0, frame = 8
 1399              		@ frame_needed = 1, uses_anonymous_args = 0
 1400              		@ link register save eliminated.
 1401 0000 80B4     		push	{r7}
 1402 0002 83B0     		sub	sp, sp, #12
 1403 0004 00AF     		add	r7, sp, #0
 1404 0006 7860     		str	r0, [r7, #4]
 1405 0008 00BF     		nop
 1406 000a 0C37     		adds	r7, r7, #12
 1407 000c BD46     		mov	sp, r7
 1408              		@ sp needed
 1409 000e 5DF8047B 		ldr	r7, [sp], #4
 1410 0012 7047     		bx	lr
 1412              		.section	.text.HAL_RTCEx_Tamper2EventCallback,"ax",%progbits
 1413              		.align	1
 1414              		.weak	HAL_RTCEx_Tamper2EventCallback
 1415              		.syntax unified
 1416              		.thumb
 1417              		.thumb_func
 1419              	HAL_RTCEx_Tamper2EventCallback:
 1420              		@ args = 0, pretend = 0, frame = 8
 1421              		@ frame_needed = 1, uses_anonymous_args = 0
 1422              		@ link register save eliminated.
 1423 0000 80B4     		push	{r7}
 1424 0002 83B0     		sub	sp, sp, #12
 1425 0004 00AF     		add	r7, sp, #0
 1426 0006 7860     		str	r0, [r7, #4]
 1427 0008 00BF     		nop
 1428 000a 0C37     		adds	r7, r7, #12
 1429 000c BD46     		mov	sp, r7
 1430              		@ sp needed
 1431 000e 5DF8047B 		ldr	r7, [sp], #4
 1432 0012 7047     		bx	lr
 1434              		.section	.text.HAL_RTCEx_Tamper3EventCallback,"ax",%progbits
 1435              		.align	1
 1436              		.weak	HAL_RTCEx_Tamper3EventCallback
 1437              		.syntax unified
 1438              		.thumb
 1439              		.thumb_func
 1441              	HAL_RTCEx_Tamper3EventCallback:
 1442              		@ args = 0, pretend = 0, frame = 8
 1443              		@ frame_needed = 1, uses_anonymous_args = 0
 1444              		@ link register save eliminated.
 1445 0000 80B4     		push	{r7}
 1446 0002 83B0     		sub	sp, sp, #12
 1447 0004 00AF     		add	r7, sp, #0
 1448 0006 7860     		str	r0, [r7, #4]
 1449 0008 00BF     		nop
 1450 000a 0C37     		adds	r7, r7, #12
 1451 000c BD46     		mov	sp, r7
 1452              		@ sp needed
ARM GAS  C:\msys64\tmp\ccDI7K0i.s 			page 26


 1453 000e 5DF8047B 		ldr	r7, [sp], #4
 1454 0012 7047     		bx	lr
 1456              		.section	.text.HAL_RTCEx_PollForTimeStampEvent,"ax",%progbits
 1457              		.align	1
 1458              		.global	HAL_RTCEx_PollForTimeStampEvent
 1459              		.syntax unified
 1460              		.thumb
 1461              		.thumb_func
 1463              	HAL_RTCEx_PollForTimeStampEvent:
 1464              		@ args = 0, pretend = 0, frame = 16
 1465              		@ frame_needed = 1, uses_anonymous_args = 0
 1466 0000 80B5     		push	{r7, lr}
 1467 0002 84B0     		sub	sp, sp, #16
 1468 0004 00AF     		add	r7, sp, #0
 1469 0006 7860     		str	r0, [r7, #4]
 1470 0008 3960     		str	r1, [r7]
 1471 000a 0023     		movs	r3, #0
 1472 000c FB60     		str	r3, [r7, #12]
 1473 000e FFF7FEFF 		bl	HAL_GetTick
 1474 0012 F860     		str	r0, [r7, #12]
 1475 0014 28E0     		b	.L90
 1476              	.L94:
 1477 0016 3B68     		ldr	r3, [r7]
 1478 0018 B3F1FF3F 		cmp	r3, #-1
 1479 001c 0FD0     		beq	.L91
 1480 001e 3B68     		ldr	r3, [r7]
 1481 0020 002B     		cmp	r3, #0
 1482 0022 07D0     		beq	.L92
 1483 0024 FFF7FEFF 		bl	HAL_GetTick
 1484 0028 0246     		mov	r2, r0
 1485 002a FB68     		ldr	r3, [r7, #12]
 1486 002c D31A     		subs	r3, r2, r3
 1487 002e 3A68     		ldr	r2, [r7]
 1488 0030 9A42     		cmp	r2, r3
 1489 0032 04D2     		bcs	.L91
 1490              	.L92:
 1491 0034 7B68     		ldr	r3, [r7, #4]
 1492 0036 0322     		movs	r2, #3
 1493 0038 5A77     		strb	r2, [r3, #29]
 1494 003a 0323     		movs	r3, #3
 1495 003c 1FE0     		b	.L93
 1496              	.L91:
 1497 003e 7B68     		ldr	r3, [r7, #4]
 1498 0040 1B68     		ldr	r3, [r3]
 1499 0042 DB68     		ldr	r3, [r3, #12]
 1500 0044 03F48053 		and	r3, r3, #4096
 1501 0048 002B     		cmp	r3, #0
 1502 004a 0DD0     		beq	.L90
 1503 004c 7B68     		ldr	r3, [r7, #4]
 1504 004e 1B68     		ldr	r3, [r3]
 1505 0050 DB68     		ldr	r3, [r3, #12]
 1506 0052 DAB2     		uxtb	r2, r3
 1507 0054 7B68     		ldr	r3, [r7, #4]
 1508 0056 1B68     		ldr	r3, [r3]
 1509 0058 62F48452 		orn	r2, r2, #4224
 1510 005c DA60     		str	r2, [r3, #12]
 1511 005e 7B68     		ldr	r3, [r7, #4]
ARM GAS  C:\msys64\tmp\ccDI7K0i.s 			page 27


 1512 0060 0422     		movs	r2, #4
 1513 0062 5A77     		strb	r2, [r3, #29]
 1514 0064 0123     		movs	r3, #1
 1515 0066 0AE0     		b	.L93
 1516              	.L90:
 1517 0068 7B68     		ldr	r3, [r7, #4]
 1518 006a 1B68     		ldr	r3, [r3]
 1519 006c DB68     		ldr	r3, [r3, #12]
 1520 006e 03F40063 		and	r3, r3, #2048
 1521 0072 002B     		cmp	r3, #0
 1522 0074 CFD0     		beq	.L94
 1523 0076 7B68     		ldr	r3, [r7, #4]
 1524 0078 0122     		movs	r2, #1
 1525 007a 5A77     		strb	r2, [r3, #29]
 1526 007c 0023     		movs	r3, #0
 1527              	.L93:
 1528 007e 1846     		mov	r0, r3
 1529 0080 1037     		adds	r7, r7, #16
 1530 0082 BD46     		mov	sp, r7
 1531              		@ sp needed
 1532 0084 80BD     		pop	{r7, pc}
 1534              		.section	.text.HAL_RTCEx_PollForTamper1Event,"ax",%progbits
 1535              		.align	1
 1536              		.global	HAL_RTCEx_PollForTamper1Event
 1537              		.syntax unified
 1538              		.thumb
 1539              		.thumb_func
 1541              	HAL_RTCEx_PollForTamper1Event:
 1542              		@ args = 0, pretend = 0, frame = 16
 1543              		@ frame_needed = 1, uses_anonymous_args = 0
 1544 0000 80B5     		push	{r7, lr}
 1545 0002 84B0     		sub	sp, sp, #16
 1546 0004 00AF     		add	r7, sp, #0
 1547 0006 7860     		str	r0, [r7, #4]
 1548 0008 3960     		str	r1, [r7]
 1549 000a 0023     		movs	r3, #0
 1550 000c FB60     		str	r3, [r7, #12]
 1551 000e FFF7FEFF 		bl	HAL_GetTick
 1552 0012 F860     		str	r0, [r7, #12]
 1553 0014 13E0     		b	.L97
 1554              	.L100:
 1555 0016 3B68     		ldr	r3, [r7]
 1556 0018 B3F1FF3F 		cmp	r3, #-1
 1557 001c 0FD0     		beq	.L97
 1558 001e 3B68     		ldr	r3, [r7]
 1559 0020 002B     		cmp	r3, #0
 1560 0022 07D0     		beq	.L98
 1561 0024 FFF7FEFF 		bl	HAL_GetTick
 1562 0028 0246     		mov	r2, r0
 1563 002a FB68     		ldr	r3, [r7, #12]
 1564 002c D31A     		subs	r3, r2, r3
 1565 002e 3A68     		ldr	r2, [r7]
 1566 0030 9A42     		cmp	r2, r3
 1567 0032 04D2     		bcs	.L97
 1568              	.L98:
 1569 0034 7B68     		ldr	r3, [r7, #4]
 1570 0036 0322     		movs	r2, #3
ARM GAS  C:\msys64\tmp\ccDI7K0i.s 			page 28


 1571 0038 5A77     		strb	r2, [r3, #29]
 1572 003a 0323     		movs	r3, #3
 1573 003c 13E0     		b	.L99
 1574              	.L97:
 1575 003e 7B68     		ldr	r3, [r7, #4]
 1576 0040 1B68     		ldr	r3, [r3]
 1577 0042 DB68     		ldr	r3, [r3, #12]
 1578 0044 03F40053 		and	r3, r3, #8192
 1579 0048 002B     		cmp	r3, #0
 1580 004a E4D0     		beq	.L100
 1581 004c 7B68     		ldr	r3, [r7, #4]
 1582 004e 1B68     		ldr	r3, [r3]
 1583 0050 DB68     		ldr	r3, [r3, #12]
 1584 0052 DAB2     		uxtb	r2, r3
 1585 0054 7B68     		ldr	r3, [r7, #4]
 1586 0056 1B68     		ldr	r3, [r3]
 1587 0058 62F40252 		orn	r2, r2, #8320
 1588 005c DA60     		str	r2, [r3, #12]
 1589 005e 7B68     		ldr	r3, [r7, #4]
 1590 0060 0122     		movs	r2, #1
 1591 0062 5A77     		strb	r2, [r3, #29]
 1592 0064 0023     		movs	r3, #0
 1593              	.L99:
 1594 0066 1846     		mov	r0, r3
 1595 0068 1037     		adds	r7, r7, #16
 1596 006a BD46     		mov	sp, r7
 1597              		@ sp needed
 1598 006c 80BD     		pop	{r7, pc}
 1600              		.section	.text.HAL_RTCEx_PollForTamper2Event,"ax",%progbits
 1601              		.align	1
 1602              		.global	HAL_RTCEx_PollForTamper2Event
 1603              		.syntax unified
 1604              		.thumb
 1605              		.thumb_func
 1607              	HAL_RTCEx_PollForTamper2Event:
 1608              		@ args = 0, pretend = 0, frame = 16
 1609              		@ frame_needed = 1, uses_anonymous_args = 0
 1610 0000 80B5     		push	{r7, lr}
 1611 0002 84B0     		sub	sp, sp, #16
 1612 0004 00AF     		add	r7, sp, #0
 1613 0006 7860     		str	r0, [r7, #4]
 1614 0008 3960     		str	r1, [r7]
 1615 000a 0023     		movs	r3, #0
 1616 000c FB60     		str	r3, [r7, #12]
 1617 000e FFF7FEFF 		bl	HAL_GetTick
 1618 0012 F860     		str	r0, [r7, #12]
 1619 0014 13E0     		b	.L103
 1620              	.L106:
 1621 0016 3B68     		ldr	r3, [r7]
 1622 0018 B3F1FF3F 		cmp	r3, #-1
 1623 001c 0FD0     		beq	.L103
 1624 001e 3B68     		ldr	r3, [r7]
 1625 0020 002B     		cmp	r3, #0
 1626 0022 07D0     		beq	.L104
 1627 0024 FFF7FEFF 		bl	HAL_GetTick
 1628 0028 0246     		mov	r2, r0
 1629 002a FB68     		ldr	r3, [r7, #12]
ARM GAS  C:\msys64\tmp\ccDI7K0i.s 			page 29


 1630 002c D31A     		subs	r3, r2, r3
 1631 002e 3A68     		ldr	r2, [r7]
 1632 0030 9A42     		cmp	r2, r3
 1633 0032 04D2     		bcs	.L103
 1634              	.L104:
 1635 0034 7B68     		ldr	r3, [r7, #4]
 1636 0036 0322     		movs	r2, #3
 1637 0038 5A77     		strb	r2, [r3, #29]
 1638 003a 0323     		movs	r3, #3
 1639 003c 13E0     		b	.L105
 1640              	.L103:
 1641 003e 7B68     		ldr	r3, [r7, #4]
 1642 0040 1B68     		ldr	r3, [r3]
 1643 0042 DB68     		ldr	r3, [r3, #12]
 1644 0044 03F48043 		and	r3, r3, #16384
 1645 0048 002B     		cmp	r3, #0
 1646 004a E4D0     		beq	.L106
 1647 004c 7B68     		ldr	r3, [r7, #4]
 1648 004e 1B68     		ldr	r3, [r3]
 1649 0050 DB68     		ldr	r3, [r3, #12]
 1650 0052 DAB2     		uxtb	r2, r3
 1651 0054 7B68     		ldr	r3, [r7, #4]
 1652 0056 1B68     		ldr	r3, [r3]
 1653 0058 62F48142 		orn	r2, r2, #16512
 1654 005c DA60     		str	r2, [r3, #12]
 1655 005e 7B68     		ldr	r3, [r7, #4]
 1656 0060 0122     		movs	r2, #1
 1657 0062 5A77     		strb	r2, [r3, #29]
 1658 0064 0023     		movs	r3, #0
 1659              	.L105:
 1660 0066 1846     		mov	r0, r3
 1661 0068 1037     		adds	r7, r7, #16
 1662 006a BD46     		mov	sp, r7
 1663              		@ sp needed
 1664 006c 80BD     		pop	{r7, pc}
 1666              		.section	.text.HAL_RTCEx_PollForTamper3Event,"ax",%progbits
 1667              		.align	1
 1668              		.global	HAL_RTCEx_PollForTamper3Event
 1669              		.syntax unified
 1670              		.thumb
 1671              		.thumb_func
 1673              	HAL_RTCEx_PollForTamper3Event:
 1674              		@ args = 0, pretend = 0, frame = 16
 1675              		@ frame_needed = 1, uses_anonymous_args = 0
 1676 0000 80B5     		push	{r7, lr}
 1677 0002 84B0     		sub	sp, sp, #16
 1678 0004 00AF     		add	r7, sp, #0
 1679 0006 7860     		str	r0, [r7, #4]
 1680 0008 3960     		str	r1, [r7]
 1681 000a FFF7FEFF 		bl	HAL_GetTick
 1682 000e F860     		str	r0, [r7, #12]
 1683 0010 13E0     		b	.L109
 1684              	.L112:
 1685 0012 3B68     		ldr	r3, [r7]
 1686 0014 B3F1FF3F 		cmp	r3, #-1
 1687 0018 0FD0     		beq	.L109
 1688 001a 3B68     		ldr	r3, [r7]
ARM GAS  C:\msys64\tmp\ccDI7K0i.s 			page 30


 1689 001c 002B     		cmp	r3, #0
 1690 001e 07D0     		beq	.L110
 1691 0020 FFF7FEFF 		bl	HAL_GetTick
 1692 0024 0246     		mov	r2, r0
 1693 0026 FB68     		ldr	r3, [r7, #12]
 1694 0028 D31A     		subs	r3, r2, r3
 1695 002a 3A68     		ldr	r2, [r7]
 1696 002c 9A42     		cmp	r2, r3
 1697 002e 04D2     		bcs	.L109
 1698              	.L110:
 1699 0030 7B68     		ldr	r3, [r7, #4]
 1700 0032 0322     		movs	r2, #3
 1701 0034 5A77     		strb	r2, [r3, #29]
 1702 0036 0323     		movs	r3, #3
 1703 0038 13E0     		b	.L111
 1704              	.L109:
 1705 003a 7B68     		ldr	r3, [r7, #4]
 1706 003c 1B68     		ldr	r3, [r3]
 1707 003e DB68     		ldr	r3, [r3, #12]
 1708 0040 03F40043 		and	r3, r3, #32768
 1709 0044 002B     		cmp	r3, #0
 1710 0046 E4D0     		beq	.L112
 1711 0048 7B68     		ldr	r3, [r7, #4]
 1712 004a 1B68     		ldr	r3, [r3]
 1713 004c DB68     		ldr	r3, [r3, #12]
 1714 004e D9B2     		uxtb	r1, r3
 1715 0050 7B68     		ldr	r3, [r7, #4]
 1716 0052 1A68     		ldr	r2, [r3]
 1717 0054 054B     		ldr	r3, .L113
 1718 0056 0B43     		orrs	r3, r3, r1
 1719 0058 D360     		str	r3, [r2, #12]
 1720 005a 7B68     		ldr	r3, [r7, #4]
 1721 005c 0122     		movs	r2, #1
 1722 005e 5A77     		strb	r2, [r3, #29]
 1723 0060 0023     		movs	r3, #0
 1724              	.L111:
 1725 0062 1846     		mov	r0, r3
 1726 0064 1037     		adds	r7, r7, #16
 1727 0066 BD46     		mov	sp, r7
 1728              		@ sp needed
 1729 0068 80BD     		pop	{r7, pc}
 1730              	.L114:
 1731 006a 00BF     		.align	2
 1732              	.L113:
 1733 006c 7F7FFFFF 		.word	-32897
 1735              		.section	.text.HAL_RTCEx_SetWakeUpTimer,"ax",%progbits
 1736              		.align	1
 1737              		.global	HAL_RTCEx_SetWakeUpTimer
 1738              		.syntax unified
 1739              		.thumb
 1740              		.thumb_func
 1742              	HAL_RTCEx_SetWakeUpTimer:
 1743              		@ args = 0, pretend = 0, frame = 24
 1744              		@ frame_needed = 1, uses_anonymous_args = 0
 1745 0000 80B5     		push	{r7, lr}
 1746 0002 86B0     		sub	sp, sp, #24
 1747 0004 00AF     		add	r7, sp, #0
ARM GAS  C:\msys64\tmp\ccDI7K0i.s 			page 31


 1748 0006 F860     		str	r0, [r7, #12]
 1749 0008 B960     		str	r1, [r7, #8]
 1750 000a 7A60     		str	r2, [r7, #4]
 1751 000c 0023     		movs	r3, #0
 1752 000e 7B61     		str	r3, [r7, #20]
 1753 0010 FB68     		ldr	r3, [r7, #12]
 1754 0012 1B7F     		ldrb	r3, [r3, #28]	@ zero_extendqisi2
 1755 0014 012B     		cmp	r3, #1
 1756 0016 01D1     		bne	.L116
 1757 0018 0223     		movs	r3, #2
 1758 001a 8AE0     		b	.L117
 1759              	.L116:
 1760 001c FB68     		ldr	r3, [r7, #12]
 1761 001e 0122     		movs	r2, #1
 1762 0020 1A77     		strb	r2, [r3, #28]
 1763 0022 FB68     		ldr	r3, [r7, #12]
 1764 0024 0222     		movs	r2, #2
 1765 0026 5A77     		strb	r2, [r3, #29]
 1766 0028 FB68     		ldr	r3, [r7, #12]
 1767 002a 1B68     		ldr	r3, [r3]
 1768 002c CA22     		movs	r2, #202
 1769 002e 5A62     		str	r2, [r3, #36]
 1770 0030 FB68     		ldr	r3, [r7, #12]
 1771 0032 1B68     		ldr	r3, [r3]
 1772 0034 5322     		movs	r2, #83
 1773 0036 5A62     		str	r2, [r3, #36]
 1774 0038 FB68     		ldr	r3, [r7, #12]
 1775 003a 1B68     		ldr	r3, [r3]
 1776 003c 9B68     		ldr	r3, [r3, #8]
 1777 003e 03F48063 		and	r3, r3, #1024
 1778 0042 002B     		cmp	r3, #0
 1779 0044 1ED0     		beq	.L118
 1780 0046 FFF7FEFF 		bl	HAL_GetTick
 1781 004a 7861     		str	r0, [r7, #20]
 1782 004c 13E0     		b	.L119
 1783              	.L120:
 1784 004e FFF7FEFF 		bl	HAL_GetTick
 1785 0052 0246     		mov	r2, r0
 1786 0054 7B69     		ldr	r3, [r7, #20]
 1787 0056 D31A     		subs	r3, r2, r3
 1788 0058 B3F57A7F 		cmp	r3, #1000
 1789 005c 0BD9     		bls	.L119
 1790 005e FB68     		ldr	r3, [r7, #12]
 1791 0060 1B68     		ldr	r3, [r3]
 1792 0062 FF22     		movs	r2, #255
 1793 0064 5A62     		str	r2, [r3, #36]
 1794 0066 FB68     		ldr	r3, [r7, #12]
 1795 0068 0322     		movs	r2, #3
 1796 006a 5A77     		strb	r2, [r3, #29]
 1797 006c FB68     		ldr	r3, [r7, #12]
 1798 006e 0022     		movs	r2, #0
 1799 0070 1A77     		strb	r2, [r3, #28]
 1800 0072 0323     		movs	r3, #3
 1801 0074 5DE0     		b	.L117
 1802              	.L119:
 1803 0076 FB68     		ldr	r3, [r7, #12]
 1804 0078 1B68     		ldr	r3, [r3]
ARM GAS  C:\msys64\tmp\ccDI7K0i.s 			page 32


 1805 007a DB68     		ldr	r3, [r3, #12]
 1806 007c 03F00403 		and	r3, r3, #4
 1807 0080 002B     		cmp	r3, #0
 1808 0082 E4D1     		bne	.L120
 1809              	.L118:
 1810 0084 FB68     		ldr	r3, [r7, #12]
 1811 0086 1B68     		ldr	r3, [r3]
 1812 0088 9A68     		ldr	r2, [r3, #8]
 1813 008a FB68     		ldr	r3, [r7, #12]
 1814 008c 1B68     		ldr	r3, [r3]
 1815 008e 22F48062 		bic	r2, r2, #1024
 1816 0092 9A60     		str	r2, [r3, #8]
 1817 0094 FB68     		ldr	r3, [r7, #12]
 1818 0096 1B68     		ldr	r3, [r3]
 1819 0098 DB68     		ldr	r3, [r3, #12]
 1820 009a DAB2     		uxtb	r2, r3
 1821 009c FB68     		ldr	r3, [r7, #12]
 1822 009e 1B68     		ldr	r3, [r3]
 1823 00a0 62F49062 		orn	r2, r2, #1152
 1824 00a4 DA60     		str	r2, [r3, #12]
 1825 00a6 FFF7FEFF 		bl	HAL_GetTick
 1826 00aa 7861     		str	r0, [r7, #20]
 1827 00ac 13E0     		b	.L121
 1828              	.L122:
 1829 00ae FFF7FEFF 		bl	HAL_GetTick
 1830 00b2 0246     		mov	r2, r0
 1831 00b4 7B69     		ldr	r3, [r7, #20]
 1832 00b6 D31A     		subs	r3, r2, r3
 1833 00b8 B3F57A7F 		cmp	r3, #1000
 1834 00bc 0BD9     		bls	.L121
 1835 00be FB68     		ldr	r3, [r7, #12]
 1836 00c0 1B68     		ldr	r3, [r3]
 1837 00c2 FF22     		movs	r2, #255
 1838 00c4 5A62     		str	r2, [r3, #36]
 1839 00c6 FB68     		ldr	r3, [r7, #12]
 1840 00c8 0322     		movs	r2, #3
 1841 00ca 5A77     		strb	r2, [r3, #29]
 1842 00cc FB68     		ldr	r3, [r7, #12]
 1843 00ce 0022     		movs	r2, #0
 1844 00d0 1A77     		strb	r2, [r3, #28]
 1845 00d2 0323     		movs	r3, #3
 1846 00d4 2DE0     		b	.L117
 1847              	.L121:
 1848 00d6 FB68     		ldr	r3, [r7, #12]
 1849 00d8 1B68     		ldr	r3, [r3]
 1850 00da DB68     		ldr	r3, [r3, #12]
 1851 00dc 03F00403 		and	r3, r3, #4
 1852 00e0 002B     		cmp	r3, #0
 1853 00e2 E4D0     		beq	.L122
 1854 00e4 FB68     		ldr	r3, [r7, #12]
 1855 00e6 1B68     		ldr	r3, [r3]
 1856 00e8 9A68     		ldr	r2, [r3, #8]
 1857 00ea FB68     		ldr	r3, [r7, #12]
 1858 00ec 1B68     		ldr	r3, [r3]
 1859 00ee 22F00702 		bic	r2, r2, #7
 1860 00f2 9A60     		str	r2, [r3, #8]
 1861 00f4 FB68     		ldr	r3, [r7, #12]
ARM GAS  C:\msys64\tmp\ccDI7K0i.s 			page 33


 1862 00f6 1B68     		ldr	r3, [r3]
 1863 00f8 9968     		ldr	r1, [r3, #8]
 1864 00fa FB68     		ldr	r3, [r7, #12]
 1865 00fc 1B68     		ldr	r3, [r3]
 1866 00fe 7A68     		ldr	r2, [r7, #4]
 1867 0100 0A43     		orrs	r2, r2, r1
 1868 0102 9A60     		str	r2, [r3, #8]
 1869 0104 FB68     		ldr	r3, [r7, #12]
 1870 0106 1B68     		ldr	r3, [r3]
 1871 0108 BA68     		ldr	r2, [r7, #8]
 1872 010a 5A61     		str	r2, [r3, #20]
 1873 010c FB68     		ldr	r3, [r7, #12]
 1874 010e 1B68     		ldr	r3, [r3]
 1875 0110 9A68     		ldr	r2, [r3, #8]
 1876 0112 FB68     		ldr	r3, [r7, #12]
 1877 0114 1B68     		ldr	r3, [r3]
 1878 0116 42F48062 		orr	r2, r2, #1024
 1879 011a 9A60     		str	r2, [r3, #8]
 1880 011c FB68     		ldr	r3, [r7, #12]
 1881 011e 1B68     		ldr	r3, [r3]
 1882 0120 FF22     		movs	r2, #255
 1883 0122 5A62     		str	r2, [r3, #36]
 1884 0124 FB68     		ldr	r3, [r7, #12]
 1885 0126 0122     		movs	r2, #1
 1886 0128 5A77     		strb	r2, [r3, #29]
 1887 012a FB68     		ldr	r3, [r7, #12]
 1888 012c 0022     		movs	r2, #0
 1889 012e 1A77     		strb	r2, [r3, #28]
 1890 0130 0023     		movs	r3, #0
 1891              	.L117:
 1892 0132 1846     		mov	r0, r3
 1893 0134 1837     		adds	r7, r7, #24
 1894 0136 BD46     		mov	sp, r7
 1895              		@ sp needed
 1896 0138 80BD     		pop	{r7, pc}
 1898              		.section	.text.HAL_RTCEx_SetWakeUpTimer_IT,"ax",%progbits
 1899              		.align	1
 1900              		.global	HAL_RTCEx_SetWakeUpTimer_IT
 1901              		.syntax unified
 1902              		.thumb
 1903              		.thumb_func
 1905              	HAL_RTCEx_SetWakeUpTimer_IT:
 1906              		@ args = 0, pretend = 0, frame = 24
 1907              		@ frame_needed = 1, uses_anonymous_args = 0
 1908              		@ link register save eliminated.
 1909 0000 80B4     		push	{r7}
 1910 0002 87B0     		sub	sp, sp, #28
 1911 0004 00AF     		add	r7, sp, #0
 1912 0006 F860     		str	r0, [r7, #12]
 1913 0008 B960     		str	r1, [r7, #8]
 1914 000a 7A60     		str	r2, [r7, #4]
 1915 000c 5A4B     		ldr	r3, .L131
 1916 000e 1B68     		ldr	r3, [r3]
 1917 0010 5A4A     		ldr	r2, .L131+4
 1918 0012 A2FB0323 		umull	r2, r3, r2, r3
 1919 0016 DB0A     		lsrs	r3, r3, #11
 1920 0018 4FF47A72 		mov	r2, #1000
ARM GAS  C:\msys64\tmp\ccDI7K0i.s 			page 34


 1921 001c 02FB03F3 		mul	r3, r2, r3
 1922 0020 7B61     		str	r3, [r7, #20]
 1923 0022 FB68     		ldr	r3, [r7, #12]
 1924 0024 1B7F     		ldrb	r3, [r3, #28]	@ zero_extendqisi2
 1925 0026 012B     		cmp	r3, #1
 1926 0028 01D1     		bne	.L124
 1927 002a 0223     		movs	r3, #2
 1928 002c 9DE0     		b	.L125
 1929              	.L124:
 1930 002e FB68     		ldr	r3, [r7, #12]
 1931 0030 0122     		movs	r2, #1
 1932 0032 1A77     		strb	r2, [r3, #28]
 1933 0034 FB68     		ldr	r3, [r7, #12]
 1934 0036 0222     		movs	r2, #2
 1935 0038 5A77     		strb	r2, [r3, #29]
 1936 003a FB68     		ldr	r3, [r7, #12]
 1937 003c 1B68     		ldr	r3, [r3]
 1938 003e CA22     		movs	r2, #202
 1939 0040 5A62     		str	r2, [r3, #36]
 1940 0042 FB68     		ldr	r3, [r7, #12]
 1941 0044 1B68     		ldr	r3, [r3]
 1942 0046 5322     		movs	r2, #83
 1943 0048 5A62     		str	r2, [r3, #36]
 1944 004a FB68     		ldr	r3, [r7, #12]
 1945 004c 1B68     		ldr	r3, [r3]
 1946 004e 9B68     		ldr	r3, [r3, #8]
 1947 0050 03F48063 		and	r3, r3, #1024
 1948 0054 002B     		cmp	r3, #0
 1949 0056 18D0     		beq	.L126
 1950              	.L128:
 1951 0058 7B69     		ldr	r3, [r7, #20]
 1952 005a 013B     		subs	r3, r3, #1
 1953 005c 7B61     		str	r3, [r7, #20]
 1954 005e 7B69     		ldr	r3, [r7, #20]
 1955 0060 002B     		cmp	r3, #0
 1956 0062 0BD1     		bne	.L127
 1957 0064 FB68     		ldr	r3, [r7, #12]
 1958 0066 1B68     		ldr	r3, [r3]
 1959 0068 FF22     		movs	r2, #255
 1960 006a 5A62     		str	r2, [r3, #36]
 1961 006c FB68     		ldr	r3, [r7, #12]
 1962 006e 0322     		movs	r2, #3
 1963 0070 5A77     		strb	r2, [r3, #29]
 1964 0072 FB68     		ldr	r3, [r7, #12]
 1965 0074 0022     		movs	r2, #0
 1966 0076 1A77     		strb	r2, [r3, #28]
 1967 0078 0323     		movs	r3, #3
 1968 007a 76E0     		b	.L125
 1969              	.L127:
 1970 007c FB68     		ldr	r3, [r7, #12]
 1971 007e 1B68     		ldr	r3, [r3]
 1972 0080 DB68     		ldr	r3, [r3, #12]
 1973 0082 03F00403 		and	r3, r3, #4
 1974 0086 002B     		cmp	r3, #0
 1975 0088 E6D1     		bne	.L128
 1976              	.L126:
 1977 008a FB68     		ldr	r3, [r7, #12]
ARM GAS  C:\msys64\tmp\ccDI7K0i.s 			page 35


 1978 008c 1B68     		ldr	r3, [r3]
 1979 008e 9A68     		ldr	r2, [r3, #8]
 1980 0090 FB68     		ldr	r3, [r7, #12]
 1981 0092 1B68     		ldr	r3, [r3]
 1982 0094 22F48062 		bic	r2, r2, #1024
 1983 0098 9A60     		str	r2, [r3, #8]
 1984 009a FB68     		ldr	r3, [r7, #12]
 1985 009c 1B68     		ldr	r3, [r3]
 1986 009e DB68     		ldr	r3, [r3, #12]
 1987 00a0 DAB2     		uxtb	r2, r3
 1988 00a2 FB68     		ldr	r3, [r7, #12]
 1989 00a4 1B68     		ldr	r3, [r3]
 1990 00a6 62F49062 		orn	r2, r2, #1152
 1991 00aa DA60     		str	r2, [r3, #12]
 1992 00ac 324B     		ldr	r3, .L131
 1993 00ae 1B68     		ldr	r3, [r3]
 1994 00b0 324A     		ldr	r2, .L131+4
 1995 00b2 A2FB0323 		umull	r2, r3, r2, r3
 1996 00b6 DB0A     		lsrs	r3, r3, #11
 1997 00b8 4FF47A72 		mov	r2, #1000
 1998 00bc 02FB03F3 		mul	r3, r2, r3
 1999 00c0 7B61     		str	r3, [r7, #20]
 2000              	.L130:
 2001 00c2 7B69     		ldr	r3, [r7, #20]
 2002 00c4 013B     		subs	r3, r3, #1
 2003 00c6 7B61     		str	r3, [r7, #20]
 2004 00c8 7B69     		ldr	r3, [r7, #20]
 2005 00ca 002B     		cmp	r3, #0
 2006 00cc 0BD1     		bne	.L129
 2007 00ce FB68     		ldr	r3, [r7, #12]
 2008 00d0 1B68     		ldr	r3, [r3]
 2009 00d2 FF22     		movs	r2, #255
 2010 00d4 5A62     		str	r2, [r3, #36]
 2011 00d6 FB68     		ldr	r3, [r7, #12]
 2012 00d8 0322     		movs	r2, #3
 2013 00da 5A77     		strb	r2, [r3, #29]
 2014 00dc FB68     		ldr	r3, [r7, #12]
 2015 00de 0022     		movs	r2, #0
 2016 00e0 1A77     		strb	r2, [r3, #28]
 2017 00e2 0323     		movs	r3, #3
 2018 00e4 41E0     		b	.L125
 2019              	.L129:
 2020 00e6 FB68     		ldr	r3, [r7, #12]
 2021 00e8 1B68     		ldr	r3, [r3]
 2022 00ea DB68     		ldr	r3, [r3, #12]
 2023 00ec 03F00403 		and	r3, r3, #4
 2024 00f0 002B     		cmp	r3, #0
 2025 00f2 E6D0     		beq	.L130
 2026 00f4 FB68     		ldr	r3, [r7, #12]
 2027 00f6 1B68     		ldr	r3, [r3]
 2028 00f8 9A68     		ldr	r2, [r3, #8]
 2029 00fa FB68     		ldr	r3, [r7, #12]
 2030 00fc 1B68     		ldr	r3, [r3]
 2031 00fe 22F00702 		bic	r2, r2, #7
 2032 0102 9A60     		str	r2, [r3, #8]
 2033 0104 FB68     		ldr	r3, [r7, #12]
 2034 0106 1B68     		ldr	r3, [r3]
ARM GAS  C:\msys64\tmp\ccDI7K0i.s 			page 36


 2035 0108 9968     		ldr	r1, [r3, #8]
 2036 010a FB68     		ldr	r3, [r7, #12]
 2037 010c 1B68     		ldr	r3, [r3]
 2038 010e 7A68     		ldr	r2, [r7, #4]
 2039 0110 0A43     		orrs	r2, r2, r1
 2040 0112 9A60     		str	r2, [r3, #8]
 2041 0114 FB68     		ldr	r3, [r7, #12]
 2042 0116 1B68     		ldr	r3, [r3]
 2043 0118 BA68     		ldr	r2, [r7, #8]
 2044 011a 5A61     		str	r2, [r3, #20]
 2045 011c 184B     		ldr	r3, .L131+8
 2046 011e 1B68     		ldr	r3, [r3]
 2047 0120 174A     		ldr	r2, .L131+8
 2048 0122 43F48003 		orr	r3, r3, #4194304
 2049 0126 1360     		str	r3, [r2]
 2050 0128 154B     		ldr	r3, .L131+8
 2051 012a 9B68     		ldr	r3, [r3, #8]
 2052 012c 144A     		ldr	r2, .L131+8
 2053 012e 43F48003 		orr	r3, r3, #4194304
 2054 0132 9360     		str	r3, [r2, #8]
 2055 0134 FB68     		ldr	r3, [r7, #12]
 2056 0136 1B68     		ldr	r3, [r3]
 2057 0138 9A68     		ldr	r2, [r3, #8]
 2058 013a FB68     		ldr	r3, [r7, #12]
 2059 013c 1B68     		ldr	r3, [r3]
 2060 013e 42F48042 		orr	r2, r2, #16384
 2061 0142 9A60     		str	r2, [r3, #8]
 2062 0144 FB68     		ldr	r3, [r7, #12]
 2063 0146 1B68     		ldr	r3, [r3]
 2064 0148 9A68     		ldr	r2, [r3, #8]
 2065 014a FB68     		ldr	r3, [r7, #12]
 2066 014c 1B68     		ldr	r3, [r3]
 2067 014e 42F48062 		orr	r2, r2, #1024
 2068 0152 9A60     		str	r2, [r3, #8]
 2069 0154 FB68     		ldr	r3, [r7, #12]
 2070 0156 1B68     		ldr	r3, [r3]
 2071 0158 FF22     		movs	r2, #255
 2072 015a 5A62     		str	r2, [r3, #36]
 2073 015c FB68     		ldr	r3, [r7, #12]
 2074 015e 0122     		movs	r2, #1
 2075 0160 5A77     		strb	r2, [r3, #29]
 2076 0162 FB68     		ldr	r3, [r7, #12]
 2077 0164 0022     		movs	r2, #0
 2078 0166 1A77     		strb	r2, [r3, #28]
 2079 0168 0023     		movs	r3, #0
 2080              	.L125:
 2081 016a 1846     		mov	r0, r3
 2082 016c 1C37     		adds	r7, r7, #28
 2083 016e BD46     		mov	sp, r7
 2084              		@ sp needed
 2085 0170 5DF8047B 		ldr	r7, [sp], #4
 2086 0174 7047     		bx	lr
 2087              	.L132:
 2088 0176 00BF     		.align	2
 2089              	.L131:
 2090 0178 00000000 		.word	SystemCoreClock
 2091 017c D34D6210 		.word	274877907
ARM GAS  C:\msys64\tmp\ccDI7K0i.s 			page 37


 2092 0180 003C0140 		.word	1073822720
 2094              		.section	.text.HAL_RTCEx_DeactivateWakeUpTimer,"ax",%progbits
 2095              		.align	1
 2096              		.global	HAL_RTCEx_DeactivateWakeUpTimer
 2097              		.syntax unified
 2098              		.thumb
 2099              		.thumb_func
 2101              	HAL_RTCEx_DeactivateWakeUpTimer:
 2102              		@ args = 0, pretend = 0, frame = 16
 2103              		@ frame_needed = 1, uses_anonymous_args = 0
 2104 0000 80B5     		push	{r7, lr}
 2105 0002 84B0     		sub	sp, sp, #16
 2106 0004 00AF     		add	r7, sp, #0
 2107 0006 7860     		str	r0, [r7, #4]
 2108 0008 0023     		movs	r3, #0
 2109 000a FB60     		str	r3, [r7, #12]
 2110 000c 7B68     		ldr	r3, [r7, #4]
 2111 000e 1B7F     		ldrb	r3, [r3, #28]	@ zero_extendqisi2
 2112 0010 012B     		cmp	r3, #1
 2113 0012 01D1     		bne	.L134
 2114 0014 0223     		movs	r3, #2
 2115 0016 47E0     		b	.L135
 2116              	.L134:
 2117 0018 7B68     		ldr	r3, [r7, #4]
 2118 001a 0122     		movs	r2, #1
 2119 001c 1A77     		strb	r2, [r3, #28]
 2120 001e 7B68     		ldr	r3, [r7, #4]
 2121 0020 0222     		movs	r2, #2
 2122 0022 5A77     		strb	r2, [r3, #29]
 2123 0024 7B68     		ldr	r3, [r7, #4]
 2124 0026 1B68     		ldr	r3, [r3]
 2125 0028 CA22     		movs	r2, #202
 2126 002a 5A62     		str	r2, [r3, #36]
 2127 002c 7B68     		ldr	r3, [r7, #4]
 2128 002e 1B68     		ldr	r3, [r3]
 2129 0030 5322     		movs	r2, #83
 2130 0032 5A62     		str	r2, [r3, #36]
 2131 0034 7B68     		ldr	r3, [r7, #4]
 2132 0036 1B68     		ldr	r3, [r3]
 2133 0038 9A68     		ldr	r2, [r3, #8]
 2134 003a 7B68     		ldr	r3, [r7, #4]
 2135 003c 1B68     		ldr	r3, [r3]
 2136 003e 22F48062 		bic	r2, r2, #1024
 2137 0042 9A60     		str	r2, [r3, #8]
 2138 0044 7B68     		ldr	r3, [r7, #4]
 2139 0046 1B68     		ldr	r3, [r3]
 2140 0048 9A68     		ldr	r2, [r3, #8]
 2141 004a 7B68     		ldr	r3, [r7, #4]
 2142 004c 1B68     		ldr	r3, [r3]
 2143 004e 22F48042 		bic	r2, r2, #16384
 2144 0052 9A60     		str	r2, [r3, #8]
 2145 0054 FFF7FEFF 		bl	HAL_GetTick
 2146 0058 F860     		str	r0, [r7, #12]
 2147 005a 13E0     		b	.L136
 2148              	.L137:
 2149 005c FFF7FEFF 		bl	HAL_GetTick
 2150 0060 0246     		mov	r2, r0
ARM GAS  C:\msys64\tmp\ccDI7K0i.s 			page 38


 2151 0062 FB68     		ldr	r3, [r7, #12]
 2152 0064 D31A     		subs	r3, r2, r3
 2153 0066 B3F57A7F 		cmp	r3, #1000
 2154 006a 0BD9     		bls	.L136
 2155 006c 7B68     		ldr	r3, [r7, #4]
 2156 006e 1B68     		ldr	r3, [r3]
 2157 0070 FF22     		movs	r2, #255
 2158 0072 5A62     		str	r2, [r3, #36]
 2159 0074 7B68     		ldr	r3, [r7, #4]
 2160 0076 0322     		movs	r2, #3
 2161 0078 5A77     		strb	r2, [r3, #29]
 2162 007a 7B68     		ldr	r3, [r7, #4]
 2163 007c 0022     		movs	r2, #0
 2164 007e 1A77     		strb	r2, [r3, #28]
 2165 0080 0323     		movs	r3, #3
 2166 0082 11E0     		b	.L135
 2167              	.L136:
 2168 0084 7B68     		ldr	r3, [r7, #4]
 2169 0086 1B68     		ldr	r3, [r3]
 2170 0088 DB68     		ldr	r3, [r3, #12]
 2171 008a 03F00403 		and	r3, r3, #4
 2172 008e 002B     		cmp	r3, #0
 2173 0090 E4D0     		beq	.L137
 2174 0092 7B68     		ldr	r3, [r7, #4]
 2175 0094 1B68     		ldr	r3, [r3]
 2176 0096 FF22     		movs	r2, #255
 2177 0098 5A62     		str	r2, [r3, #36]
 2178 009a 7B68     		ldr	r3, [r7, #4]
 2179 009c 0122     		movs	r2, #1
 2180 009e 5A77     		strb	r2, [r3, #29]
 2181 00a0 7B68     		ldr	r3, [r7, #4]
 2182 00a2 0022     		movs	r2, #0
 2183 00a4 1A77     		strb	r2, [r3, #28]
 2184 00a6 0023     		movs	r3, #0
 2185              	.L135:
 2186 00a8 1846     		mov	r0, r3
 2187 00aa 1037     		adds	r7, r7, #16
 2188 00ac BD46     		mov	sp, r7
 2189              		@ sp needed
 2190 00ae 80BD     		pop	{r7, pc}
 2192              		.section	.text.HAL_RTCEx_GetWakeUpTimer,"ax",%progbits
 2193              		.align	1
 2194              		.global	HAL_RTCEx_GetWakeUpTimer
 2195              		.syntax unified
 2196              		.thumb
 2197              		.thumb_func
 2199              	HAL_RTCEx_GetWakeUpTimer:
 2200              		@ args = 0, pretend = 0, frame = 8
 2201              		@ frame_needed = 1, uses_anonymous_args = 0
 2202              		@ link register save eliminated.
 2203 0000 80B4     		push	{r7}
 2204 0002 83B0     		sub	sp, sp, #12
 2205 0004 00AF     		add	r7, sp, #0
 2206 0006 7860     		str	r0, [r7, #4]
 2207 0008 7B68     		ldr	r3, [r7, #4]
 2208 000a 1B68     		ldr	r3, [r3]
 2209 000c 5B69     		ldr	r3, [r3, #20]
ARM GAS  C:\msys64\tmp\ccDI7K0i.s 			page 39


 2210 000e 9BB2     		uxth	r3, r3
 2211 0010 1846     		mov	r0, r3
 2212 0012 0C37     		adds	r7, r7, #12
 2213 0014 BD46     		mov	sp, r7
 2214              		@ sp needed
 2215 0016 5DF8047B 		ldr	r7, [sp], #4
 2216 001a 7047     		bx	lr
 2218              		.section	.text.HAL_RTCEx_WakeUpTimerIRQHandler,"ax",%progbits
 2219              		.align	1
 2220              		.global	HAL_RTCEx_WakeUpTimerIRQHandler
 2221              		.syntax unified
 2222              		.thumb
 2223              		.thumb_func
 2225              	HAL_RTCEx_WakeUpTimerIRQHandler:
 2226              		@ args = 0, pretend = 0, frame = 8
 2227              		@ frame_needed = 1, uses_anonymous_args = 0
 2228 0000 80B5     		push	{r7, lr}
 2229 0002 82B0     		sub	sp, sp, #8
 2230 0004 00AF     		add	r7, sp, #0
 2231 0006 7860     		str	r0, [r7, #4]
 2232 0008 0E4B     		ldr	r3, .L142
 2233 000a 4FF48002 		mov	r2, #4194304
 2234 000e 5A61     		str	r2, [r3, #20]
 2235 0010 7B68     		ldr	r3, [r7, #4]
 2236 0012 1B68     		ldr	r3, [r3]
 2237 0014 DB68     		ldr	r3, [r3, #12]
 2238 0016 03F48063 		and	r3, r3, #1024
 2239 001a 002B     		cmp	r3, #0
 2240 001c 0BD0     		beq	.L141
 2241 001e 7B68     		ldr	r3, [r7, #4]
 2242 0020 1B68     		ldr	r3, [r3]
 2243 0022 DB68     		ldr	r3, [r3, #12]
 2244 0024 DAB2     		uxtb	r2, r3
 2245 0026 7B68     		ldr	r3, [r7, #4]
 2246 0028 1B68     		ldr	r3, [r3]
 2247 002a 62F49062 		orn	r2, r2, #1152
 2248 002e DA60     		str	r2, [r3, #12]
 2249 0030 7868     		ldr	r0, [r7, #4]
 2250 0032 FFF7FEFF 		bl	HAL_RTCEx_WakeUpTimerEventCallback
 2251              	.L141:
 2252 0036 7B68     		ldr	r3, [r7, #4]
 2253 0038 0122     		movs	r2, #1
 2254 003a 5A77     		strb	r2, [r3, #29]
 2255 003c 00BF     		nop
 2256 003e 0837     		adds	r7, r7, #8
 2257 0040 BD46     		mov	sp, r7
 2258              		@ sp needed
 2259 0042 80BD     		pop	{r7, pc}
 2260              	.L143:
 2261              		.align	2
 2262              	.L142:
 2263 0044 003C0140 		.word	1073822720
 2265              		.section	.text.HAL_RTCEx_WakeUpTimerEventCallback,"ax",%progbits
 2266              		.align	1
 2267              		.weak	HAL_RTCEx_WakeUpTimerEventCallback
 2268              		.syntax unified
 2269              		.thumb
ARM GAS  C:\msys64\tmp\ccDI7K0i.s 			page 40


 2270              		.thumb_func
 2272              	HAL_RTCEx_WakeUpTimerEventCallback:
 2273              		@ args = 0, pretend = 0, frame = 8
 2274              		@ frame_needed = 1, uses_anonymous_args = 0
 2275              		@ link register save eliminated.
 2276 0000 80B4     		push	{r7}
 2277 0002 83B0     		sub	sp, sp, #12
 2278 0004 00AF     		add	r7, sp, #0
 2279 0006 7860     		str	r0, [r7, #4]
 2280 0008 00BF     		nop
 2281 000a 0C37     		adds	r7, r7, #12
 2282 000c BD46     		mov	sp, r7
 2283              		@ sp needed
 2284 000e 5DF8047B 		ldr	r7, [sp], #4
 2285 0012 7047     		bx	lr
 2287              		.section	.text.HAL_RTCEx_PollForWakeUpTimerEvent,"ax",%progbits
 2288              		.align	1
 2289              		.global	HAL_RTCEx_PollForWakeUpTimerEvent
 2290              		.syntax unified
 2291              		.thumb
 2292              		.thumb_func
 2294              	HAL_RTCEx_PollForWakeUpTimerEvent:
 2295              		@ args = 0, pretend = 0, frame = 16
 2296              		@ frame_needed = 1, uses_anonymous_args = 0
 2297 0000 80B5     		push	{r7, lr}
 2298 0002 84B0     		sub	sp, sp, #16
 2299 0004 00AF     		add	r7, sp, #0
 2300 0006 7860     		str	r0, [r7, #4]
 2301 0008 3960     		str	r1, [r7]
 2302 000a 0023     		movs	r3, #0
 2303 000c FB60     		str	r3, [r7, #12]
 2304 000e FFF7FEFF 		bl	HAL_GetTick
 2305 0012 F860     		str	r0, [r7, #12]
 2306 0014 13E0     		b	.L147
 2307              	.L150:
 2308 0016 3B68     		ldr	r3, [r7]
 2309 0018 B3F1FF3F 		cmp	r3, #-1
 2310 001c 0FD0     		beq	.L147
 2311 001e 3B68     		ldr	r3, [r7]
 2312 0020 002B     		cmp	r3, #0
 2313 0022 07D0     		beq	.L148
 2314 0024 FFF7FEFF 		bl	HAL_GetTick
 2315 0028 0246     		mov	r2, r0
 2316 002a FB68     		ldr	r3, [r7, #12]
 2317 002c D31A     		subs	r3, r2, r3
 2318 002e 3A68     		ldr	r2, [r7]
 2319 0030 9A42     		cmp	r2, r3
 2320 0032 04D2     		bcs	.L147
 2321              	.L148:
 2322 0034 7B68     		ldr	r3, [r7, #4]
 2323 0036 0322     		movs	r2, #3
 2324 0038 5A77     		strb	r2, [r3, #29]
 2325 003a 0323     		movs	r3, #3
 2326 003c 13E0     		b	.L149
 2327              	.L147:
 2328 003e 7B68     		ldr	r3, [r7, #4]
 2329 0040 1B68     		ldr	r3, [r3]
ARM GAS  C:\msys64\tmp\ccDI7K0i.s 			page 41


 2330 0042 DB68     		ldr	r3, [r3, #12]
 2331 0044 03F48063 		and	r3, r3, #1024
 2332 0048 002B     		cmp	r3, #0
 2333 004a E4D0     		beq	.L150
 2334 004c 7B68     		ldr	r3, [r7, #4]
 2335 004e 1B68     		ldr	r3, [r3]
 2336 0050 DB68     		ldr	r3, [r3, #12]
 2337 0052 DAB2     		uxtb	r2, r3
 2338 0054 7B68     		ldr	r3, [r7, #4]
 2339 0056 1B68     		ldr	r3, [r3]
 2340 0058 62F49062 		orn	r2, r2, #1152
 2341 005c DA60     		str	r2, [r3, #12]
 2342 005e 7B68     		ldr	r3, [r7, #4]
 2343 0060 0122     		movs	r2, #1
 2344 0062 5A77     		strb	r2, [r3, #29]
 2345 0064 0023     		movs	r3, #0
 2346              	.L149:
 2347 0066 1846     		mov	r0, r3
 2348 0068 1037     		adds	r7, r7, #16
 2349 006a BD46     		mov	sp, r7
 2350              		@ sp needed
 2351 006c 80BD     		pop	{r7, pc}
 2353              		.section	.text.HAL_RTCEx_BKUPWrite,"ax",%progbits
 2354              		.align	1
 2355              		.global	HAL_RTCEx_BKUPWrite
 2356              		.syntax unified
 2357              		.thumb
 2358              		.thumb_func
 2360              	HAL_RTCEx_BKUPWrite:
 2361              		@ args = 0, pretend = 0, frame = 24
 2362              		@ frame_needed = 1, uses_anonymous_args = 0
 2363              		@ link register save eliminated.
 2364 0000 80B4     		push	{r7}
 2365 0002 87B0     		sub	sp, sp, #28
 2366 0004 00AF     		add	r7, sp, #0
 2367 0006 F860     		str	r0, [r7, #12]
 2368 0008 B960     		str	r1, [r7, #8]
 2369 000a 7A60     		str	r2, [r7, #4]
 2370 000c 0023     		movs	r3, #0
 2371 000e 7B61     		str	r3, [r7, #20]
 2372 0010 FB68     		ldr	r3, [r7, #12]
 2373 0012 1B68     		ldr	r3, [r3]
 2374 0014 5033     		adds	r3, r3, #80
 2375 0016 7B61     		str	r3, [r7, #20]
 2376 0018 BB68     		ldr	r3, [r7, #8]
 2377 001a 9B00     		lsls	r3, r3, #2
 2378 001c 7A69     		ldr	r2, [r7, #20]
 2379 001e 1344     		add	r3, r3, r2
 2380 0020 7B61     		str	r3, [r7, #20]
 2381 0022 7B69     		ldr	r3, [r7, #20]
 2382 0024 7A68     		ldr	r2, [r7, #4]
 2383 0026 1A60     		str	r2, [r3]
 2384 0028 00BF     		nop
 2385 002a 1C37     		adds	r7, r7, #28
 2386 002c BD46     		mov	sp, r7
 2387              		@ sp needed
 2388 002e 5DF8047B 		ldr	r7, [sp], #4
ARM GAS  C:\msys64\tmp\ccDI7K0i.s 			page 42


 2389 0032 7047     		bx	lr
 2391              		.section	.text.HAL_RTCEx_BKUPRead,"ax",%progbits
 2392              		.align	1
 2393              		.global	HAL_RTCEx_BKUPRead
 2394              		.syntax unified
 2395              		.thumb
 2396              		.thumb_func
 2398              	HAL_RTCEx_BKUPRead:
 2399              		@ args = 0, pretend = 0, frame = 16
 2400              		@ frame_needed = 1, uses_anonymous_args = 0
 2401              		@ link register save eliminated.
 2402 0000 80B4     		push	{r7}
 2403 0002 85B0     		sub	sp, sp, #20
 2404 0004 00AF     		add	r7, sp, #0
 2405 0006 7860     		str	r0, [r7, #4]
 2406 0008 3960     		str	r1, [r7]
 2407 000a 0023     		movs	r3, #0
 2408 000c FB60     		str	r3, [r7, #12]
 2409 000e 7B68     		ldr	r3, [r7, #4]
 2410 0010 1B68     		ldr	r3, [r3]
 2411 0012 5033     		adds	r3, r3, #80
 2412 0014 FB60     		str	r3, [r7, #12]
 2413 0016 3B68     		ldr	r3, [r7]
 2414 0018 9B00     		lsls	r3, r3, #2
 2415 001a FA68     		ldr	r2, [r7, #12]
 2416 001c 1344     		add	r3, r3, r2
 2417 001e FB60     		str	r3, [r7, #12]
 2418 0020 FB68     		ldr	r3, [r7, #12]
 2419 0022 1B68     		ldr	r3, [r3]
 2420 0024 1846     		mov	r0, r3
 2421 0026 1437     		adds	r7, r7, #20
 2422 0028 BD46     		mov	sp, r7
 2423              		@ sp needed
 2424 002a 5DF8047B 		ldr	r7, [sp], #4
 2425 002e 7047     		bx	lr
 2427              		.section	.text.HAL_RTCEx_SetSmoothCalib,"ax",%progbits
 2428              		.align	1
 2429              		.global	HAL_RTCEx_SetSmoothCalib
 2430              		.syntax unified
 2431              		.thumb
 2432              		.thumb_func
 2434              	HAL_RTCEx_SetSmoothCalib:
 2435              		@ args = 0, pretend = 0, frame = 24
 2436              		@ frame_needed = 1, uses_anonymous_args = 0
 2437 0000 80B5     		push	{r7, lr}
 2438 0002 86B0     		sub	sp, sp, #24
 2439 0004 00AF     		add	r7, sp, #0
 2440 0006 F860     		str	r0, [r7, #12]
 2441 0008 B960     		str	r1, [r7, #8]
 2442 000a 7A60     		str	r2, [r7, #4]
 2443 000c 3B60     		str	r3, [r7]
 2444 000e 0023     		movs	r3, #0
 2445 0010 7B61     		str	r3, [r7, #20]
 2446 0012 FB68     		ldr	r3, [r7, #12]
 2447 0014 1B7F     		ldrb	r3, [r3, #28]	@ zero_extendqisi2
 2448 0016 012B     		cmp	r3, #1
 2449 0018 01D1     		bne	.L155
ARM GAS  C:\msys64\tmp\ccDI7K0i.s 			page 43


 2450 001a 0223     		movs	r3, #2
 2451 001c 47E0     		b	.L156
 2452              	.L155:
 2453 001e FB68     		ldr	r3, [r7, #12]
 2454 0020 0122     		movs	r2, #1
 2455 0022 1A77     		strb	r2, [r3, #28]
 2456 0024 FB68     		ldr	r3, [r7, #12]
 2457 0026 0222     		movs	r2, #2
 2458 0028 5A77     		strb	r2, [r3, #29]
 2459 002a FB68     		ldr	r3, [r7, #12]
 2460 002c 1B68     		ldr	r3, [r3]
 2461 002e CA22     		movs	r2, #202
 2462 0030 5A62     		str	r2, [r3, #36]
 2463 0032 FB68     		ldr	r3, [r7, #12]
 2464 0034 1B68     		ldr	r3, [r3]
 2465 0036 5322     		movs	r2, #83
 2466 0038 5A62     		str	r2, [r3, #36]
 2467 003a FB68     		ldr	r3, [r7, #12]
 2468 003c 1B68     		ldr	r3, [r3]
 2469 003e DB68     		ldr	r3, [r3, #12]
 2470 0040 03F48033 		and	r3, r3, #65536
 2471 0044 002B     		cmp	r3, #0
 2472 0046 1ED0     		beq	.L157
 2473 0048 FFF7FEFF 		bl	HAL_GetTick
 2474 004c 7861     		str	r0, [r7, #20]
 2475 004e 13E0     		b	.L158
 2476              	.L159:
 2477 0050 FFF7FEFF 		bl	HAL_GetTick
 2478 0054 0246     		mov	r2, r0
 2479 0056 7B69     		ldr	r3, [r7, #20]
 2480 0058 D31A     		subs	r3, r2, r3
 2481 005a B3F57A7F 		cmp	r3, #1000
 2482 005e 0BD9     		bls	.L158
 2483 0060 FB68     		ldr	r3, [r7, #12]
 2484 0062 1B68     		ldr	r3, [r3]
 2485 0064 FF22     		movs	r2, #255
 2486 0066 5A62     		str	r2, [r3, #36]
 2487 0068 FB68     		ldr	r3, [r7, #12]
 2488 006a 0322     		movs	r2, #3
 2489 006c 5A77     		strb	r2, [r3, #29]
 2490 006e FB68     		ldr	r3, [r7, #12]
 2491 0070 0022     		movs	r2, #0
 2492 0072 1A77     		strb	r2, [r3, #28]
 2493 0074 0323     		movs	r3, #3
 2494 0076 1AE0     		b	.L156
 2495              	.L158:
 2496 0078 FB68     		ldr	r3, [r7, #12]
 2497 007a 1B68     		ldr	r3, [r3]
 2498 007c DB68     		ldr	r3, [r3, #12]
 2499 007e 03F48033 		and	r3, r3, #65536
 2500 0082 002B     		cmp	r3, #0
 2501 0084 E4D1     		bne	.L159
 2502              	.L157:
 2503 0086 BA68     		ldr	r2, [r7, #8]
 2504 0088 7B68     		ldr	r3, [r7, #4]
 2505 008a 42EA0301 		orr	r1, r2, r3
 2506 008e FB68     		ldr	r3, [r7, #12]
ARM GAS  C:\msys64\tmp\ccDI7K0i.s 			page 44


 2507 0090 1B68     		ldr	r3, [r3]
 2508 0092 3A68     		ldr	r2, [r7]
 2509 0094 0A43     		orrs	r2, r2, r1
 2510 0096 DA63     		str	r2, [r3, #60]
 2511 0098 FB68     		ldr	r3, [r7, #12]
 2512 009a 1B68     		ldr	r3, [r3]
 2513 009c FF22     		movs	r2, #255
 2514 009e 5A62     		str	r2, [r3, #36]
 2515 00a0 FB68     		ldr	r3, [r7, #12]
 2516 00a2 0122     		movs	r2, #1
 2517 00a4 5A77     		strb	r2, [r3, #29]
 2518 00a6 FB68     		ldr	r3, [r7, #12]
 2519 00a8 0022     		movs	r2, #0
 2520 00aa 1A77     		strb	r2, [r3, #28]
 2521 00ac 0023     		movs	r3, #0
 2522              	.L156:
 2523 00ae 1846     		mov	r0, r3
 2524 00b0 1837     		adds	r7, r7, #24
 2525 00b2 BD46     		mov	sp, r7
 2526              		@ sp needed
 2527 00b4 80BD     		pop	{r7, pc}
 2529              		.section	.text.HAL_RTCEx_SetSynchroShift,"ax",%progbits
 2530              		.align	1
 2531              		.global	HAL_RTCEx_SetSynchroShift
 2532              		.syntax unified
 2533              		.thumb
 2534              		.thumb_func
 2536              	HAL_RTCEx_SetSynchroShift:
 2537              		@ args = 0, pretend = 0, frame = 24
 2538              		@ frame_needed = 1, uses_anonymous_args = 0
 2539 0000 80B5     		push	{r7, lr}
 2540 0002 86B0     		sub	sp, sp, #24
 2541 0004 00AF     		add	r7, sp, #0
 2542 0006 F860     		str	r0, [r7, #12]
 2543 0008 B960     		str	r1, [r7, #8]
 2544 000a 7A60     		str	r2, [r7, #4]
 2545 000c 0023     		movs	r3, #0
 2546 000e 7B61     		str	r3, [r7, #20]
 2547 0010 FB68     		ldr	r3, [r7, #12]
 2548 0012 1B7F     		ldrb	r3, [r3, #28]	@ zero_extendqisi2
 2549 0014 012B     		cmp	r3, #1
 2550 0016 01D1     		bne	.L161
 2551 0018 0223     		movs	r3, #2
 2552 001a 69E0     		b	.L162
 2553              	.L161:
 2554 001c FB68     		ldr	r3, [r7, #12]
 2555 001e 0122     		movs	r2, #1
 2556 0020 1A77     		strb	r2, [r3, #28]
 2557 0022 FB68     		ldr	r3, [r7, #12]
 2558 0024 0222     		movs	r2, #2
 2559 0026 5A77     		strb	r2, [r3, #29]
 2560 0028 FB68     		ldr	r3, [r7, #12]
 2561 002a 1B68     		ldr	r3, [r3]
 2562 002c CA22     		movs	r2, #202
 2563 002e 5A62     		str	r2, [r3, #36]
 2564 0030 FB68     		ldr	r3, [r7, #12]
 2565 0032 1B68     		ldr	r3, [r3]
ARM GAS  C:\msys64\tmp\ccDI7K0i.s 			page 45


 2566 0034 5322     		movs	r2, #83
 2567 0036 5A62     		str	r2, [r3, #36]
 2568 0038 FFF7FEFF 		bl	HAL_GetTick
 2569 003c 7861     		str	r0, [r7, #20]
 2570 003e 13E0     		b	.L163
 2571              	.L164:
 2572 0040 FFF7FEFF 		bl	HAL_GetTick
 2573 0044 0246     		mov	r2, r0
 2574 0046 7B69     		ldr	r3, [r7, #20]
 2575 0048 D31A     		subs	r3, r2, r3
 2576 004a B3F57A7F 		cmp	r3, #1000
 2577 004e 0BD9     		bls	.L163
 2578 0050 FB68     		ldr	r3, [r7, #12]
 2579 0052 1B68     		ldr	r3, [r3]
 2580 0054 FF22     		movs	r2, #255
 2581 0056 5A62     		str	r2, [r3, #36]
 2582 0058 FB68     		ldr	r3, [r7, #12]
 2583 005a 0322     		movs	r2, #3
 2584 005c 5A77     		strb	r2, [r3, #29]
 2585 005e FB68     		ldr	r3, [r7, #12]
 2586 0060 0022     		movs	r2, #0
 2587 0062 1A77     		strb	r2, [r3, #28]
 2588 0064 0323     		movs	r3, #3
 2589 0066 43E0     		b	.L162
 2590              	.L163:
 2591 0068 FB68     		ldr	r3, [r7, #12]
 2592 006a 1B68     		ldr	r3, [r3]
 2593 006c DB68     		ldr	r3, [r3, #12]
 2594 006e 03F00803 		and	r3, r3, #8
 2595 0072 002B     		cmp	r3, #0
 2596 0074 E4D1     		bne	.L164
 2597 0076 FB68     		ldr	r3, [r7, #12]
 2598 0078 1B68     		ldr	r3, [r3]
 2599 007a 9B68     		ldr	r3, [r3, #8]
 2600 007c 03F01003 		and	r3, r3, #16
 2601 0080 002B     		cmp	r3, #0
 2602 0082 1ED1     		bne	.L165
 2603 0084 FB68     		ldr	r3, [r7, #12]
 2604 0086 1B68     		ldr	r3, [r3]
 2605 0088 7968     		ldr	r1, [r7, #4]
 2606 008a BA68     		ldr	r2, [r7, #8]
 2607 008c 0A43     		orrs	r2, r2, r1
 2608 008e DA62     		str	r2, [r3, #44]
 2609 0090 FB68     		ldr	r3, [r7, #12]
 2610 0092 1B68     		ldr	r3, [r3]
 2611 0094 9B68     		ldr	r3, [r3, #8]
 2612 0096 03F02003 		and	r3, r3, #32
 2613 009a 002B     		cmp	r3, #0
 2614 009c 1DD1     		bne	.L166
 2615 009e F868     		ldr	r0, [r7, #12]
 2616 00a0 FFF7FEFF 		bl	HAL_RTC_WaitForSynchro
 2617 00a4 0346     		mov	r3, r0
 2618 00a6 002B     		cmp	r3, #0
 2619 00a8 17D0     		beq	.L166
 2620 00aa FB68     		ldr	r3, [r7, #12]
 2621 00ac 1B68     		ldr	r3, [r3]
 2622 00ae FF22     		movs	r2, #255
ARM GAS  C:\msys64\tmp\ccDI7K0i.s 			page 46


 2623 00b0 5A62     		str	r2, [r3, #36]
 2624 00b2 FB68     		ldr	r3, [r7, #12]
 2625 00b4 0422     		movs	r2, #4
 2626 00b6 5A77     		strb	r2, [r3, #29]
 2627 00b8 FB68     		ldr	r3, [r7, #12]
 2628 00ba 0022     		movs	r2, #0
 2629 00bc 1A77     		strb	r2, [r3, #28]
 2630 00be 0123     		movs	r3, #1
 2631 00c0 16E0     		b	.L162
 2632              	.L165:
 2633 00c2 FB68     		ldr	r3, [r7, #12]
 2634 00c4 1B68     		ldr	r3, [r3]
 2635 00c6 FF22     		movs	r2, #255
 2636 00c8 5A62     		str	r2, [r3, #36]
 2637 00ca FB68     		ldr	r3, [r7, #12]
 2638 00cc 0422     		movs	r2, #4
 2639 00ce 5A77     		strb	r2, [r3, #29]
 2640 00d0 FB68     		ldr	r3, [r7, #12]
 2641 00d2 0022     		movs	r2, #0
 2642 00d4 1A77     		strb	r2, [r3, #28]
 2643 00d6 0123     		movs	r3, #1
 2644 00d8 0AE0     		b	.L162
 2645              	.L166:
 2646 00da FB68     		ldr	r3, [r7, #12]
 2647 00dc 1B68     		ldr	r3, [r3]
 2648 00de FF22     		movs	r2, #255
 2649 00e0 5A62     		str	r2, [r3, #36]
 2650 00e2 FB68     		ldr	r3, [r7, #12]
 2651 00e4 0122     		movs	r2, #1
 2652 00e6 5A77     		strb	r2, [r3, #29]
 2653 00e8 FB68     		ldr	r3, [r7, #12]
 2654 00ea 0022     		movs	r2, #0
 2655 00ec 1A77     		strb	r2, [r3, #28]
 2656 00ee 0023     		movs	r3, #0
 2657              	.L162:
 2658 00f0 1846     		mov	r0, r3
 2659 00f2 1837     		adds	r7, r7, #24
 2660 00f4 BD46     		mov	sp, r7
 2661              		@ sp needed
 2662 00f6 80BD     		pop	{r7, pc}
 2664              		.section	.text.HAL_RTCEx_SetCalibrationOutPut,"ax",%progbits
 2665              		.align	1
 2666              		.global	HAL_RTCEx_SetCalibrationOutPut
 2667              		.syntax unified
 2668              		.thumb
 2669              		.thumb_func
 2671              	HAL_RTCEx_SetCalibrationOutPut:
 2672              		@ args = 0, pretend = 0, frame = 8
 2673              		@ frame_needed = 1, uses_anonymous_args = 0
 2674              		@ link register save eliminated.
 2675 0000 80B4     		push	{r7}
 2676 0002 83B0     		sub	sp, sp, #12
 2677 0004 00AF     		add	r7, sp, #0
 2678 0006 7860     		str	r0, [r7, #4]
 2679 0008 3960     		str	r1, [r7]
 2680 000a 7B68     		ldr	r3, [r7, #4]
 2681 000c 1B7F     		ldrb	r3, [r3, #28]	@ zero_extendqisi2
ARM GAS  C:\msys64\tmp\ccDI7K0i.s 			page 47


 2682 000e 012B     		cmp	r3, #1
 2683 0010 01D1     		bne	.L168
 2684 0012 0223     		movs	r3, #2
 2685 0014 30E0     		b	.L169
 2686              	.L168:
 2687 0016 7B68     		ldr	r3, [r7, #4]
 2688 0018 0122     		movs	r2, #1
 2689 001a 1A77     		strb	r2, [r3, #28]
 2690 001c 7B68     		ldr	r3, [r7, #4]
 2691 001e 0222     		movs	r2, #2
 2692 0020 5A77     		strb	r2, [r3, #29]
 2693 0022 7B68     		ldr	r3, [r7, #4]
 2694 0024 1B68     		ldr	r3, [r3]
 2695 0026 CA22     		movs	r2, #202
 2696 0028 5A62     		str	r2, [r3, #36]
 2697 002a 7B68     		ldr	r3, [r7, #4]
 2698 002c 1B68     		ldr	r3, [r3]
 2699 002e 5322     		movs	r2, #83
 2700 0030 5A62     		str	r2, [r3, #36]
 2701 0032 7B68     		ldr	r3, [r7, #4]
 2702 0034 1B68     		ldr	r3, [r3]
 2703 0036 9A68     		ldr	r2, [r3, #8]
 2704 0038 7B68     		ldr	r3, [r7, #4]
 2705 003a 1B68     		ldr	r3, [r3]
 2706 003c 22F40022 		bic	r2, r2, #524288
 2707 0040 9A60     		str	r2, [r3, #8]
 2708 0042 7B68     		ldr	r3, [r7, #4]
 2709 0044 1B68     		ldr	r3, [r3]
 2710 0046 9968     		ldr	r1, [r3, #8]
 2711 0048 7B68     		ldr	r3, [r7, #4]
 2712 004a 1B68     		ldr	r3, [r3]
 2713 004c 3A68     		ldr	r2, [r7]
 2714 004e 0A43     		orrs	r2, r2, r1
 2715 0050 9A60     		str	r2, [r3, #8]
 2716 0052 7B68     		ldr	r3, [r7, #4]
 2717 0054 1B68     		ldr	r3, [r3]
 2718 0056 9A68     		ldr	r2, [r3, #8]
 2719 0058 7B68     		ldr	r3, [r7, #4]
 2720 005a 1B68     		ldr	r3, [r3]
 2721 005c 42F40002 		orr	r2, r2, #8388608
 2722 0060 9A60     		str	r2, [r3, #8]
 2723 0062 7B68     		ldr	r3, [r7, #4]
 2724 0064 1B68     		ldr	r3, [r3]
 2725 0066 FF22     		movs	r2, #255
 2726 0068 5A62     		str	r2, [r3, #36]
 2727 006a 7B68     		ldr	r3, [r7, #4]
 2728 006c 0122     		movs	r2, #1
 2729 006e 5A77     		strb	r2, [r3, #29]
 2730 0070 7B68     		ldr	r3, [r7, #4]
 2731 0072 0022     		movs	r2, #0
 2732 0074 1A77     		strb	r2, [r3, #28]
 2733 0076 0023     		movs	r3, #0
 2734              	.L169:
 2735 0078 1846     		mov	r0, r3
 2736 007a 0C37     		adds	r7, r7, #12
 2737 007c BD46     		mov	sp, r7
 2738              		@ sp needed
ARM GAS  C:\msys64\tmp\ccDI7K0i.s 			page 48


 2739 007e 5DF8047B 		ldr	r7, [sp], #4
 2740 0082 7047     		bx	lr
 2742              		.section	.text.HAL_RTCEx_DeactivateCalibrationOutPut,"ax",%progbits
 2743              		.align	1
 2744              		.global	HAL_RTCEx_DeactivateCalibrationOutPut
 2745              		.syntax unified
 2746              		.thumb
 2747              		.thumb_func
 2749              	HAL_RTCEx_DeactivateCalibrationOutPut:
 2750              		@ args = 0, pretend = 0, frame = 8
 2751              		@ frame_needed = 1, uses_anonymous_args = 0
 2752              		@ link register save eliminated.
 2753 0000 80B4     		push	{r7}
 2754 0002 83B0     		sub	sp, sp, #12
 2755 0004 00AF     		add	r7, sp, #0
 2756 0006 7860     		str	r0, [r7, #4]
 2757 0008 7B68     		ldr	r3, [r7, #4]
 2758 000a 1B7F     		ldrb	r3, [r3, #28]	@ zero_extendqisi2
 2759 000c 012B     		cmp	r3, #1
 2760 000e 01D1     		bne	.L171
 2761 0010 0223     		movs	r3, #2
 2762 0012 20E0     		b	.L172
 2763              	.L171:
 2764 0014 7B68     		ldr	r3, [r7, #4]
 2765 0016 0122     		movs	r2, #1
 2766 0018 1A77     		strb	r2, [r3, #28]
 2767 001a 7B68     		ldr	r3, [r7, #4]
 2768 001c 0222     		movs	r2, #2
 2769 001e 5A77     		strb	r2, [r3, #29]
 2770 0020 7B68     		ldr	r3, [r7, #4]
 2771 0022 1B68     		ldr	r3, [r3]
 2772 0024 CA22     		movs	r2, #202
 2773 0026 5A62     		str	r2, [r3, #36]
 2774 0028 7B68     		ldr	r3, [r7, #4]
 2775 002a 1B68     		ldr	r3, [r3]
 2776 002c 5322     		movs	r2, #83
 2777 002e 5A62     		str	r2, [r3, #36]
 2778 0030 7B68     		ldr	r3, [r7, #4]
 2779 0032 1B68     		ldr	r3, [r3]
 2780 0034 9A68     		ldr	r2, [r3, #8]
 2781 0036 7B68     		ldr	r3, [r7, #4]
 2782 0038 1B68     		ldr	r3, [r3]
 2783 003a 22F40002 		bic	r2, r2, #8388608
 2784 003e 9A60     		str	r2, [r3, #8]
 2785 0040 7B68     		ldr	r3, [r7, #4]
 2786 0042 1B68     		ldr	r3, [r3]
 2787 0044 FF22     		movs	r2, #255
 2788 0046 5A62     		str	r2, [r3, #36]
 2789 0048 7B68     		ldr	r3, [r7, #4]
 2790 004a 0122     		movs	r2, #1
 2791 004c 5A77     		strb	r2, [r3, #29]
 2792 004e 7B68     		ldr	r3, [r7, #4]
 2793 0050 0022     		movs	r2, #0
 2794 0052 1A77     		strb	r2, [r3, #28]
 2795 0054 0023     		movs	r3, #0
 2796              	.L172:
 2797 0056 1846     		mov	r0, r3
ARM GAS  C:\msys64\tmp\ccDI7K0i.s 			page 49


 2798 0058 0C37     		adds	r7, r7, #12
 2799 005a BD46     		mov	sp, r7
 2800              		@ sp needed
 2801 005c 5DF8047B 		ldr	r7, [sp], #4
 2802 0060 7047     		bx	lr
 2804              		.section	.text.HAL_RTCEx_SetRefClock,"ax",%progbits
 2805              		.align	1
 2806              		.global	HAL_RTCEx_SetRefClock
 2807              		.syntax unified
 2808              		.thumb
 2809              		.thumb_func
 2811              	HAL_RTCEx_SetRefClock:
 2812              		@ args = 0, pretend = 0, frame = 16
 2813              		@ frame_needed = 1, uses_anonymous_args = 0
 2814 0000 80B5     		push	{r7, lr}
 2815 0002 84B0     		sub	sp, sp, #16
 2816 0004 00AF     		add	r7, sp, #0
 2817 0006 7860     		str	r0, [r7, #4]
 2818 0008 7B68     		ldr	r3, [r7, #4]
 2819 000a 1B7F     		ldrb	r3, [r3, #28]	@ zero_extendqisi2
 2820 000c 012B     		cmp	r3, #1
 2821 000e 01D1     		bne	.L174
 2822 0010 0223     		movs	r3, #2
 2823 0012 30E0     		b	.L175
 2824              	.L174:
 2825 0014 7B68     		ldr	r3, [r7, #4]
 2826 0016 0122     		movs	r2, #1
 2827 0018 1A77     		strb	r2, [r3, #28]
 2828 001a 7B68     		ldr	r3, [r7, #4]
 2829 001c 0222     		movs	r2, #2
 2830 001e 5A77     		strb	r2, [r3, #29]
 2831 0020 7B68     		ldr	r3, [r7, #4]
 2832 0022 1B68     		ldr	r3, [r3]
 2833 0024 CA22     		movs	r2, #202
 2834 0026 5A62     		str	r2, [r3, #36]
 2835 0028 7B68     		ldr	r3, [r7, #4]
 2836 002a 1B68     		ldr	r3, [r3]
 2837 002c 5322     		movs	r2, #83
 2838 002e 5A62     		str	r2, [r3, #36]
 2839 0030 7868     		ldr	r0, [r7, #4]
 2840 0032 FFF7FEFF 		bl	RTC_EnterInitMode
 2841 0036 0346     		mov	r3, r0
 2842 0038 FB73     		strb	r3, [r7, #15]
 2843 003a FB7B     		ldrb	r3, [r7, #15]	@ zero_extendqisi2
 2844 003c 002B     		cmp	r3, #0
 2845 003e 0CD1     		bne	.L176
 2846 0040 7B68     		ldr	r3, [r7, #4]
 2847 0042 1B68     		ldr	r3, [r3]
 2848 0044 9A68     		ldr	r2, [r3, #8]
 2849 0046 7B68     		ldr	r3, [r7, #4]
 2850 0048 1B68     		ldr	r3, [r3]
 2851 004a 42F01002 		orr	r2, r2, #16
 2852 004e 9A60     		str	r2, [r3, #8]
 2853 0050 7868     		ldr	r0, [r7, #4]
 2854 0052 FFF7FEFF 		bl	RTC_ExitInitMode
 2855 0056 0346     		mov	r3, r0
 2856 0058 FB73     		strb	r3, [r7, #15]
ARM GAS  C:\msys64\tmp\ccDI7K0i.s 			page 50


 2857              	.L176:
 2858 005a FB7B     		ldrb	r3, [r7, #15]	@ zero_extendqisi2
 2859 005c 002B     		cmp	r3, #0
 2860 005e 02D1     		bne	.L177
 2861 0060 7B68     		ldr	r3, [r7, #4]
 2862 0062 0122     		movs	r2, #1
 2863 0064 5A77     		strb	r2, [r3, #29]
 2864              	.L177:
 2865 0066 7B68     		ldr	r3, [r7, #4]
 2866 0068 1B68     		ldr	r3, [r3]
 2867 006a FF22     		movs	r2, #255
 2868 006c 5A62     		str	r2, [r3, #36]
 2869 006e 7B68     		ldr	r3, [r7, #4]
 2870 0070 0022     		movs	r2, #0
 2871 0072 1A77     		strb	r2, [r3, #28]
 2872 0074 FB7B     		ldrb	r3, [r7, #15]	@ zero_extendqisi2
 2873              	.L175:
 2874 0076 1846     		mov	r0, r3
 2875 0078 1037     		adds	r7, r7, #16
 2876 007a BD46     		mov	sp, r7
 2877              		@ sp needed
 2878 007c 80BD     		pop	{r7, pc}
 2880              		.section	.text.HAL_RTCEx_DeactivateRefClock,"ax",%progbits
 2881              		.align	1
 2882              		.global	HAL_RTCEx_DeactivateRefClock
 2883              		.syntax unified
 2884              		.thumb
 2885              		.thumb_func
 2887              	HAL_RTCEx_DeactivateRefClock:
 2888              		@ args = 0, pretend = 0, frame = 16
 2889              		@ frame_needed = 1, uses_anonymous_args = 0
 2890 0000 80B5     		push	{r7, lr}
 2891 0002 84B0     		sub	sp, sp, #16
 2892 0004 00AF     		add	r7, sp, #0
 2893 0006 7860     		str	r0, [r7, #4]
 2894 0008 7B68     		ldr	r3, [r7, #4]
 2895 000a 1B7F     		ldrb	r3, [r3, #28]	@ zero_extendqisi2
 2896 000c 012B     		cmp	r3, #1
 2897 000e 01D1     		bne	.L179
 2898 0010 0223     		movs	r3, #2
 2899 0012 30E0     		b	.L180
 2900              	.L179:
 2901 0014 7B68     		ldr	r3, [r7, #4]
 2902 0016 0122     		movs	r2, #1
 2903 0018 1A77     		strb	r2, [r3, #28]
 2904 001a 7B68     		ldr	r3, [r7, #4]
 2905 001c 0222     		movs	r2, #2
 2906 001e 5A77     		strb	r2, [r3, #29]
 2907 0020 7B68     		ldr	r3, [r7, #4]
 2908 0022 1B68     		ldr	r3, [r3]
 2909 0024 CA22     		movs	r2, #202
 2910 0026 5A62     		str	r2, [r3, #36]
 2911 0028 7B68     		ldr	r3, [r7, #4]
 2912 002a 1B68     		ldr	r3, [r3]
 2913 002c 5322     		movs	r2, #83
 2914 002e 5A62     		str	r2, [r3, #36]
 2915 0030 7868     		ldr	r0, [r7, #4]
ARM GAS  C:\msys64\tmp\ccDI7K0i.s 			page 51


 2916 0032 FFF7FEFF 		bl	RTC_EnterInitMode
 2917 0036 0346     		mov	r3, r0
 2918 0038 FB73     		strb	r3, [r7, #15]
 2919 003a FB7B     		ldrb	r3, [r7, #15]	@ zero_extendqisi2
 2920 003c 002B     		cmp	r3, #0
 2921 003e 0CD1     		bne	.L181
 2922 0040 7B68     		ldr	r3, [r7, #4]
 2923 0042 1B68     		ldr	r3, [r3]
 2924 0044 9A68     		ldr	r2, [r3, #8]
 2925 0046 7B68     		ldr	r3, [r7, #4]
 2926 0048 1B68     		ldr	r3, [r3]
 2927 004a 22F01002 		bic	r2, r2, #16
 2928 004e 9A60     		str	r2, [r3, #8]
 2929 0050 7868     		ldr	r0, [r7, #4]
 2930 0052 FFF7FEFF 		bl	RTC_ExitInitMode
 2931 0056 0346     		mov	r3, r0
 2932 0058 FB73     		strb	r3, [r7, #15]
 2933              	.L181:
 2934 005a FB7B     		ldrb	r3, [r7, #15]	@ zero_extendqisi2
 2935 005c 002B     		cmp	r3, #0
 2936 005e 02D1     		bne	.L182
 2937 0060 7B68     		ldr	r3, [r7, #4]
 2938 0062 0122     		movs	r2, #1
 2939 0064 5A77     		strb	r2, [r3, #29]
 2940              	.L182:
 2941 0066 7B68     		ldr	r3, [r7, #4]
 2942 0068 1B68     		ldr	r3, [r3]
 2943 006a FF22     		movs	r2, #255
 2944 006c 5A62     		str	r2, [r3, #36]
 2945 006e 7B68     		ldr	r3, [r7, #4]
 2946 0070 0022     		movs	r2, #0
 2947 0072 1A77     		strb	r2, [r3, #28]
 2948 0074 FB7B     		ldrb	r3, [r7, #15]	@ zero_extendqisi2
 2949              	.L180:
 2950 0076 1846     		mov	r0, r3
 2951 0078 1037     		adds	r7, r7, #16
 2952 007a BD46     		mov	sp, r7
 2953              		@ sp needed
 2954 007c 80BD     		pop	{r7, pc}
 2956              		.section	.text.HAL_RTCEx_EnableBypassShadow,"ax",%progbits
 2957              		.align	1
 2958              		.global	HAL_RTCEx_EnableBypassShadow
 2959              		.syntax unified
 2960              		.thumb
 2961              		.thumb_func
 2963              	HAL_RTCEx_EnableBypassShadow:
 2964              		@ args = 0, pretend = 0, frame = 8
 2965              		@ frame_needed = 1, uses_anonymous_args = 0
 2966              		@ link register save eliminated.
 2967 0000 80B4     		push	{r7}
 2968 0002 83B0     		sub	sp, sp, #12
 2969 0004 00AF     		add	r7, sp, #0
 2970 0006 7860     		str	r0, [r7, #4]
 2971 0008 7B68     		ldr	r3, [r7, #4]
 2972 000a 1B7F     		ldrb	r3, [r3, #28]	@ zero_extendqisi2
 2973 000c 012B     		cmp	r3, #1
 2974 000e 01D1     		bne	.L184
ARM GAS  C:\msys64\tmp\ccDI7K0i.s 			page 52


 2975 0010 0223     		movs	r3, #2
 2976 0012 20E0     		b	.L185
 2977              	.L184:
 2978 0014 7B68     		ldr	r3, [r7, #4]
 2979 0016 0122     		movs	r2, #1
 2980 0018 1A77     		strb	r2, [r3, #28]
 2981 001a 7B68     		ldr	r3, [r7, #4]
 2982 001c 0222     		movs	r2, #2
 2983 001e 5A77     		strb	r2, [r3, #29]
 2984 0020 7B68     		ldr	r3, [r7, #4]
 2985 0022 1B68     		ldr	r3, [r3]
 2986 0024 CA22     		movs	r2, #202
 2987 0026 5A62     		str	r2, [r3, #36]
 2988 0028 7B68     		ldr	r3, [r7, #4]
 2989 002a 1B68     		ldr	r3, [r3]
 2990 002c 5322     		movs	r2, #83
 2991 002e 5A62     		str	r2, [r3, #36]
 2992 0030 7B68     		ldr	r3, [r7, #4]
 2993 0032 1B68     		ldr	r3, [r3]
 2994 0034 9A68     		ldr	r2, [r3, #8]
 2995 0036 7B68     		ldr	r3, [r7, #4]
 2996 0038 1B68     		ldr	r3, [r3]
 2997 003a 42F02002 		orr	r2, r2, #32
 2998 003e 9A60     		str	r2, [r3, #8]
 2999 0040 7B68     		ldr	r3, [r7, #4]
 3000 0042 1B68     		ldr	r3, [r3]
 3001 0044 FF22     		movs	r2, #255
 3002 0046 5A62     		str	r2, [r3, #36]
 3003 0048 7B68     		ldr	r3, [r7, #4]
 3004 004a 0122     		movs	r2, #1
 3005 004c 5A77     		strb	r2, [r3, #29]
 3006 004e 7B68     		ldr	r3, [r7, #4]
 3007 0050 0022     		movs	r2, #0
 3008 0052 1A77     		strb	r2, [r3, #28]
 3009 0054 0023     		movs	r3, #0
 3010              	.L185:
 3011 0056 1846     		mov	r0, r3
 3012 0058 0C37     		adds	r7, r7, #12
 3013 005a BD46     		mov	sp, r7
 3014              		@ sp needed
 3015 005c 5DF8047B 		ldr	r7, [sp], #4
 3016 0060 7047     		bx	lr
 3018              		.section	.text.HAL_RTCEx_DisableBypassShadow,"ax",%progbits
 3019              		.align	1
 3020              		.global	HAL_RTCEx_DisableBypassShadow
 3021              		.syntax unified
 3022              		.thumb
 3023              		.thumb_func
 3025              	HAL_RTCEx_DisableBypassShadow:
 3026              		@ args = 0, pretend = 0, frame = 8
 3027              		@ frame_needed = 1, uses_anonymous_args = 0
 3028              		@ link register save eliminated.
 3029 0000 80B4     		push	{r7}
 3030 0002 83B0     		sub	sp, sp, #12
 3031 0004 00AF     		add	r7, sp, #0
 3032 0006 7860     		str	r0, [r7, #4]
 3033 0008 7B68     		ldr	r3, [r7, #4]
ARM GAS  C:\msys64\tmp\ccDI7K0i.s 			page 53


 3034 000a 1B7F     		ldrb	r3, [r3, #28]	@ zero_extendqisi2
 3035 000c 012B     		cmp	r3, #1
 3036 000e 01D1     		bne	.L187
 3037 0010 0223     		movs	r3, #2
 3038 0012 20E0     		b	.L188
 3039              	.L187:
 3040 0014 7B68     		ldr	r3, [r7, #4]
 3041 0016 0122     		movs	r2, #1
 3042 0018 1A77     		strb	r2, [r3, #28]
 3043 001a 7B68     		ldr	r3, [r7, #4]
 3044 001c 0222     		movs	r2, #2
 3045 001e 5A77     		strb	r2, [r3, #29]
 3046 0020 7B68     		ldr	r3, [r7, #4]
 3047 0022 1B68     		ldr	r3, [r3]
 3048 0024 CA22     		movs	r2, #202
 3049 0026 5A62     		str	r2, [r3, #36]
 3050 0028 7B68     		ldr	r3, [r7, #4]
 3051 002a 1B68     		ldr	r3, [r3]
 3052 002c 5322     		movs	r2, #83
 3053 002e 5A62     		str	r2, [r3, #36]
 3054 0030 7B68     		ldr	r3, [r7, #4]
 3055 0032 1B68     		ldr	r3, [r3]
 3056 0034 9A68     		ldr	r2, [r3, #8]
 3057 0036 7B68     		ldr	r3, [r7, #4]
 3058 0038 1B68     		ldr	r3, [r3]
 3059 003a 22F02002 		bic	r2, r2, #32
 3060 003e 9A60     		str	r2, [r3, #8]
 3061 0040 7B68     		ldr	r3, [r7, #4]
 3062 0042 1B68     		ldr	r3, [r3]
 3063 0044 FF22     		movs	r2, #255
 3064 0046 5A62     		str	r2, [r3, #36]
 3065 0048 7B68     		ldr	r3, [r7, #4]
 3066 004a 0122     		movs	r2, #1
 3067 004c 5A77     		strb	r2, [r3, #29]
 3068 004e 7B68     		ldr	r3, [r7, #4]
 3069 0050 0022     		movs	r2, #0
 3070 0052 1A77     		strb	r2, [r3, #28]
 3071 0054 0023     		movs	r3, #0
 3072              	.L188:
 3073 0056 1846     		mov	r0, r3
 3074 0058 0C37     		adds	r7, r7, #12
 3075 005a BD46     		mov	sp, r7
 3076              		@ sp needed
 3077 005c 5DF8047B 		ldr	r7, [sp], #4
 3078 0060 7047     		bx	lr
 3080              		.section	.text.HAL_RTCEx_AlarmBEventCallback,"ax",%progbits
 3081              		.align	1
 3082              		.weak	HAL_RTCEx_AlarmBEventCallback
 3083              		.syntax unified
 3084              		.thumb
 3085              		.thumb_func
 3087              	HAL_RTCEx_AlarmBEventCallback:
 3088              		@ args = 0, pretend = 0, frame = 8
 3089              		@ frame_needed = 1, uses_anonymous_args = 0
 3090              		@ link register save eliminated.
 3091 0000 80B4     		push	{r7}
 3092 0002 83B0     		sub	sp, sp, #12
ARM GAS  C:\msys64\tmp\ccDI7K0i.s 			page 54


 3093 0004 00AF     		add	r7, sp, #0
 3094 0006 7860     		str	r0, [r7, #4]
 3095 0008 00BF     		nop
 3096 000a 0C37     		adds	r7, r7, #12
 3097 000c BD46     		mov	sp, r7
 3098              		@ sp needed
 3099 000e 5DF8047B 		ldr	r7, [sp], #4
 3100 0012 7047     		bx	lr
 3102              		.section	.text.HAL_RTCEx_PollForAlarmBEvent,"ax",%progbits
 3103              		.align	1
 3104              		.global	HAL_RTCEx_PollForAlarmBEvent
 3105              		.syntax unified
 3106              		.thumb
 3107              		.thumb_func
 3109              	HAL_RTCEx_PollForAlarmBEvent:
 3110              		@ args = 0, pretend = 0, frame = 16
 3111              		@ frame_needed = 1, uses_anonymous_args = 0
 3112 0000 80B5     		push	{r7, lr}
 3113 0002 84B0     		sub	sp, sp, #16
 3114 0004 00AF     		add	r7, sp, #0
 3115 0006 7860     		str	r0, [r7, #4]
 3116 0008 3960     		str	r1, [r7]
 3117 000a 0023     		movs	r3, #0
 3118 000c FB60     		str	r3, [r7, #12]
 3119 000e FFF7FEFF 		bl	HAL_GetTick
 3120 0012 F860     		str	r0, [r7, #12]
 3121 0014 13E0     		b	.L192
 3122              	.L195:
 3123 0016 3B68     		ldr	r3, [r7]
 3124 0018 B3F1FF3F 		cmp	r3, #-1
 3125 001c 0FD0     		beq	.L192
 3126 001e 3B68     		ldr	r3, [r7]
 3127 0020 002B     		cmp	r3, #0
 3128 0022 07D0     		beq	.L193
 3129 0024 FFF7FEFF 		bl	HAL_GetTick
 3130 0028 0246     		mov	r2, r0
 3131 002a FB68     		ldr	r3, [r7, #12]
 3132 002c D31A     		subs	r3, r2, r3
 3133 002e 3A68     		ldr	r2, [r7]
 3134 0030 9A42     		cmp	r2, r3
 3135 0032 04D2     		bcs	.L192
 3136              	.L193:
 3137 0034 7B68     		ldr	r3, [r7, #4]
 3138 0036 0322     		movs	r2, #3
 3139 0038 5A77     		strb	r2, [r3, #29]
 3140 003a 0323     		movs	r3, #3
 3141 003c 13E0     		b	.L194
 3142              	.L192:
 3143 003e 7B68     		ldr	r3, [r7, #4]
 3144 0040 1B68     		ldr	r3, [r3]
 3145 0042 DB68     		ldr	r3, [r3, #12]
 3146 0044 03F40073 		and	r3, r3, #512
 3147 0048 002B     		cmp	r3, #0
 3148 004a E4D0     		beq	.L195
 3149 004c 7B68     		ldr	r3, [r7, #4]
 3150 004e 1B68     		ldr	r3, [r3]
 3151 0050 DB68     		ldr	r3, [r3, #12]
ARM GAS  C:\msys64\tmp\ccDI7K0i.s 			page 55


 3152 0052 DAB2     		uxtb	r2, r3
 3153 0054 7B68     		ldr	r3, [r7, #4]
 3154 0056 1B68     		ldr	r3, [r3]
 3155 0058 62F42072 		orn	r2, r2, #640
 3156 005c DA60     		str	r2, [r3, #12]
 3157 005e 7B68     		ldr	r3, [r7, #4]
 3158 0060 0122     		movs	r2, #1
 3159 0062 5A77     		strb	r2, [r3, #29]
 3160 0064 0023     		movs	r3, #0
 3161              	.L194:
 3162 0066 1846     		mov	r0, r3
 3163 0068 1037     		adds	r7, r7, #16
 3164 006a BD46     		mov	sp, r7
 3165              		@ sp needed
 3166 006c 80BD     		pop	{r7, pc}
 3168              		.ident	"GCC: (GNU) 13.3.0"
ARM GAS  C:\msys64\tmp\ccDI7K0i.s 			page 56

