ARM GAS  C:\msys64\tmp\ccXyuxUj.s 			page 1


   1              		.cpu cortex-m7
   2              		.arch armv7e-m
   3              		.fpu fpv5-sp-d16
   4              		.eabi_attribute 27, 1
   5              		.eabi_attribute 28, 1
   6              		.eabi_attribute 20, 1
   7              		.eabi_attribute 21, 1
   8              		.eabi_attribute 23, 3
   9              		.eabi_attribute 24, 1
  10              		.eabi_attribute 25, 1
  11              		.eabi_attribute 26, 1
  12              		.eabi_attribute 30, 6
  13              		.eabi_attribute 34, 1
  14              		.eabi_attribute 18, 4
  15              		.file	"stm32f7xx_hal_uart.c"
  16              		.text
  17              		.section	.text.HAL_UART_Init,"ax",%progbits
  18              		.align	1
  19              		.global	HAL_UART_Init
  20              		.syntax unified
  21              		.thumb
  22              		.thumb_func
  24              	HAL_UART_Init:
  25              		@ args = 0, pretend = 0, frame = 8
  26              		@ frame_needed = 1, uses_anonymous_args = 0
  27 0000 80B5     		push	{r7, lr}
  28 0002 82B0     		sub	sp, sp, #8
  29 0004 00AF     		add	r7, sp, #0
  30 0006 7860     		str	r0, [r7, #4]
  31 0008 7B68     		ldr	r3, [r7, #4]
  32 000a 002B     		cmp	r3, #0
  33 000c 01D1     		bne	.L2
  34 000e 0123     		movs	r3, #1
  35 0010 40E0     		b	.L3
  36              	.L2:
  37 0012 7B68     		ldr	r3, [r7, #4]
  38 0014 DB6F     		ldr	r3, [r3, #124]
  39 0016 002B     		cmp	r3, #0
  40 0018 06D1     		bne	.L4
  41 001a 7B68     		ldr	r3, [r7, #4]
  42 001c 0022     		movs	r2, #0
  43 001e 83F87820 		strb	r2, [r3, #120]
  44 0022 7868     		ldr	r0, [r7, #4]
  45 0024 FFF7FEFF 		bl	HAL_UART_MspInit
  46              	.L4:
  47 0028 7B68     		ldr	r3, [r7, #4]
  48 002a 2422     		movs	r2, #36
  49 002c DA67     		str	r2, [r3, #124]
  50 002e 7B68     		ldr	r3, [r7, #4]
  51 0030 1B68     		ldr	r3, [r3]
  52 0032 1A68     		ldr	r2, [r3]
  53 0034 7B68     		ldr	r3, [r7, #4]
  54 0036 1B68     		ldr	r3, [r3]
  55 0038 22F00102 		bic	r2, r2, #1
  56 003c 1A60     		str	r2, [r3]
  57 003e 7B68     		ldr	r3, [r7, #4]
  58 0040 5B6A     		ldr	r3, [r3, #36]
ARM GAS  C:\msys64\tmp\ccXyuxUj.s 			page 2


  59 0042 002B     		cmp	r3, #0
  60 0044 02D0     		beq	.L5
  61 0046 7868     		ldr	r0, [r7, #4]
  62 0048 FFF7FEFF 		bl	UART_AdvFeatureConfig
  63              	.L5:
  64 004c 7868     		ldr	r0, [r7, #4]
  65 004e FFF7FEFF 		bl	UART_SetConfig
  66 0052 0346     		mov	r3, r0
  67 0054 012B     		cmp	r3, #1
  68 0056 01D1     		bne	.L6
  69 0058 0123     		movs	r3, #1
  70 005a 1BE0     		b	.L3
  71              	.L6:
  72 005c 7B68     		ldr	r3, [r7, #4]
  73 005e 1B68     		ldr	r3, [r3]
  74 0060 5A68     		ldr	r2, [r3, #4]
  75 0062 7B68     		ldr	r3, [r7, #4]
  76 0064 1B68     		ldr	r3, [r3]
  77 0066 22F49042 		bic	r2, r2, #18432
  78 006a 5A60     		str	r2, [r3, #4]
  79 006c 7B68     		ldr	r3, [r7, #4]
  80 006e 1B68     		ldr	r3, [r3]
  81 0070 9A68     		ldr	r2, [r3, #8]
  82 0072 7B68     		ldr	r3, [r7, #4]
  83 0074 1B68     		ldr	r3, [r3]
  84 0076 22F02A02 		bic	r2, r2, #42
  85 007a 9A60     		str	r2, [r3, #8]
  86 007c 7B68     		ldr	r3, [r7, #4]
  87 007e 1B68     		ldr	r3, [r3]
  88 0080 1A68     		ldr	r2, [r3]
  89 0082 7B68     		ldr	r3, [r7, #4]
  90 0084 1B68     		ldr	r3, [r3]
  91 0086 42F00102 		orr	r2, r2, #1
  92 008a 1A60     		str	r2, [r3]
  93 008c 7868     		ldr	r0, [r7, #4]
  94 008e FFF7FEFF 		bl	UART_CheckIdleState
  95 0092 0346     		mov	r3, r0
  96              	.L3:
  97 0094 1846     		mov	r0, r3
  98 0096 0837     		adds	r7, r7, #8
  99 0098 BD46     		mov	sp, r7
 100              		@ sp needed
 101 009a 80BD     		pop	{r7, pc}
 103              		.section	.text.HAL_HalfDuplex_Init,"ax",%progbits
 104              		.align	1
 105              		.global	HAL_HalfDuplex_Init
 106              		.syntax unified
 107              		.thumb
 108              		.thumb_func
 110              	HAL_HalfDuplex_Init:
 111              		@ args = 0, pretend = 0, frame = 8
 112              		@ frame_needed = 1, uses_anonymous_args = 0
 113 0000 80B5     		push	{r7, lr}
 114 0002 82B0     		sub	sp, sp, #8
 115 0004 00AF     		add	r7, sp, #0
 116 0006 7860     		str	r0, [r7, #4]
 117 0008 7B68     		ldr	r3, [r7, #4]
ARM GAS  C:\msys64\tmp\ccXyuxUj.s 			page 3


 118 000a 002B     		cmp	r3, #0
 119 000c 01D1     		bne	.L8
 120 000e 0123     		movs	r3, #1
 121 0010 48E0     		b	.L9
 122              	.L8:
 123 0012 7B68     		ldr	r3, [r7, #4]
 124 0014 DB6F     		ldr	r3, [r3, #124]
 125 0016 002B     		cmp	r3, #0
 126 0018 06D1     		bne	.L10
 127 001a 7B68     		ldr	r3, [r7, #4]
 128 001c 0022     		movs	r2, #0
 129 001e 83F87820 		strb	r2, [r3, #120]
 130 0022 7868     		ldr	r0, [r7, #4]
 131 0024 FFF7FEFF 		bl	HAL_UART_MspInit
 132              	.L10:
 133 0028 7B68     		ldr	r3, [r7, #4]
 134 002a 2422     		movs	r2, #36
 135 002c DA67     		str	r2, [r3, #124]
 136 002e 7B68     		ldr	r3, [r7, #4]
 137 0030 1B68     		ldr	r3, [r3]
 138 0032 1A68     		ldr	r2, [r3]
 139 0034 7B68     		ldr	r3, [r7, #4]
 140 0036 1B68     		ldr	r3, [r3]
 141 0038 22F00102 		bic	r2, r2, #1
 142 003c 1A60     		str	r2, [r3]
 143 003e 7B68     		ldr	r3, [r7, #4]
 144 0040 5B6A     		ldr	r3, [r3, #36]
 145 0042 002B     		cmp	r3, #0
 146 0044 02D0     		beq	.L11
 147 0046 7868     		ldr	r0, [r7, #4]
 148 0048 FFF7FEFF 		bl	UART_AdvFeatureConfig
 149              	.L11:
 150 004c 7868     		ldr	r0, [r7, #4]
 151 004e FFF7FEFF 		bl	UART_SetConfig
 152 0052 0346     		mov	r3, r0
 153 0054 012B     		cmp	r3, #1
 154 0056 01D1     		bne	.L12
 155 0058 0123     		movs	r3, #1
 156 005a 23E0     		b	.L9
 157              	.L12:
 158 005c 7B68     		ldr	r3, [r7, #4]
 159 005e 1B68     		ldr	r3, [r3]
 160 0060 5A68     		ldr	r2, [r3, #4]
 161 0062 7B68     		ldr	r3, [r7, #4]
 162 0064 1B68     		ldr	r3, [r3]
 163 0066 22F49042 		bic	r2, r2, #18432
 164 006a 5A60     		str	r2, [r3, #4]
 165 006c 7B68     		ldr	r3, [r7, #4]
 166 006e 1B68     		ldr	r3, [r3]
 167 0070 9A68     		ldr	r2, [r3, #8]
 168 0072 7B68     		ldr	r3, [r7, #4]
 169 0074 1B68     		ldr	r3, [r3]
 170 0076 22F02202 		bic	r2, r2, #34
 171 007a 9A60     		str	r2, [r3, #8]
 172 007c 7B68     		ldr	r3, [r7, #4]
 173 007e 1B68     		ldr	r3, [r3]
 174 0080 9A68     		ldr	r2, [r3, #8]
ARM GAS  C:\msys64\tmp\ccXyuxUj.s 			page 4


 175 0082 7B68     		ldr	r3, [r7, #4]
 176 0084 1B68     		ldr	r3, [r3]
 177 0086 42F00802 		orr	r2, r2, #8
 178 008a 9A60     		str	r2, [r3, #8]
 179 008c 7B68     		ldr	r3, [r7, #4]
 180 008e 1B68     		ldr	r3, [r3]
 181 0090 1A68     		ldr	r2, [r3]
 182 0092 7B68     		ldr	r3, [r7, #4]
 183 0094 1B68     		ldr	r3, [r3]
 184 0096 42F00102 		orr	r2, r2, #1
 185 009a 1A60     		str	r2, [r3]
 186 009c 7868     		ldr	r0, [r7, #4]
 187 009e FFF7FEFF 		bl	UART_CheckIdleState
 188 00a2 0346     		mov	r3, r0
 189              	.L9:
 190 00a4 1846     		mov	r0, r3
 191 00a6 0837     		adds	r7, r7, #8
 192 00a8 BD46     		mov	sp, r7
 193              		@ sp needed
 194 00aa 80BD     		pop	{r7, pc}
 196              		.section	.text.HAL_LIN_Init,"ax",%progbits
 197              		.align	1
 198              		.global	HAL_LIN_Init
 199              		.syntax unified
 200              		.thumb
 201              		.thumb_func
 203              	HAL_LIN_Init:
 204              		@ args = 0, pretend = 0, frame = 8
 205              		@ frame_needed = 1, uses_anonymous_args = 0
 206 0000 80B5     		push	{r7, lr}
 207 0002 82B0     		sub	sp, sp, #8
 208 0004 00AF     		add	r7, sp, #0
 209 0006 7860     		str	r0, [r7, #4]
 210 0008 3960     		str	r1, [r7]
 211 000a 7B68     		ldr	r3, [r7, #4]
 212 000c 002B     		cmp	r3, #0
 213 000e 01D1     		bne	.L14
 214 0010 0123     		movs	r3, #1
 215 0012 5FE0     		b	.L15
 216              	.L14:
 217 0014 7B68     		ldr	r3, [r7, #4]
 218 0016 DB69     		ldr	r3, [r3, #28]
 219 0018 B3F5004F 		cmp	r3, #32768
 220 001c 01D1     		bne	.L16
 221 001e 0123     		movs	r3, #1
 222 0020 58E0     		b	.L15
 223              	.L16:
 224 0022 7B68     		ldr	r3, [r7, #4]
 225 0024 9B68     		ldr	r3, [r3, #8]
 226 0026 002B     		cmp	r3, #0
 227 0028 01D0     		beq	.L17
 228 002a 0123     		movs	r3, #1
 229 002c 52E0     		b	.L15
 230              	.L17:
 231 002e 7B68     		ldr	r3, [r7, #4]
 232 0030 DB6F     		ldr	r3, [r3, #124]
 233 0032 002B     		cmp	r3, #0
ARM GAS  C:\msys64\tmp\ccXyuxUj.s 			page 5


 234 0034 06D1     		bne	.L18
 235 0036 7B68     		ldr	r3, [r7, #4]
 236 0038 0022     		movs	r2, #0
 237 003a 83F87820 		strb	r2, [r3, #120]
 238 003e 7868     		ldr	r0, [r7, #4]
 239 0040 FFF7FEFF 		bl	HAL_UART_MspInit
 240              	.L18:
 241 0044 7B68     		ldr	r3, [r7, #4]
 242 0046 2422     		movs	r2, #36
 243 0048 DA67     		str	r2, [r3, #124]
 244 004a 7B68     		ldr	r3, [r7, #4]
 245 004c 1B68     		ldr	r3, [r3]
 246 004e 1A68     		ldr	r2, [r3]
 247 0050 7B68     		ldr	r3, [r7, #4]
 248 0052 1B68     		ldr	r3, [r3]
 249 0054 22F00102 		bic	r2, r2, #1
 250 0058 1A60     		str	r2, [r3]
 251 005a 7B68     		ldr	r3, [r7, #4]
 252 005c 5B6A     		ldr	r3, [r3, #36]
 253 005e 002B     		cmp	r3, #0
 254 0060 02D0     		beq	.L19
 255 0062 7868     		ldr	r0, [r7, #4]
 256 0064 FFF7FEFF 		bl	UART_AdvFeatureConfig
 257              	.L19:
 258 0068 7868     		ldr	r0, [r7, #4]
 259 006a FFF7FEFF 		bl	UART_SetConfig
 260 006e 0346     		mov	r3, r0
 261 0070 012B     		cmp	r3, #1
 262 0072 01D1     		bne	.L20
 263 0074 0123     		movs	r3, #1
 264 0076 2DE0     		b	.L15
 265              	.L20:
 266 0078 7B68     		ldr	r3, [r7, #4]
 267 007a 1B68     		ldr	r3, [r3]
 268 007c 5A68     		ldr	r2, [r3, #4]
 269 007e 7B68     		ldr	r3, [r7, #4]
 270 0080 1B68     		ldr	r3, [r3]
 271 0082 22F40062 		bic	r2, r2, #2048
 272 0086 5A60     		str	r2, [r3, #4]
 273 0088 7B68     		ldr	r3, [r7, #4]
 274 008a 1B68     		ldr	r3, [r3]
 275 008c 9A68     		ldr	r2, [r3, #8]
 276 008e 7B68     		ldr	r3, [r7, #4]
 277 0090 1B68     		ldr	r3, [r3]
 278 0092 22F02A02 		bic	r2, r2, #42
 279 0096 9A60     		str	r2, [r3, #8]
 280 0098 7B68     		ldr	r3, [r7, #4]
 281 009a 1B68     		ldr	r3, [r3]
 282 009c 5A68     		ldr	r2, [r3, #4]
 283 009e 7B68     		ldr	r3, [r7, #4]
 284 00a0 1B68     		ldr	r3, [r3]
 285 00a2 42F48042 		orr	r2, r2, #16384
 286 00a6 5A60     		str	r2, [r3, #4]
 287 00a8 7B68     		ldr	r3, [r7, #4]
 288 00aa 1B68     		ldr	r3, [r3]
 289 00ac 5B68     		ldr	r3, [r3, #4]
 290 00ae 23F02001 		bic	r1, r3, #32
ARM GAS  C:\msys64\tmp\ccXyuxUj.s 			page 6


 291 00b2 7B68     		ldr	r3, [r7, #4]
 292 00b4 1B68     		ldr	r3, [r3]
 293 00b6 3A68     		ldr	r2, [r7]
 294 00b8 0A43     		orrs	r2, r2, r1
 295 00ba 5A60     		str	r2, [r3, #4]
 296 00bc 7B68     		ldr	r3, [r7, #4]
 297 00be 1B68     		ldr	r3, [r3]
 298 00c0 1A68     		ldr	r2, [r3]
 299 00c2 7B68     		ldr	r3, [r7, #4]
 300 00c4 1B68     		ldr	r3, [r3]
 301 00c6 42F00102 		orr	r2, r2, #1
 302 00ca 1A60     		str	r2, [r3]
 303 00cc 7868     		ldr	r0, [r7, #4]
 304 00ce FFF7FEFF 		bl	UART_CheckIdleState
 305 00d2 0346     		mov	r3, r0
 306              	.L15:
 307 00d4 1846     		mov	r0, r3
 308 00d6 0837     		adds	r7, r7, #8
 309 00d8 BD46     		mov	sp, r7
 310              		@ sp needed
 311 00da 80BD     		pop	{r7, pc}
 313              		.section	.text.HAL_MultiProcessor_Init,"ax",%progbits
 314              		.align	1
 315              		.global	HAL_MultiProcessor_Init
 316              		.syntax unified
 317              		.thumb
 318              		.thumb_func
 320              	HAL_MultiProcessor_Init:
 321              		@ args = 0, pretend = 0, frame = 16
 322              		@ frame_needed = 1, uses_anonymous_args = 0
 323 0000 80B5     		push	{r7, lr}
 324 0002 84B0     		sub	sp, sp, #16
 325 0004 00AF     		add	r7, sp, #0
 326 0006 F860     		str	r0, [r7, #12]
 327 0008 0B46     		mov	r3, r1
 328 000a 7A60     		str	r2, [r7, #4]
 329 000c FB72     		strb	r3, [r7, #11]
 330 000e FB68     		ldr	r3, [r7, #12]
 331 0010 002B     		cmp	r3, #0
 332 0012 01D1     		bne	.L22
 333 0014 0123     		movs	r3, #1
 334 0016 59E0     		b	.L23
 335              	.L22:
 336 0018 FB68     		ldr	r3, [r7, #12]
 337 001a DB6F     		ldr	r3, [r3, #124]
 338 001c 002B     		cmp	r3, #0
 339 001e 06D1     		bne	.L24
 340 0020 FB68     		ldr	r3, [r7, #12]
 341 0022 0022     		movs	r2, #0
 342 0024 83F87820 		strb	r2, [r3, #120]
 343 0028 F868     		ldr	r0, [r7, #12]
 344 002a FFF7FEFF 		bl	HAL_UART_MspInit
 345              	.L24:
 346 002e FB68     		ldr	r3, [r7, #12]
 347 0030 2422     		movs	r2, #36
 348 0032 DA67     		str	r2, [r3, #124]
 349 0034 FB68     		ldr	r3, [r7, #12]
ARM GAS  C:\msys64\tmp\ccXyuxUj.s 			page 7


 350 0036 1B68     		ldr	r3, [r3]
 351 0038 1A68     		ldr	r2, [r3]
 352 003a FB68     		ldr	r3, [r7, #12]
 353 003c 1B68     		ldr	r3, [r3]
 354 003e 22F00102 		bic	r2, r2, #1
 355 0042 1A60     		str	r2, [r3]
 356 0044 FB68     		ldr	r3, [r7, #12]
 357 0046 5B6A     		ldr	r3, [r3, #36]
 358 0048 002B     		cmp	r3, #0
 359 004a 02D0     		beq	.L25
 360 004c F868     		ldr	r0, [r7, #12]
 361 004e FFF7FEFF 		bl	UART_AdvFeatureConfig
 362              	.L25:
 363 0052 F868     		ldr	r0, [r7, #12]
 364 0054 FFF7FEFF 		bl	UART_SetConfig
 365 0058 0346     		mov	r3, r0
 366 005a 012B     		cmp	r3, #1
 367 005c 01D1     		bne	.L26
 368 005e 0123     		movs	r3, #1
 369 0060 34E0     		b	.L23
 370              	.L26:
 371 0062 FB68     		ldr	r3, [r7, #12]
 372 0064 1B68     		ldr	r3, [r3]
 373 0066 5A68     		ldr	r2, [r3, #4]
 374 0068 FB68     		ldr	r3, [r7, #12]
 375 006a 1B68     		ldr	r3, [r3]
 376 006c 22F49042 		bic	r2, r2, #18432
 377 0070 5A60     		str	r2, [r3, #4]
 378 0072 FB68     		ldr	r3, [r7, #12]
 379 0074 1B68     		ldr	r3, [r3]
 380 0076 9A68     		ldr	r2, [r3, #8]
 381 0078 FB68     		ldr	r3, [r7, #12]
 382 007a 1B68     		ldr	r3, [r3]
 383 007c 22F02A02 		bic	r2, r2, #42
 384 0080 9A60     		str	r2, [r3, #8]
 385 0082 7B68     		ldr	r3, [r7, #4]
 386 0084 B3F5006F 		cmp	r3, #2048
 387 0088 0AD1     		bne	.L27
 388 008a FB68     		ldr	r3, [r7, #12]
 389 008c 1B68     		ldr	r3, [r3]
 390 008e 5B68     		ldr	r3, [r3, #4]
 391 0090 23F07F41 		bic	r1, r3, #-16777216
 392 0094 FB7A     		ldrb	r3, [r7, #11]	@ zero_extendqisi2
 393 0096 1A06     		lsls	r2, r3, #24
 394 0098 FB68     		ldr	r3, [r7, #12]
 395 009a 1B68     		ldr	r3, [r3]
 396 009c 0A43     		orrs	r2, r2, r1
 397 009e 5A60     		str	r2, [r3, #4]
 398              	.L27:
 399 00a0 FB68     		ldr	r3, [r7, #12]
 400 00a2 1B68     		ldr	r3, [r3]
 401 00a4 1B68     		ldr	r3, [r3]
 402 00a6 23F40061 		bic	r1, r3, #2048
 403 00aa FB68     		ldr	r3, [r7, #12]
 404 00ac 1B68     		ldr	r3, [r3]
 405 00ae 7A68     		ldr	r2, [r7, #4]
 406 00b0 0A43     		orrs	r2, r2, r1
ARM GAS  C:\msys64\tmp\ccXyuxUj.s 			page 8


 407 00b2 1A60     		str	r2, [r3]
 408 00b4 FB68     		ldr	r3, [r7, #12]
 409 00b6 1B68     		ldr	r3, [r3]
 410 00b8 1A68     		ldr	r2, [r3]
 411 00ba FB68     		ldr	r3, [r7, #12]
 412 00bc 1B68     		ldr	r3, [r3]
 413 00be 42F00102 		orr	r2, r2, #1
 414 00c2 1A60     		str	r2, [r3]
 415 00c4 F868     		ldr	r0, [r7, #12]
 416 00c6 FFF7FEFF 		bl	UART_CheckIdleState
 417 00ca 0346     		mov	r3, r0
 418              	.L23:
 419 00cc 1846     		mov	r0, r3
 420 00ce 1037     		adds	r7, r7, #16
 421 00d0 BD46     		mov	sp, r7
 422              		@ sp needed
 423 00d2 80BD     		pop	{r7, pc}
 425              		.section	.text.HAL_UART_DeInit,"ax",%progbits
 426              		.align	1
 427              		.global	HAL_UART_DeInit
 428              		.syntax unified
 429              		.thumb
 430              		.thumb_func
 432              	HAL_UART_DeInit:
 433              		@ args = 0, pretend = 0, frame = 8
 434              		@ frame_needed = 1, uses_anonymous_args = 0
 435 0000 80B5     		push	{r7, lr}
 436 0002 82B0     		sub	sp, sp, #8
 437 0004 00AF     		add	r7, sp, #0
 438 0006 7860     		str	r0, [r7, #4]
 439 0008 7B68     		ldr	r3, [r7, #4]
 440 000a 002B     		cmp	r3, #0
 441 000c 01D1     		bne	.L29
 442 000e 0123     		movs	r3, #1
 443 0010 2FE0     		b	.L30
 444              	.L29:
 445 0012 7B68     		ldr	r3, [r7, #4]
 446 0014 2422     		movs	r2, #36
 447 0016 DA67     		str	r2, [r3, #124]
 448 0018 7B68     		ldr	r3, [r7, #4]
 449 001a 1B68     		ldr	r3, [r3]
 450 001c 1A68     		ldr	r2, [r3]
 451 001e 7B68     		ldr	r3, [r7, #4]
 452 0020 1B68     		ldr	r3, [r3]
 453 0022 22F00102 		bic	r2, r2, #1
 454 0026 1A60     		str	r2, [r3]
 455 0028 7B68     		ldr	r3, [r7, #4]
 456 002a 1B68     		ldr	r3, [r3]
 457 002c 0022     		movs	r2, #0
 458 002e 1A60     		str	r2, [r3]
 459 0030 7B68     		ldr	r3, [r7, #4]
 460 0032 1B68     		ldr	r3, [r3]
 461 0034 0022     		movs	r2, #0
 462 0036 5A60     		str	r2, [r3, #4]
 463 0038 7B68     		ldr	r3, [r7, #4]
 464 003a 1B68     		ldr	r3, [r3]
 465 003c 0022     		movs	r2, #0
ARM GAS  C:\msys64\tmp\ccXyuxUj.s 			page 9


 466 003e 9A60     		str	r2, [r3, #8]
 467 0040 7868     		ldr	r0, [r7, #4]
 468 0042 FFF7FEFF 		bl	HAL_UART_MspDeInit
 469 0046 7B68     		ldr	r3, [r7, #4]
 470 0048 0022     		movs	r2, #0
 471 004a C3F88420 		str	r2, [r3, #132]
 472 004e 7B68     		ldr	r3, [r7, #4]
 473 0050 0022     		movs	r2, #0
 474 0052 DA67     		str	r2, [r3, #124]
 475 0054 7B68     		ldr	r3, [r7, #4]
 476 0056 0022     		movs	r2, #0
 477 0058 C3F88020 		str	r2, [r3, #128]
 478 005c 7B68     		ldr	r3, [r7, #4]
 479 005e 0022     		movs	r2, #0
 480 0060 1A66     		str	r2, [r3, #96]
 481 0062 7B68     		ldr	r3, [r7, #4]
 482 0064 0022     		movs	r2, #0
 483 0066 5A66     		str	r2, [r3, #100]
 484 0068 7B68     		ldr	r3, [r7, #4]
 485 006a 0022     		movs	r2, #0
 486 006c 83F87820 		strb	r2, [r3, #120]
 487 0070 0023     		movs	r3, #0
 488              	.L30:
 489 0072 1846     		mov	r0, r3
 490 0074 0837     		adds	r7, r7, #8
 491 0076 BD46     		mov	sp, r7
 492              		@ sp needed
 493 0078 80BD     		pop	{r7, pc}
 495              		.section	.text.HAL_UART_MspInit,"ax",%progbits
 496              		.align	1
 497              		.weak	HAL_UART_MspInit
 498              		.syntax unified
 499              		.thumb
 500              		.thumb_func
 502              	HAL_UART_MspInit:
 503              		@ args = 0, pretend = 0, frame = 8
 504              		@ frame_needed = 1, uses_anonymous_args = 0
 505              		@ link register save eliminated.
 506 0000 80B4     		push	{r7}
 507 0002 83B0     		sub	sp, sp, #12
 508 0004 00AF     		add	r7, sp, #0
 509 0006 7860     		str	r0, [r7, #4]
 510 0008 00BF     		nop
 511 000a 0C37     		adds	r7, r7, #12
 512 000c BD46     		mov	sp, r7
 513              		@ sp needed
 514 000e 5DF8047B 		ldr	r7, [sp], #4
 515 0012 7047     		bx	lr
 517              		.section	.text.HAL_UART_MspDeInit,"ax",%progbits
 518              		.align	1
 519              		.weak	HAL_UART_MspDeInit
 520              		.syntax unified
 521              		.thumb
 522              		.thumb_func
 524              	HAL_UART_MspDeInit:
 525              		@ args = 0, pretend = 0, frame = 8
 526              		@ frame_needed = 1, uses_anonymous_args = 0
ARM GAS  C:\msys64\tmp\ccXyuxUj.s 			page 10


 527              		@ link register save eliminated.
 528 0000 80B4     		push	{r7}
 529 0002 83B0     		sub	sp, sp, #12
 530 0004 00AF     		add	r7, sp, #0
 531 0006 7860     		str	r0, [r7, #4]
 532 0008 00BF     		nop
 533 000a 0C37     		adds	r7, r7, #12
 534 000c BD46     		mov	sp, r7
 535              		@ sp needed
 536 000e 5DF8047B 		ldr	r7, [sp], #4
 537 0012 7047     		bx	lr
 539              		.section	.text.HAL_UART_Transmit,"ax",%progbits
 540              		.align	1
 541              		.global	HAL_UART_Transmit
 542              		.syntax unified
 543              		.thumb
 544              		.thumb_func
 546              	HAL_UART_Transmit:
 547              		@ args = 0, pretend = 0, frame = 32
 548              		@ frame_needed = 1, uses_anonymous_args = 0
 549 0000 80B5     		push	{r7, lr}
 550 0002 8AB0     		sub	sp, sp, #40
 551 0004 02AF     		add	r7, sp, #8
 552 0006 F860     		str	r0, [r7, #12]
 553 0008 B960     		str	r1, [r7, #8]
 554 000a 3B60     		str	r3, [r7]
 555 000c 1346     		mov	r3, r2	@ movhi
 556 000e FB80     		strh	r3, [r7, #6]	@ movhi
 557 0010 FB68     		ldr	r3, [r7, #12]
 558 0012 DB6F     		ldr	r3, [r3, #124]
 559 0014 202B     		cmp	r3, #32
 560 0016 77D1     		bne	.L34
 561 0018 BB68     		ldr	r3, [r7, #8]
 562 001a 002B     		cmp	r3, #0
 563 001c 02D0     		beq	.L35
 564 001e FB88     		ldrh	r3, [r7, #6]
 565 0020 002B     		cmp	r3, #0
 566 0022 01D1     		bne	.L36
 567              	.L35:
 568 0024 0123     		movs	r3, #1
 569 0026 70E0     		b	.L37
 570              	.L36:
 571 0028 FB68     		ldr	r3, [r7, #12]
 572 002a 0022     		movs	r2, #0
 573 002c C3F88420 		str	r2, [r3, #132]
 574 0030 FB68     		ldr	r3, [r7, #12]
 575 0032 2122     		movs	r2, #33
 576 0034 DA67     		str	r2, [r3, #124]
 577 0036 FFF7FEFF 		bl	HAL_GetTick
 578 003a 7861     		str	r0, [r7, #20]
 579 003c FB68     		ldr	r3, [r7, #12]
 580 003e FA88     		ldrh	r2, [r7, #6]	@ movhi
 581 0040 A3F85020 		strh	r2, [r3, #80]	@ movhi
 582 0044 FB68     		ldr	r3, [r7, #12]
 583 0046 FA88     		ldrh	r2, [r7, #6]	@ movhi
 584 0048 A3F85220 		strh	r2, [r3, #82]	@ movhi
 585 004c FB68     		ldr	r3, [r7, #12]
ARM GAS  C:\msys64\tmp\ccXyuxUj.s 			page 11


 586 004e 9B68     		ldr	r3, [r3, #8]
 587 0050 B3F5805F 		cmp	r3, #4096
 588 0054 08D1     		bne	.L38
 589 0056 FB68     		ldr	r3, [r7, #12]
 590 0058 1B69     		ldr	r3, [r3, #16]
 591 005a 002B     		cmp	r3, #0
 592 005c 04D1     		bne	.L38
 593 005e 0023     		movs	r3, #0
 594 0060 FB61     		str	r3, [r7, #28]
 595 0062 BB68     		ldr	r3, [r7, #8]
 596 0064 BB61     		str	r3, [r7, #24]
 597 0066 03E0     		b	.L39
 598              	.L38:
 599 0068 BB68     		ldr	r3, [r7, #8]
 600 006a FB61     		str	r3, [r7, #28]
 601 006c 0023     		movs	r3, #0
 602 006e BB61     		str	r3, [r7, #24]
 603              	.L39:
 604 0070 2FE0     		b	.L40
 605              	.L44:
 606 0072 3B68     		ldr	r3, [r7]
 607 0074 0093     		str	r3, [sp]
 608 0076 7B69     		ldr	r3, [r7, #20]
 609 0078 0022     		movs	r2, #0
 610 007a 8021     		movs	r1, #128
 611 007c F868     		ldr	r0, [r7, #12]
 612 007e FFF7FEFF 		bl	UART_WaitOnFlagUntilTimeout
 613 0082 0346     		mov	r3, r0
 614 0084 002B     		cmp	r3, #0
 615 0086 04D0     		beq	.L41
 616 0088 FB68     		ldr	r3, [r7, #12]
 617 008a 2022     		movs	r2, #32
 618 008c DA67     		str	r2, [r3, #124]
 619 008e 0323     		movs	r3, #3
 620 0090 3BE0     		b	.L37
 621              	.L41:
 622 0092 FB69     		ldr	r3, [r7, #28]
 623 0094 002B     		cmp	r3, #0
 624 0096 0BD1     		bne	.L42
 625 0098 BB69     		ldr	r3, [r7, #24]
 626 009a 1B88     		ldrh	r3, [r3]
 627 009c 1A46     		mov	r2, r3
 628 009e FB68     		ldr	r3, [r7, #12]
 629 00a0 1B68     		ldr	r3, [r3]
 630 00a2 C2F30802 		ubfx	r2, r2, #0, #9
 631 00a6 9A62     		str	r2, [r3, #40]
 632 00a8 BB69     		ldr	r3, [r7, #24]
 633 00aa 0233     		adds	r3, r3, #2
 634 00ac BB61     		str	r3, [r7, #24]
 635 00ae 07E0     		b	.L43
 636              	.L42:
 637 00b0 FB69     		ldr	r3, [r7, #28]
 638 00b2 1A78     		ldrb	r2, [r3]	@ zero_extendqisi2
 639 00b4 FB68     		ldr	r3, [r7, #12]
 640 00b6 1B68     		ldr	r3, [r3]
 641 00b8 9A62     		str	r2, [r3, #40]
 642 00ba FB69     		ldr	r3, [r7, #28]
ARM GAS  C:\msys64\tmp\ccXyuxUj.s 			page 12


 643 00bc 0133     		adds	r3, r3, #1
 644 00be FB61     		str	r3, [r7, #28]
 645              	.L43:
 646 00c0 FB68     		ldr	r3, [r7, #12]
 647 00c2 B3F85230 		ldrh	r3, [r3, #82]	@ movhi
 648 00c6 9BB2     		uxth	r3, r3
 649 00c8 013B     		subs	r3, r3, #1
 650 00ca 9AB2     		uxth	r2, r3
 651 00cc FB68     		ldr	r3, [r7, #12]
 652 00ce A3F85220 		strh	r2, [r3, #82]	@ movhi
 653              	.L40:
 654 00d2 FB68     		ldr	r3, [r7, #12]
 655 00d4 B3F85230 		ldrh	r3, [r3, #82]	@ movhi
 656 00d8 9BB2     		uxth	r3, r3
 657 00da 002B     		cmp	r3, #0
 658 00dc C9D1     		bne	.L44
 659 00de 3B68     		ldr	r3, [r7]
 660 00e0 0093     		str	r3, [sp]
 661 00e2 7B69     		ldr	r3, [r7, #20]
 662 00e4 0022     		movs	r2, #0
 663 00e6 4021     		movs	r1, #64
 664 00e8 F868     		ldr	r0, [r7, #12]
 665 00ea FFF7FEFF 		bl	UART_WaitOnFlagUntilTimeout
 666 00ee 0346     		mov	r3, r0
 667 00f0 002B     		cmp	r3, #0
 668 00f2 04D0     		beq	.L45
 669 00f4 FB68     		ldr	r3, [r7, #12]
 670 00f6 2022     		movs	r2, #32
 671 00f8 DA67     		str	r2, [r3, #124]
 672 00fa 0323     		movs	r3, #3
 673 00fc 05E0     		b	.L37
 674              	.L45:
 675 00fe FB68     		ldr	r3, [r7, #12]
 676 0100 2022     		movs	r2, #32
 677 0102 DA67     		str	r2, [r3, #124]
 678 0104 0023     		movs	r3, #0
 679 0106 00E0     		b	.L37
 680              	.L34:
 681 0108 0223     		movs	r3, #2
 682              	.L37:
 683 010a 1846     		mov	r0, r3
 684 010c 2037     		adds	r7, r7, #32
 685 010e BD46     		mov	sp, r7
 686              		@ sp needed
 687 0110 80BD     		pop	{r7, pc}
 689              		.section	.text.HAL_UART_Receive,"ax",%progbits
 690              		.align	1
 691              		.global	HAL_UART_Receive
 692              		.syntax unified
 693              		.thumb
 694              		.thumb_func
 696              	HAL_UART_Receive:
 697              		@ args = 0, pretend = 0, frame = 32
 698              		@ frame_needed = 1, uses_anonymous_args = 0
 699 0000 80B5     		push	{r7, lr}
 700 0002 8AB0     		sub	sp, sp, #40
 701 0004 02AF     		add	r7, sp, #8
ARM GAS  C:\msys64\tmp\ccXyuxUj.s 			page 13


 702 0006 F860     		str	r0, [r7, #12]
 703 0008 B960     		str	r1, [r7, #8]
 704 000a 3B60     		str	r3, [r7]
 705 000c 1346     		mov	r3, r2	@ movhi
 706 000e FB80     		strh	r3, [r7, #6]	@ movhi
 707 0010 FB68     		ldr	r3, [r7, #12]
 708 0012 D3F88030 		ldr	r3, [r3, #128]
 709 0016 202B     		cmp	r3, #32
 710 0018 40F0B580 		bne	.L47
 711 001c BB68     		ldr	r3, [r7, #8]
 712 001e 002B     		cmp	r3, #0
 713 0020 02D0     		beq	.L48
 714 0022 FB88     		ldrh	r3, [r7, #6]
 715 0024 002B     		cmp	r3, #0
 716 0026 01D1     		bne	.L49
 717              	.L48:
 718 0028 0123     		movs	r3, #1
 719 002a ADE0     		b	.L50
 720              	.L49:
 721 002c FB68     		ldr	r3, [r7, #12]
 722 002e 0022     		movs	r2, #0
 723 0030 C3F88420 		str	r2, [r3, #132]
 724 0034 FB68     		ldr	r3, [r7, #12]
 725 0036 2222     		movs	r2, #34
 726 0038 C3F88020 		str	r2, [r3, #128]
 727 003c FB68     		ldr	r3, [r7, #12]
 728 003e 0022     		movs	r2, #0
 729 0040 1A66     		str	r2, [r3, #96]
 730 0042 FFF7FEFF 		bl	HAL_GetTick
 731 0046 7861     		str	r0, [r7, #20]
 732 0048 FB68     		ldr	r3, [r7, #12]
 733 004a FA88     		ldrh	r2, [r7, #6]	@ movhi
 734 004c A3F85820 		strh	r2, [r3, #88]	@ movhi
 735 0050 FB68     		ldr	r3, [r7, #12]
 736 0052 FA88     		ldrh	r2, [r7, #6]	@ movhi
 737 0054 A3F85A20 		strh	r2, [r3, #90]	@ movhi
 738 0058 FB68     		ldr	r3, [r7, #12]
 739 005a 9B68     		ldr	r3, [r3, #8]
 740 005c B3F5805F 		cmp	r3, #4096
 741 0060 0ED1     		bne	.L51
 742 0062 FB68     		ldr	r3, [r7, #12]
 743 0064 1B69     		ldr	r3, [r3, #16]
 744 0066 002B     		cmp	r3, #0
 745 0068 05D1     		bne	.L52
 746 006a FB68     		ldr	r3, [r7, #12]
 747 006c 40F2FF12 		movw	r2, #511
 748 0070 A3F85C20 		strh	r2, [r3, #92]	@ movhi
 749 0074 2DE0     		b	.L53
 750              	.L52:
 751 0076 FB68     		ldr	r3, [r7, #12]
 752 0078 FF22     		movs	r2, #255
 753 007a A3F85C20 		strh	r2, [r3, #92]	@ movhi
 754 007e 28E0     		b	.L53
 755              	.L51:
 756 0080 FB68     		ldr	r3, [r7, #12]
 757 0082 9B68     		ldr	r3, [r3, #8]
 758 0084 002B     		cmp	r3, #0
ARM GAS  C:\msys64\tmp\ccXyuxUj.s 			page 14


 759 0086 0DD1     		bne	.L54
 760 0088 FB68     		ldr	r3, [r7, #12]
 761 008a 1B69     		ldr	r3, [r3, #16]
 762 008c 002B     		cmp	r3, #0
 763 008e 04D1     		bne	.L55
 764 0090 FB68     		ldr	r3, [r7, #12]
 765 0092 FF22     		movs	r2, #255
 766 0094 A3F85C20 		strh	r2, [r3, #92]	@ movhi
 767 0098 1BE0     		b	.L53
 768              	.L55:
 769 009a FB68     		ldr	r3, [r7, #12]
 770 009c 7F22     		movs	r2, #127
 771 009e A3F85C20 		strh	r2, [r3, #92]	@ movhi
 772 00a2 16E0     		b	.L53
 773              	.L54:
 774 00a4 FB68     		ldr	r3, [r7, #12]
 775 00a6 9B68     		ldr	r3, [r3, #8]
 776 00a8 B3F1805F 		cmp	r3, #268435456
 777 00ac 0DD1     		bne	.L56
 778 00ae FB68     		ldr	r3, [r7, #12]
 779 00b0 1B69     		ldr	r3, [r3, #16]
 780 00b2 002B     		cmp	r3, #0
 781 00b4 04D1     		bne	.L57
 782 00b6 FB68     		ldr	r3, [r7, #12]
 783 00b8 7F22     		movs	r2, #127
 784 00ba A3F85C20 		strh	r2, [r3, #92]	@ movhi
 785 00be 08E0     		b	.L53
 786              	.L57:
 787 00c0 FB68     		ldr	r3, [r7, #12]
 788 00c2 3F22     		movs	r2, #63
 789 00c4 A3F85C20 		strh	r2, [r3, #92]	@ movhi
 790 00c8 03E0     		b	.L53
 791              	.L56:
 792 00ca FB68     		ldr	r3, [r7, #12]
 793 00cc 0022     		movs	r2, #0
 794 00ce A3F85C20 		strh	r2, [r3, #92]	@ movhi
 795              	.L53:
 796 00d2 FB68     		ldr	r3, [r7, #12]
 797 00d4 B3F85C30 		ldrh	r3, [r3, #92]	@ movhi
 798 00d8 7B82     		strh	r3, [r7, #18]	@ movhi
 799 00da FB68     		ldr	r3, [r7, #12]
 800 00dc 9B68     		ldr	r3, [r3, #8]
 801 00de B3F5805F 		cmp	r3, #4096
 802 00e2 08D1     		bne	.L58
 803 00e4 FB68     		ldr	r3, [r7, #12]
 804 00e6 1B69     		ldr	r3, [r3, #16]
 805 00e8 002B     		cmp	r3, #0
 806 00ea 04D1     		bne	.L58
 807 00ec 0023     		movs	r3, #0
 808 00ee FB61     		str	r3, [r7, #28]
 809 00f0 BB68     		ldr	r3, [r7, #8]
 810 00f2 BB61     		str	r3, [r7, #24]
 811 00f4 03E0     		b	.L59
 812              	.L58:
 813 00f6 BB68     		ldr	r3, [r7, #8]
 814 00f8 FB61     		str	r3, [r7, #28]
 815 00fa 0023     		movs	r3, #0
ARM GAS  C:\msys64\tmp\ccXyuxUj.s 			page 15


 816 00fc BB61     		str	r3, [r7, #24]
 817              	.L59:
 818 00fe 36E0     		b	.L60
 819              	.L64:
 820 0100 3B68     		ldr	r3, [r7]
 821 0102 0093     		str	r3, [sp]
 822 0104 7B69     		ldr	r3, [r7, #20]
 823 0106 0022     		movs	r2, #0
 824 0108 2021     		movs	r1, #32
 825 010a F868     		ldr	r0, [r7, #12]
 826 010c FFF7FEFF 		bl	UART_WaitOnFlagUntilTimeout
 827 0110 0346     		mov	r3, r0
 828 0112 002B     		cmp	r3, #0
 829 0114 05D0     		beq	.L61
 830 0116 FB68     		ldr	r3, [r7, #12]
 831 0118 2022     		movs	r2, #32
 832 011a C3F88020 		str	r2, [r3, #128]
 833 011e 0323     		movs	r3, #3
 834 0120 32E0     		b	.L50
 835              	.L61:
 836 0122 FB69     		ldr	r3, [r7, #28]
 837 0124 002B     		cmp	r3, #0
 838 0126 0CD1     		bne	.L62
 839 0128 FB68     		ldr	r3, [r7, #12]
 840 012a 1B68     		ldr	r3, [r3]
 841 012c 5B6A     		ldr	r3, [r3, #36]
 842 012e 9AB2     		uxth	r2, r3
 843 0130 7B8A     		ldrh	r3, [r7, #18]	@ movhi
 844 0132 1340     		ands	r3, r3, r2
 845 0134 9AB2     		uxth	r2, r3
 846 0136 BB69     		ldr	r3, [r7, #24]
 847 0138 1A80     		strh	r2, [r3]	@ movhi
 848 013a BB69     		ldr	r3, [r7, #24]
 849 013c 0233     		adds	r3, r3, #2
 850 013e BB61     		str	r3, [r7, #24]
 851 0140 0CE0     		b	.L63
 852              	.L62:
 853 0142 FB68     		ldr	r3, [r7, #12]
 854 0144 1B68     		ldr	r3, [r3]
 855 0146 5B6A     		ldr	r3, [r3, #36]
 856 0148 DAB2     		uxtb	r2, r3
 857 014a 7B8A     		ldrh	r3, [r7, #18]	@ movhi
 858 014c DBB2     		uxtb	r3, r3
 859 014e 1340     		ands	r3, r3, r2
 860 0150 DAB2     		uxtb	r2, r3
 861 0152 FB69     		ldr	r3, [r7, #28]
 862 0154 1A70     		strb	r2, [r3]
 863 0156 FB69     		ldr	r3, [r7, #28]
 864 0158 0133     		adds	r3, r3, #1
 865 015a FB61     		str	r3, [r7, #28]
 866              	.L63:
 867 015c FB68     		ldr	r3, [r7, #12]
 868 015e B3F85A30 		ldrh	r3, [r3, #90]	@ movhi
 869 0162 9BB2     		uxth	r3, r3
 870 0164 013B     		subs	r3, r3, #1
 871 0166 9AB2     		uxth	r2, r3
 872 0168 FB68     		ldr	r3, [r7, #12]
ARM GAS  C:\msys64\tmp\ccXyuxUj.s 			page 16


 873 016a A3F85A20 		strh	r2, [r3, #90]	@ movhi
 874              	.L60:
 875 016e FB68     		ldr	r3, [r7, #12]
 876 0170 B3F85A30 		ldrh	r3, [r3, #90]	@ movhi
 877 0174 9BB2     		uxth	r3, r3
 878 0176 002B     		cmp	r3, #0
 879 0178 C2D1     		bne	.L64
 880 017a FB68     		ldr	r3, [r7, #12]
 881 017c 2022     		movs	r2, #32
 882 017e C3F88020 		str	r2, [r3, #128]
 883 0182 0023     		movs	r3, #0
 884 0184 00E0     		b	.L50
 885              	.L47:
 886 0186 0223     		movs	r3, #2
 887              	.L50:
 888 0188 1846     		mov	r0, r3
 889 018a 2037     		adds	r7, r7, #32
 890 018c BD46     		mov	sp, r7
 891              		@ sp needed
 892 018e 80BD     		pop	{r7, pc}
 894              		.section	.text.HAL_UART_Transmit_IT,"ax",%progbits
 895              		.align	1
 896              		.global	HAL_UART_Transmit_IT
 897              		.syntax unified
 898              		.thumb
 899              		.thumb_func
 901              	HAL_UART_Transmit_IT:
 902              		@ args = 0, pretend = 0, frame = 40
 903              		@ frame_needed = 1, uses_anonymous_args = 0
 904              		@ link register save eliminated.
 905 0000 80B4     		push	{r7}
 906 0002 8BB0     		sub	sp, sp, #44
 907 0004 00AF     		add	r7, sp, #0
 908 0006 F860     		str	r0, [r7, #12]
 909 0008 B960     		str	r1, [r7, #8]
 910 000a 1346     		mov	r3, r2
 911 000c FB80     		strh	r3, [r7, #6]	@ movhi
 912 000e FB68     		ldr	r3, [r7, #12]
 913 0010 DB6F     		ldr	r3, [r3, #124]
 914 0012 202B     		cmp	r3, #32
 915 0014 47D1     		bne	.L66
 916 0016 BB68     		ldr	r3, [r7, #8]
 917 0018 002B     		cmp	r3, #0
 918 001a 02D0     		beq	.L67
 919 001c FB88     		ldrh	r3, [r7, #6]
 920 001e 002B     		cmp	r3, #0
 921 0020 01D1     		bne	.L68
 922              	.L67:
 923 0022 0123     		movs	r3, #1
 924 0024 40E0     		b	.L69
 925              	.L68:
 926 0026 FB68     		ldr	r3, [r7, #12]
 927 0028 BA68     		ldr	r2, [r7, #8]
 928 002a DA64     		str	r2, [r3, #76]
 929 002c FB68     		ldr	r3, [r7, #12]
 930 002e FA88     		ldrh	r2, [r7, #6]	@ movhi
 931 0030 A3F85020 		strh	r2, [r3, #80]	@ movhi
ARM GAS  C:\msys64\tmp\ccXyuxUj.s 			page 17


 932 0034 FB68     		ldr	r3, [r7, #12]
 933 0036 FA88     		ldrh	r2, [r7, #6]	@ movhi
 934 0038 A3F85220 		strh	r2, [r3, #82]	@ movhi
 935 003c FB68     		ldr	r3, [r7, #12]
 936 003e 0022     		movs	r2, #0
 937 0040 DA66     		str	r2, [r3, #108]
 938 0042 FB68     		ldr	r3, [r7, #12]
 939 0044 0022     		movs	r2, #0
 940 0046 C3F88420 		str	r2, [r3, #132]
 941 004a FB68     		ldr	r3, [r7, #12]
 942 004c 2122     		movs	r2, #33
 943 004e DA67     		str	r2, [r3, #124]
 944 0050 FB68     		ldr	r3, [r7, #12]
 945 0052 9B68     		ldr	r3, [r3, #8]
 946 0054 B3F5805F 		cmp	r3, #4096
 947 0058 07D1     		bne	.L70
 948 005a FB68     		ldr	r3, [r7, #12]
 949 005c 1B69     		ldr	r3, [r3, #16]
 950 005e 002B     		cmp	r3, #0
 951 0060 03D1     		bne	.L70
 952 0062 FB68     		ldr	r3, [r7, #12]
 953 0064 134A     		ldr	r2, .L75
 954 0066 DA66     		str	r2, [r3, #108]
 955 0068 02E0     		b	.L74
 956              	.L70:
 957 006a FB68     		ldr	r3, [r7, #12]
 958 006c 124A     		ldr	r2, .L75+4
 959 006e DA66     		str	r2, [r3, #108]
 960              	.L74:
 961 0070 FB68     		ldr	r3, [r7, #12]
 962 0072 1B68     		ldr	r3, [r3]
 963 0074 7B61     		str	r3, [r7, #20]
 964 0076 7B69     		ldr	r3, [r7, #20]
 965              		.syntax unified
 966              	@ 1072 "cmsis/core/cmsis_gcc.h" 1
 967 0078 53E8003F 		ldrex r3, [r3]
 968              	@ 0 "" 2
 969              		.thumb
 970              		.syntax unified
 971 007c 3B61     		str	r3, [r7, #16]
 972 007e 3B69     		ldr	r3, [r7, #16]
 973 0080 43F08003 		orr	r3, r3, #128
 974 0084 7B62     		str	r3, [r7, #36]
 975 0086 FB68     		ldr	r3, [r7, #12]
 976 0088 1B68     		ldr	r3, [r3]
 977 008a 1A46     		mov	r2, r3
 978 008c 7B6A     		ldr	r3, [r7, #36]
 979 008e 3B62     		str	r3, [r7, #32]
 980 0090 FA61     		str	r2, [r7, #28]
 981 0092 F969     		ldr	r1, [r7, #28]
 982 0094 3A6A     		ldr	r2, [r7, #32]
 983              		.syntax unified
 984              	@ 1123 "cmsis/core/cmsis_gcc.h" 1
 985 0096 41E80023 		strex r3, r2, [r1]
 986              	@ 0 "" 2
 987              		.thumb
 988              		.syntax unified
ARM GAS  C:\msys64\tmp\ccXyuxUj.s 			page 18


 989 009a BB61     		str	r3, [r7, #24]
 990 009c BB69     		ldr	r3, [r7, #24]
 991 009e 002B     		cmp	r3, #0
 992 00a0 E6D1     		bne	.L74
 993 00a2 0023     		movs	r3, #0
 994 00a4 00E0     		b	.L69
 995              	.L66:
 996 00a6 0223     		movs	r3, #2
 997              	.L69:
 998 00a8 1846     		mov	r0, r3
 999 00aa 2C37     		adds	r7, r7, #44
 1000 00ac BD46     		mov	sp, r7
 1001              		@ sp needed
 1002 00ae 5DF8047B 		ldr	r7, [sp], #4
 1003 00b2 7047     		bx	lr
 1004              	.L76:
 1005              		.align	2
 1006              	.L75:
 1007 00b4 00000000 		.word	UART_TxISR_16BIT
 1008 00b8 00000000 		.word	UART_TxISR_8BIT
 1010              		.section	.text.HAL_UART_Receive_IT,"ax",%progbits
 1011              		.align	1
 1012              		.global	HAL_UART_Receive_IT
 1013              		.syntax unified
 1014              		.thumb
 1015              		.thumb_func
 1017              	HAL_UART_Receive_IT:
 1018              		@ args = 0, pretend = 0, frame = 40
 1019              		@ frame_needed = 1, uses_anonymous_args = 0
 1020 0000 80B5     		push	{r7, lr}
 1021 0002 8AB0     		sub	sp, sp, #40
 1022 0004 00AF     		add	r7, sp, #0
 1023 0006 F860     		str	r0, [r7, #12]
 1024 0008 B960     		str	r1, [r7, #8]
 1025 000a 1346     		mov	r3, r2
 1026 000c FB80     		strh	r3, [r7, #6]	@ movhi
 1027 000e FB68     		ldr	r3, [r7, #12]
 1028 0010 D3F88030 		ldr	r3, [r3, #128]
 1029 0014 202B     		cmp	r3, #32
 1030 0016 32D1     		bne	.L78
 1031 0018 BB68     		ldr	r3, [r7, #8]
 1032 001a 002B     		cmp	r3, #0
 1033 001c 02D0     		beq	.L79
 1034 001e FB88     		ldrh	r3, [r7, #6]
 1035 0020 002B     		cmp	r3, #0
 1036 0022 01D1     		bne	.L80
 1037              	.L79:
 1038 0024 0123     		movs	r3, #1
 1039 0026 2BE0     		b	.L81
 1040              	.L80:
 1041 0028 FB68     		ldr	r3, [r7, #12]
 1042 002a 0022     		movs	r2, #0
 1043 002c 1A66     		str	r2, [r3, #96]
 1044 002e FB68     		ldr	r3, [r7, #12]
 1045 0030 1B68     		ldr	r3, [r3]
 1046 0032 5B68     		ldr	r3, [r3, #4]
 1047 0034 03F40003 		and	r3, r3, #8388608
ARM GAS  C:\msys64\tmp\ccXyuxUj.s 			page 19


 1048 0038 002B     		cmp	r3, #0
 1049 003a 18D0     		beq	.L82
 1050              	.L85:
 1051 003c FB68     		ldr	r3, [r7, #12]
 1052 003e 1B68     		ldr	r3, [r3]
 1053 0040 7B61     		str	r3, [r7, #20]
 1054 0042 7B69     		ldr	r3, [r7, #20]
 1055              		.syntax unified
 1056              	@ 1072 "cmsis/core/cmsis_gcc.h" 1
 1057 0044 53E8003F 		ldrex r3, [r3]
 1058              	@ 0 "" 2
 1059              		.thumb
 1060              		.syntax unified
 1061 0048 3B61     		str	r3, [r7, #16]
 1062 004a 3B69     		ldr	r3, [r7, #16]
 1063 004c 43F08063 		orr	r3, r3, #67108864
 1064 0050 7B62     		str	r3, [r7, #36]
 1065 0052 FB68     		ldr	r3, [r7, #12]
 1066 0054 1B68     		ldr	r3, [r3]
 1067 0056 1A46     		mov	r2, r3
 1068 0058 7B6A     		ldr	r3, [r7, #36]
 1069 005a 3B62     		str	r3, [r7, #32]
 1070 005c FA61     		str	r2, [r7, #28]
 1071 005e F969     		ldr	r1, [r7, #28]
 1072 0060 3A6A     		ldr	r2, [r7, #32]
 1073              		.syntax unified
 1074              	@ 1123 "cmsis/core/cmsis_gcc.h" 1
 1075 0062 41E80023 		strex r3, r2, [r1]
 1076              	@ 0 "" 2
 1077              		.thumb
 1078              		.syntax unified
 1079 0066 BB61     		str	r3, [r7, #24]
 1080 0068 BB69     		ldr	r3, [r7, #24]
 1081 006a 002B     		cmp	r3, #0
 1082 006c E6D1     		bne	.L85
 1083              	.L82:
 1084 006e FB88     		ldrh	r3, [r7, #6]
 1085 0070 1A46     		mov	r2, r3
 1086 0072 B968     		ldr	r1, [r7, #8]
 1087 0074 F868     		ldr	r0, [r7, #12]
 1088 0076 FFF7FEFF 		bl	UART_Start_Receive_IT
 1089 007a 0346     		mov	r3, r0
 1090 007c 00E0     		b	.L81
 1091              	.L78:
 1092 007e 0223     		movs	r3, #2
 1093              	.L81:
 1094 0080 1846     		mov	r0, r3
 1095 0082 2837     		adds	r7, r7, #40
 1096 0084 BD46     		mov	sp, r7
 1097              		@ sp needed
 1098 0086 80BD     		pop	{r7, pc}
 1100              		.section	.text.HAL_UART_Transmit_DMA,"ax",%progbits
 1101              		.align	1
 1102              		.global	HAL_UART_Transmit_DMA
 1103              		.syntax unified
 1104              		.thumb
 1105              		.thumb_func
ARM GAS  C:\msys64\tmp\ccXyuxUj.s 			page 20


 1107              	HAL_UART_Transmit_DMA:
 1108              		@ args = 0, pretend = 0, frame = 40
 1109              		@ frame_needed = 1, uses_anonymous_args = 0
 1110 0000 80B5     		push	{r7, lr}
 1111 0002 8AB0     		sub	sp, sp, #40
 1112 0004 00AF     		add	r7, sp, #0
 1113 0006 F860     		str	r0, [r7, #12]
 1114 0008 B960     		str	r1, [r7, #8]
 1115 000a 1346     		mov	r3, r2
 1116 000c FB80     		strh	r3, [r7, #6]	@ movhi
 1117 000e FB68     		ldr	r3, [r7, #12]
 1118 0010 DB6F     		ldr	r3, [r3, #124]
 1119 0012 202B     		cmp	r3, #32
 1120 0014 65D1     		bne	.L87
 1121 0016 BB68     		ldr	r3, [r7, #8]
 1122 0018 002B     		cmp	r3, #0
 1123 001a 02D0     		beq	.L88
 1124 001c FB88     		ldrh	r3, [r7, #6]
 1125 001e 002B     		cmp	r3, #0
 1126 0020 01D1     		bne	.L89
 1127              	.L88:
 1128 0022 0123     		movs	r3, #1
 1129 0024 5EE0     		b	.L90
 1130              	.L89:
 1131 0026 FB68     		ldr	r3, [r7, #12]
 1132 0028 BA68     		ldr	r2, [r7, #8]
 1133 002a DA64     		str	r2, [r3, #76]
 1134 002c FB68     		ldr	r3, [r7, #12]
 1135 002e FA88     		ldrh	r2, [r7, #6]	@ movhi
 1136 0030 A3F85020 		strh	r2, [r3, #80]	@ movhi
 1137 0034 FB68     		ldr	r3, [r7, #12]
 1138 0036 FA88     		ldrh	r2, [r7, #6]	@ movhi
 1139 0038 A3F85220 		strh	r2, [r3, #82]	@ movhi
 1140 003c FB68     		ldr	r3, [r7, #12]
 1141 003e 0022     		movs	r2, #0
 1142 0040 C3F88420 		str	r2, [r3, #132]
 1143 0044 FB68     		ldr	r3, [r7, #12]
 1144 0046 2122     		movs	r2, #33
 1145 0048 DA67     		str	r2, [r3, #124]
 1146 004a FB68     		ldr	r3, [r7, #12]
 1147 004c 1B6F     		ldr	r3, [r3, #112]
 1148 004e 002B     		cmp	r3, #0
 1149 0050 27D0     		beq	.L91
 1150 0052 FB68     		ldr	r3, [r7, #12]
 1151 0054 1B6F     		ldr	r3, [r3, #112]
 1152 0056 254A     		ldr	r2, .L95
 1153 0058 DA63     		str	r2, [r3, #60]
 1154 005a FB68     		ldr	r3, [r7, #12]
 1155 005c 1B6F     		ldr	r3, [r3, #112]
 1156 005e 244A     		ldr	r2, .L95+4
 1157 0060 1A64     		str	r2, [r3, #64]
 1158 0062 FB68     		ldr	r3, [r7, #12]
 1159 0064 1B6F     		ldr	r3, [r3, #112]
 1160 0066 234A     		ldr	r2, .L95+8
 1161 0068 DA64     		str	r2, [r3, #76]
 1162 006a FB68     		ldr	r3, [r7, #12]
 1163 006c 1B6F     		ldr	r3, [r3, #112]
ARM GAS  C:\msys64\tmp\ccXyuxUj.s 			page 21


 1164 006e 0022     		movs	r2, #0
 1165 0070 1A65     		str	r2, [r3, #80]
 1166 0072 FB68     		ldr	r3, [r7, #12]
 1167 0074 186F     		ldr	r0, [r3, #112]
 1168 0076 FB68     		ldr	r3, [r7, #12]
 1169 0078 DB6C     		ldr	r3, [r3, #76]
 1170 007a 1946     		mov	r1, r3
 1171 007c FB68     		ldr	r3, [r7, #12]
 1172 007e 1B68     		ldr	r3, [r3]
 1173 0080 2833     		adds	r3, r3, #40
 1174 0082 1A46     		mov	r2, r3
 1175 0084 FB88     		ldrh	r3, [r7, #6]
 1176 0086 FFF7FEFF 		bl	HAL_DMA_Start_IT
 1177 008a 0346     		mov	r3, r0
 1178 008c 002B     		cmp	r3, #0
 1179 008e 08D0     		beq	.L91
 1180 0090 FB68     		ldr	r3, [r7, #12]
 1181 0092 1022     		movs	r2, #16
 1182 0094 C3F88420 		str	r2, [r3, #132]
 1183 0098 FB68     		ldr	r3, [r7, #12]
 1184 009a 2022     		movs	r2, #32
 1185 009c DA67     		str	r2, [r3, #124]
 1186 009e 0123     		movs	r3, #1
 1187 00a0 20E0     		b	.L90
 1188              	.L91:
 1189 00a2 FB68     		ldr	r3, [r7, #12]
 1190 00a4 1B68     		ldr	r3, [r3]
 1191 00a6 4022     		movs	r2, #64
 1192 00a8 1A62     		str	r2, [r3, #32]
 1193              	.L94:
 1194 00aa FB68     		ldr	r3, [r7, #12]
 1195 00ac 1B68     		ldr	r3, [r3]
 1196 00ae 0833     		adds	r3, r3, #8
 1197 00b0 7B61     		str	r3, [r7, #20]
 1198 00b2 7B69     		ldr	r3, [r7, #20]
 1199              		.syntax unified
 1200              	@ 1072 "cmsis/core/cmsis_gcc.h" 1
 1201 00b4 53E8003F 		ldrex r3, [r3]
 1202              	@ 0 "" 2
 1203              		.thumb
 1204              		.syntax unified
 1205 00b8 3B61     		str	r3, [r7, #16]
 1206 00ba 3B69     		ldr	r3, [r7, #16]
 1207 00bc 43F08003 		orr	r3, r3, #128
 1208 00c0 7B62     		str	r3, [r7, #36]
 1209 00c2 FB68     		ldr	r3, [r7, #12]
 1210 00c4 1B68     		ldr	r3, [r3]
 1211 00c6 0833     		adds	r3, r3, #8
 1212 00c8 7A6A     		ldr	r2, [r7, #36]
 1213 00ca 3A62     		str	r2, [r7, #32]
 1214 00cc FB61     		str	r3, [r7, #28]
 1215 00ce F969     		ldr	r1, [r7, #28]
 1216 00d0 3A6A     		ldr	r2, [r7, #32]
 1217              		.syntax unified
 1218              	@ 1123 "cmsis/core/cmsis_gcc.h" 1
 1219 00d2 41E80023 		strex r3, r2, [r1]
 1220              	@ 0 "" 2
ARM GAS  C:\msys64\tmp\ccXyuxUj.s 			page 22


 1221              		.thumb
 1222              		.syntax unified
 1223 00d6 BB61     		str	r3, [r7, #24]
 1224 00d8 BB69     		ldr	r3, [r7, #24]
 1225 00da 002B     		cmp	r3, #0
 1226 00dc E5D1     		bne	.L94
 1227 00de 0023     		movs	r3, #0
 1228 00e0 00E0     		b	.L90
 1229              	.L87:
 1230 00e2 0223     		movs	r3, #2
 1231              	.L90:
 1232 00e4 1846     		mov	r0, r3
 1233 00e6 2837     		adds	r7, r7, #40
 1234 00e8 BD46     		mov	sp, r7
 1235              		@ sp needed
 1236 00ea 80BD     		pop	{r7, pc}
 1237              	.L96:
 1238              		.align	2
 1239              	.L95:
 1240 00ec 00000000 		.word	UART_DMATransmitCplt
 1241 00f0 00000000 		.word	UART_DMATxHalfCplt
 1242 00f4 00000000 		.word	UART_DMAError
 1244              		.section	.text.HAL_UART_Receive_DMA,"ax",%progbits
 1245              		.align	1
 1246              		.global	HAL_UART_Receive_DMA
 1247              		.syntax unified
 1248              		.thumb
 1249              		.thumb_func
 1251              	HAL_UART_Receive_DMA:
 1252              		@ args = 0, pretend = 0, frame = 40
 1253              		@ frame_needed = 1, uses_anonymous_args = 0
 1254 0000 80B5     		push	{r7, lr}
 1255 0002 8AB0     		sub	sp, sp, #40
 1256 0004 00AF     		add	r7, sp, #0
 1257 0006 F860     		str	r0, [r7, #12]
 1258 0008 B960     		str	r1, [r7, #8]
 1259 000a 1346     		mov	r3, r2
 1260 000c FB80     		strh	r3, [r7, #6]	@ movhi
 1261 000e FB68     		ldr	r3, [r7, #12]
 1262 0010 D3F88030 		ldr	r3, [r3, #128]
 1263 0014 202B     		cmp	r3, #32
 1264 0016 32D1     		bne	.L98
 1265 0018 BB68     		ldr	r3, [r7, #8]
 1266 001a 002B     		cmp	r3, #0
 1267 001c 02D0     		beq	.L99
 1268 001e FB88     		ldrh	r3, [r7, #6]
 1269 0020 002B     		cmp	r3, #0
 1270 0022 01D1     		bne	.L100
 1271              	.L99:
 1272 0024 0123     		movs	r3, #1
 1273 0026 2BE0     		b	.L101
 1274              	.L100:
 1275 0028 FB68     		ldr	r3, [r7, #12]
 1276 002a 0022     		movs	r2, #0
 1277 002c 1A66     		str	r2, [r3, #96]
 1278 002e FB68     		ldr	r3, [r7, #12]
 1279 0030 1B68     		ldr	r3, [r3]
ARM GAS  C:\msys64\tmp\ccXyuxUj.s 			page 23


 1280 0032 5B68     		ldr	r3, [r3, #4]
 1281 0034 03F40003 		and	r3, r3, #8388608
 1282 0038 002B     		cmp	r3, #0
 1283 003a 18D0     		beq	.L102
 1284              	.L105:
 1285 003c FB68     		ldr	r3, [r7, #12]
 1286 003e 1B68     		ldr	r3, [r3]
 1287 0040 7B61     		str	r3, [r7, #20]
 1288 0042 7B69     		ldr	r3, [r7, #20]
 1289              		.syntax unified
 1290              	@ 1072 "cmsis/core/cmsis_gcc.h" 1
 1291 0044 53E8003F 		ldrex r3, [r3]
 1292              	@ 0 "" 2
 1293              		.thumb
 1294              		.syntax unified
 1295 0048 3B61     		str	r3, [r7, #16]
 1296 004a 3B69     		ldr	r3, [r7, #16]
 1297 004c 43F08063 		orr	r3, r3, #67108864
 1298 0050 7B62     		str	r3, [r7, #36]
 1299 0052 FB68     		ldr	r3, [r7, #12]
 1300 0054 1B68     		ldr	r3, [r3]
 1301 0056 1A46     		mov	r2, r3
 1302 0058 7B6A     		ldr	r3, [r7, #36]
 1303 005a 3B62     		str	r3, [r7, #32]
 1304 005c FA61     		str	r2, [r7, #28]
 1305 005e F969     		ldr	r1, [r7, #28]
 1306 0060 3A6A     		ldr	r2, [r7, #32]
 1307              		.syntax unified
 1308              	@ 1123 "cmsis/core/cmsis_gcc.h" 1
 1309 0062 41E80023 		strex r3, r2, [r1]
 1310              	@ 0 "" 2
 1311              		.thumb
 1312              		.syntax unified
 1313 0066 BB61     		str	r3, [r7, #24]
 1314 0068 BB69     		ldr	r3, [r7, #24]
 1315 006a 002B     		cmp	r3, #0
 1316 006c E6D1     		bne	.L105
 1317              	.L102:
 1318 006e FB88     		ldrh	r3, [r7, #6]
 1319 0070 1A46     		mov	r2, r3
 1320 0072 B968     		ldr	r1, [r7, #8]
 1321 0074 F868     		ldr	r0, [r7, #12]
 1322 0076 FFF7FEFF 		bl	UART_Start_Receive_DMA
 1323 007a 0346     		mov	r3, r0
 1324 007c 00E0     		b	.L101
 1325              	.L98:
 1326 007e 0223     		movs	r3, #2
 1327              	.L101:
 1328 0080 1846     		mov	r0, r3
 1329 0082 2837     		adds	r7, r7, #40
 1330 0084 BD46     		mov	sp, r7
 1331              		@ sp needed
 1332 0086 80BD     		pop	{r7, pc}
 1334              		.section	.text.HAL_UART_DMAPause,"ax",%progbits
 1335              		.align	1
 1336              		.global	HAL_UART_DMAPause
 1337              		.syntax unified
ARM GAS  C:\msys64\tmp\ccXyuxUj.s 			page 24


 1338              		.thumb
 1339              		.thumb_func
 1341              	HAL_UART_DMAPause:
 1342              		@ args = 0, pretend = 0, frame = 112
 1343              		@ frame_needed = 1, uses_anonymous_args = 0
 1344              		@ link register save eliminated.
 1345 0000 80B4     		push	{r7}
 1346 0002 9DB0     		sub	sp, sp, #116
 1347 0004 00AF     		add	r7, sp, #0
 1348 0006 7860     		str	r0, [r7, #4]
 1349 0008 7B68     		ldr	r3, [r7, #4]
 1350 000a DB6F     		ldr	r3, [r3, #124]
 1351 000c FB66     		str	r3, [r7, #108]
 1352 000e 7B68     		ldr	r3, [r7, #4]
 1353 0010 D3F88030 		ldr	r3, [r3, #128]
 1354 0014 BB66     		str	r3, [r7, #104]
 1355 0016 7B68     		ldr	r3, [r7, #4]
 1356 0018 1B68     		ldr	r3, [r3]
 1357 001a 9B68     		ldr	r3, [r3, #8]
 1358 001c 03F08003 		and	r3, r3, #128
 1359 0020 802B     		cmp	r3, #128
 1360 0022 1CD1     		bne	.L107
 1361 0024 FB6E     		ldr	r3, [r7, #108]
 1362 0026 212B     		cmp	r3, #33
 1363 0028 19D1     		bne	.L107
 1364              	.L110:
 1365 002a 7B68     		ldr	r3, [r7, #4]
 1366 002c 1B68     		ldr	r3, [r3]
 1367 002e 0833     		adds	r3, r3, #8
 1368 0030 BB64     		str	r3, [r7, #72]
 1369 0032 BB6C     		ldr	r3, [r7, #72]
 1370              		.syntax unified
 1371              	@ 1072 "cmsis/core/cmsis_gcc.h" 1
 1372 0034 53E8003F 		ldrex r3, [r3]
 1373              	@ 0 "" 2
 1374              		.thumb
 1375              		.syntax unified
 1376 0038 7B64     		str	r3, [r7, #68]
 1377 003a 7B6C     		ldr	r3, [r7, #68]
 1378 003c 23F08003 		bic	r3, r3, #128
 1379 0040 7B66     		str	r3, [r7, #100]
 1380 0042 7B68     		ldr	r3, [r7, #4]
 1381 0044 1B68     		ldr	r3, [r3]
 1382 0046 0833     		adds	r3, r3, #8
 1383 0048 7A6E     		ldr	r2, [r7, #100]
 1384 004a 7A65     		str	r2, [r7, #84]
 1385 004c 3B65     		str	r3, [r7, #80]
 1386 004e 396D     		ldr	r1, [r7, #80]
 1387 0050 7A6D     		ldr	r2, [r7, #84]
 1388              		.syntax unified
 1389              	@ 1123 "cmsis/core/cmsis_gcc.h" 1
 1390 0052 41E80023 		strex r3, r2, [r1]
 1391              	@ 0 "" 2
 1392              		.thumb
 1393              		.syntax unified
 1394 0056 FB64     		str	r3, [r7, #76]
 1395 0058 FB6C     		ldr	r3, [r7, #76]
ARM GAS  C:\msys64\tmp\ccXyuxUj.s 			page 25


 1396 005a 002B     		cmp	r3, #0
 1397 005c E5D1     		bne	.L110
 1398              	.L107:
 1399 005e 7B68     		ldr	r3, [r7, #4]
 1400 0060 1B68     		ldr	r3, [r3]
 1401 0062 9B68     		ldr	r3, [r3, #8]
 1402 0064 03F04003 		and	r3, r3, #64
 1403 0068 402B     		cmp	r3, #64
 1404 006a 4FD1     		bne	.L111
 1405 006c BB6E     		ldr	r3, [r7, #104]
 1406 006e 222B     		cmp	r3, #34
 1407 0070 4CD1     		bne	.L111
 1408              	.L114:
 1409 0072 7B68     		ldr	r3, [r7, #4]
 1410 0074 1B68     		ldr	r3, [r3]
 1411 0076 7B63     		str	r3, [r7, #52]
 1412 0078 7B6B     		ldr	r3, [r7, #52]
 1413              		.syntax unified
 1414              	@ 1072 "cmsis/core/cmsis_gcc.h" 1
 1415 007a 53E8003F 		ldrex r3, [r3]
 1416              	@ 0 "" 2
 1417              		.thumb
 1418              		.syntax unified
 1419 007e 3B63     		str	r3, [r7, #48]
 1420 0080 3B6B     		ldr	r3, [r7, #48]
 1421 0082 23F48073 		bic	r3, r3, #256
 1422 0086 3B66     		str	r3, [r7, #96]
 1423 0088 7B68     		ldr	r3, [r7, #4]
 1424 008a 1B68     		ldr	r3, [r3]
 1425 008c 1A46     		mov	r2, r3
 1426 008e 3B6E     		ldr	r3, [r7, #96]
 1427 0090 3B64     		str	r3, [r7, #64]
 1428 0092 FA63     		str	r2, [r7, #60]
 1429 0094 F96B     		ldr	r1, [r7, #60]
 1430 0096 3A6C     		ldr	r2, [r7, #64]
 1431              		.syntax unified
 1432              	@ 1123 "cmsis/core/cmsis_gcc.h" 1
 1433 0098 41E80023 		strex r3, r2, [r1]
 1434              	@ 0 "" 2
 1435              		.thumb
 1436              		.syntax unified
 1437 009c BB63     		str	r3, [r7, #56]
 1438 009e BB6B     		ldr	r3, [r7, #56]
 1439 00a0 002B     		cmp	r3, #0
 1440 00a2 E6D1     		bne	.L114
 1441              	.L117:
 1442 00a4 7B68     		ldr	r3, [r7, #4]
 1443 00a6 1B68     		ldr	r3, [r3]
 1444 00a8 0833     		adds	r3, r3, #8
 1445 00aa 3B62     		str	r3, [r7, #32]
 1446 00ac 3B6A     		ldr	r3, [r7, #32]
 1447              		.syntax unified
 1448              	@ 1072 "cmsis/core/cmsis_gcc.h" 1
 1449 00ae 53E8003F 		ldrex r3, [r3]
 1450              	@ 0 "" 2
 1451              		.thumb
 1452              		.syntax unified
ARM GAS  C:\msys64\tmp\ccXyuxUj.s 			page 26


 1453 00b2 FB61     		str	r3, [r7, #28]
 1454 00b4 FB69     		ldr	r3, [r7, #28]
 1455 00b6 23F00103 		bic	r3, r3, #1
 1456 00ba FB65     		str	r3, [r7, #92]
 1457 00bc 7B68     		ldr	r3, [r7, #4]
 1458 00be 1B68     		ldr	r3, [r3]
 1459 00c0 0833     		adds	r3, r3, #8
 1460 00c2 FA6D     		ldr	r2, [r7, #92]
 1461 00c4 FA62     		str	r2, [r7, #44]
 1462 00c6 BB62     		str	r3, [r7, #40]
 1463 00c8 B96A     		ldr	r1, [r7, #40]
 1464 00ca FA6A     		ldr	r2, [r7, #44]
 1465              		.syntax unified
 1466              	@ 1123 "cmsis/core/cmsis_gcc.h" 1
 1467 00cc 41E80023 		strex r3, r2, [r1]
 1468              	@ 0 "" 2
 1469              		.thumb
 1470              		.syntax unified
 1471 00d0 7B62     		str	r3, [r7, #36]
 1472 00d2 7B6A     		ldr	r3, [r7, #36]
 1473 00d4 002B     		cmp	r3, #0
 1474 00d6 E5D1     		bne	.L117
 1475              	.L120:
 1476 00d8 7B68     		ldr	r3, [r7, #4]
 1477 00da 1B68     		ldr	r3, [r3]
 1478 00dc 0833     		adds	r3, r3, #8
 1479 00de FB60     		str	r3, [r7, #12]
 1480 00e0 FB68     		ldr	r3, [r7, #12]
 1481              		.syntax unified
 1482              	@ 1072 "cmsis/core/cmsis_gcc.h" 1
 1483 00e2 53E8003F 		ldrex r3, [r3]
 1484              	@ 0 "" 2
 1485              		.thumb
 1486              		.syntax unified
 1487 00e6 BB60     		str	r3, [r7, #8]
 1488 00e8 BB68     		ldr	r3, [r7, #8]
 1489 00ea 23F04003 		bic	r3, r3, #64
 1490 00ee BB65     		str	r3, [r7, #88]
 1491 00f0 7B68     		ldr	r3, [r7, #4]
 1492 00f2 1B68     		ldr	r3, [r3]
 1493 00f4 0833     		adds	r3, r3, #8
 1494 00f6 BA6D     		ldr	r2, [r7, #88]
 1495 00f8 BA61     		str	r2, [r7, #24]
 1496 00fa 7B61     		str	r3, [r7, #20]
 1497 00fc 7969     		ldr	r1, [r7, #20]
 1498 00fe BA69     		ldr	r2, [r7, #24]
 1499              		.syntax unified
 1500              	@ 1123 "cmsis/core/cmsis_gcc.h" 1
 1501 0100 41E80023 		strex r3, r2, [r1]
 1502              	@ 0 "" 2
 1503              		.thumb
 1504              		.syntax unified
 1505 0104 3B61     		str	r3, [r7, #16]
 1506 0106 3B69     		ldr	r3, [r7, #16]
 1507 0108 002B     		cmp	r3, #0
 1508 010a E5D1     		bne	.L120
 1509              	.L111:
ARM GAS  C:\msys64\tmp\ccXyuxUj.s 			page 27


 1510 010c 0023     		movs	r3, #0
 1511 010e 1846     		mov	r0, r3
 1512 0110 7437     		adds	r7, r7, #116
 1513 0112 BD46     		mov	sp, r7
 1514              		@ sp needed
 1515 0114 5DF8047B 		ldr	r7, [sp], #4
 1516 0118 7047     		bx	lr
 1518              		.section	.text.HAL_UART_DMAResume,"ax",%progbits
 1519              		.align	1
 1520              		.global	HAL_UART_DMAResume
 1521              		.syntax unified
 1522              		.thumb
 1523              		.thumb_func
 1525              	HAL_UART_DMAResume:
 1526              		@ args = 0, pretend = 0, frame = 104
 1527              		@ frame_needed = 1, uses_anonymous_args = 0
 1528              		@ link register save eliminated.
 1529 0000 80B4     		push	{r7}
 1530 0002 9BB0     		sub	sp, sp, #108
 1531 0004 00AF     		add	r7, sp, #0
 1532 0006 7860     		str	r0, [r7, #4]
 1533 0008 7B68     		ldr	r3, [r7, #4]
 1534 000a DB6F     		ldr	r3, [r3, #124]
 1535 000c 212B     		cmp	r3, #33
 1536 000e 19D1     		bne	.L123
 1537              	.L126:
 1538 0010 7B68     		ldr	r3, [r7, #4]
 1539 0012 1B68     		ldr	r3, [r3]
 1540 0014 0833     		adds	r3, r3, #8
 1541 0016 BB64     		str	r3, [r7, #72]
 1542 0018 BB6C     		ldr	r3, [r7, #72]
 1543              		.syntax unified
 1544              	@ 1072 "cmsis/core/cmsis_gcc.h" 1
 1545 001a 53E8003F 		ldrex r3, [r3]
 1546              	@ 0 "" 2
 1547              		.thumb
 1548              		.syntax unified
 1549 001e 7B64     		str	r3, [r7, #68]
 1550 0020 7B6C     		ldr	r3, [r7, #68]
 1551 0022 43F08003 		orr	r3, r3, #128
 1552 0026 7B66     		str	r3, [r7, #100]
 1553 0028 7B68     		ldr	r3, [r7, #4]
 1554 002a 1B68     		ldr	r3, [r3]
 1555 002c 0833     		adds	r3, r3, #8
 1556 002e 7A6E     		ldr	r2, [r7, #100]
 1557 0030 7A65     		str	r2, [r7, #84]
 1558 0032 3B65     		str	r3, [r7, #80]
 1559 0034 396D     		ldr	r1, [r7, #80]
 1560 0036 7A6D     		ldr	r2, [r7, #84]
 1561              		.syntax unified
 1562              	@ 1123 "cmsis/core/cmsis_gcc.h" 1
 1563 0038 41E80023 		strex r3, r2, [r1]
 1564              	@ 0 "" 2
 1565              		.thumb
 1566              		.syntax unified
 1567 003c FB64     		str	r3, [r7, #76]
 1568 003e FB6C     		ldr	r3, [r7, #76]
ARM GAS  C:\msys64\tmp\ccXyuxUj.s 			page 28


 1569 0040 002B     		cmp	r3, #0
 1570 0042 E5D1     		bne	.L126
 1571              	.L123:
 1572 0044 7B68     		ldr	r3, [r7, #4]
 1573 0046 D3F88030 		ldr	r3, [r3, #128]
 1574 004a 222B     		cmp	r3, #34
 1575 004c 54D1     		bne	.L127
 1576 004e 7B68     		ldr	r3, [r7, #4]
 1577 0050 1B68     		ldr	r3, [r3]
 1578 0052 0822     		movs	r2, #8
 1579 0054 1A62     		str	r2, [r3, #32]
 1580 0056 7B68     		ldr	r3, [r7, #4]
 1581 0058 1B69     		ldr	r3, [r3, #16]
 1582 005a 002B     		cmp	r3, #0
 1583 005c 18D0     		beq	.L134
 1584              	.L131:
 1585 005e 7B68     		ldr	r3, [r7, #4]
 1586 0060 1B68     		ldr	r3, [r3]
 1587 0062 7B63     		str	r3, [r7, #52]
 1588 0064 7B6B     		ldr	r3, [r7, #52]
 1589              		.syntax unified
 1590              	@ 1072 "cmsis/core/cmsis_gcc.h" 1
 1591 0066 53E8003F 		ldrex r3, [r3]
 1592              	@ 0 "" 2
 1593              		.thumb
 1594              		.syntax unified
 1595 006a 3B63     		str	r3, [r7, #48]
 1596 006c 3B6B     		ldr	r3, [r7, #48]
 1597 006e 43F48073 		orr	r3, r3, #256
 1598 0072 3B66     		str	r3, [r7, #96]
 1599 0074 7B68     		ldr	r3, [r7, #4]
 1600 0076 1B68     		ldr	r3, [r3]
 1601 0078 1A46     		mov	r2, r3
 1602 007a 3B6E     		ldr	r3, [r7, #96]
 1603 007c 3B64     		str	r3, [r7, #64]
 1604 007e FA63     		str	r2, [r7, #60]
 1605 0080 F96B     		ldr	r1, [r7, #60]
 1606 0082 3A6C     		ldr	r2, [r7, #64]
 1607              		.syntax unified
 1608              	@ 1123 "cmsis/core/cmsis_gcc.h" 1
 1609 0084 41E80023 		strex r3, r2, [r1]
 1610              	@ 0 "" 2
 1611              		.thumb
 1612              		.syntax unified
 1613 0088 BB63     		str	r3, [r7, #56]
 1614 008a BB6B     		ldr	r3, [r7, #56]
 1615 008c 002B     		cmp	r3, #0
 1616 008e E6D1     		bne	.L131
 1617              	.L134:
 1618 0090 7B68     		ldr	r3, [r7, #4]
 1619 0092 1B68     		ldr	r3, [r3]
 1620 0094 0833     		adds	r3, r3, #8
 1621 0096 3B62     		str	r3, [r7, #32]
 1622 0098 3B6A     		ldr	r3, [r7, #32]
 1623              		.syntax unified
 1624              	@ 1072 "cmsis/core/cmsis_gcc.h" 1
 1625 009a 53E8003F 		ldrex r3, [r3]
ARM GAS  C:\msys64\tmp\ccXyuxUj.s 			page 29


 1626              	@ 0 "" 2
 1627              		.thumb
 1628              		.syntax unified
 1629 009e FB61     		str	r3, [r7, #28]
 1630 00a0 FB69     		ldr	r3, [r7, #28]
 1631 00a2 43F00103 		orr	r3, r3, #1
 1632 00a6 FB65     		str	r3, [r7, #92]
 1633 00a8 7B68     		ldr	r3, [r7, #4]
 1634 00aa 1B68     		ldr	r3, [r3]
 1635 00ac 0833     		adds	r3, r3, #8
 1636 00ae FA6D     		ldr	r2, [r7, #92]
 1637 00b0 FA62     		str	r2, [r7, #44]
 1638 00b2 BB62     		str	r3, [r7, #40]
 1639 00b4 B96A     		ldr	r1, [r7, #40]
 1640 00b6 FA6A     		ldr	r2, [r7, #44]
 1641              		.syntax unified
 1642              	@ 1123 "cmsis/core/cmsis_gcc.h" 1
 1643 00b8 41E80023 		strex r3, r2, [r1]
 1644              	@ 0 "" 2
 1645              		.thumb
 1646              		.syntax unified
 1647 00bc 7B62     		str	r3, [r7, #36]
 1648 00be 7B6A     		ldr	r3, [r7, #36]
 1649 00c0 002B     		cmp	r3, #0
 1650 00c2 E5D1     		bne	.L134
 1651              	.L137:
 1652 00c4 7B68     		ldr	r3, [r7, #4]
 1653 00c6 1B68     		ldr	r3, [r3]
 1654 00c8 0833     		adds	r3, r3, #8
 1655 00ca FB60     		str	r3, [r7, #12]
 1656 00cc FB68     		ldr	r3, [r7, #12]
 1657              		.syntax unified
 1658              	@ 1072 "cmsis/core/cmsis_gcc.h" 1
 1659 00ce 53E8003F 		ldrex r3, [r3]
 1660              	@ 0 "" 2
 1661              		.thumb
 1662              		.syntax unified
 1663 00d2 BB60     		str	r3, [r7, #8]
 1664 00d4 BB68     		ldr	r3, [r7, #8]
 1665 00d6 43F04003 		orr	r3, r3, #64
 1666 00da BB65     		str	r3, [r7, #88]
 1667 00dc 7B68     		ldr	r3, [r7, #4]
 1668 00de 1B68     		ldr	r3, [r3]
 1669 00e0 0833     		adds	r3, r3, #8
 1670 00e2 BA6D     		ldr	r2, [r7, #88]
 1671 00e4 BA61     		str	r2, [r7, #24]
 1672 00e6 7B61     		str	r3, [r7, #20]
 1673 00e8 7969     		ldr	r1, [r7, #20]
 1674 00ea BA69     		ldr	r2, [r7, #24]
 1675              		.syntax unified
 1676              	@ 1123 "cmsis/core/cmsis_gcc.h" 1
 1677 00ec 41E80023 		strex r3, r2, [r1]
 1678              	@ 0 "" 2
 1679              		.thumb
 1680              		.syntax unified
 1681 00f0 3B61     		str	r3, [r7, #16]
 1682 00f2 3B69     		ldr	r3, [r7, #16]
ARM GAS  C:\msys64\tmp\ccXyuxUj.s 			page 30


 1683 00f4 002B     		cmp	r3, #0
 1684 00f6 E5D1     		bne	.L137
 1685              	.L127:
 1686 00f8 0023     		movs	r3, #0
 1687 00fa 1846     		mov	r0, r3
 1688 00fc 6C37     		adds	r7, r7, #108
 1689 00fe BD46     		mov	sp, r7
 1690              		@ sp needed
 1691 0100 5DF8047B 		ldr	r7, [sp], #4
 1692 0104 7047     		bx	lr
 1694              		.section	.text.HAL_UART_DMAStop,"ax",%progbits
 1695              		.align	1
 1696              		.global	HAL_UART_DMAStop
 1697              		.syntax unified
 1698              		.thumb
 1699              		.thumb_func
 1701              	HAL_UART_DMAStop:
 1702              		@ args = 0, pretend = 0, frame = 64
 1703              		@ frame_needed = 1, uses_anonymous_args = 0
 1704 0000 80B5     		push	{r7, lr}
 1705 0002 90B0     		sub	sp, sp, #64
 1706 0004 00AF     		add	r7, sp, #0
 1707 0006 7860     		str	r0, [r7, #4]
 1708 0008 7B68     		ldr	r3, [r7, #4]
 1709 000a DB6F     		ldr	r3, [r3, #124]
 1710 000c FB63     		str	r3, [r7, #60]
 1711 000e 7B68     		ldr	r3, [r7, #4]
 1712 0010 D3F88030 		ldr	r3, [r3, #128]
 1713 0014 BB63     		str	r3, [r7, #56]
 1714 0016 7B68     		ldr	r3, [r7, #4]
 1715 0018 1B68     		ldr	r3, [r3]
 1716 001a 9B68     		ldr	r3, [r3, #8]
 1717 001c 03F08003 		and	r3, r3, #128
 1718 0020 802B     		cmp	r3, #128
 1719 0022 39D1     		bne	.L140
 1720 0024 FB6B     		ldr	r3, [r7, #60]
 1721 0026 212B     		cmp	r3, #33
 1722 0028 36D1     		bne	.L140
 1723              	.L143:
 1724 002a 7B68     		ldr	r3, [r7, #4]
 1725 002c 1B68     		ldr	r3, [r3]
 1726 002e 0833     		adds	r3, r3, #8
 1727 0030 3B62     		str	r3, [r7, #32]
 1728 0032 3B6A     		ldr	r3, [r7, #32]
 1729              		.syntax unified
 1730              	@ 1072 "cmsis/core/cmsis_gcc.h" 1
 1731 0034 53E8003F 		ldrex r3, [r3]
 1732              	@ 0 "" 2
 1733              		.thumb
 1734              		.syntax unified
 1735 0038 FB61     		str	r3, [r7, #28]
 1736 003a FB69     		ldr	r3, [r7, #28]
 1737 003c 23F08003 		bic	r3, r3, #128
 1738 0040 7B63     		str	r3, [r7, #52]
 1739 0042 7B68     		ldr	r3, [r7, #4]
 1740 0044 1B68     		ldr	r3, [r3]
 1741 0046 0833     		adds	r3, r3, #8
ARM GAS  C:\msys64\tmp\ccXyuxUj.s 			page 31


 1742 0048 7A6B     		ldr	r2, [r7, #52]
 1743 004a FA62     		str	r2, [r7, #44]
 1744 004c BB62     		str	r3, [r7, #40]
 1745 004e B96A     		ldr	r1, [r7, #40]
 1746 0050 FA6A     		ldr	r2, [r7, #44]
 1747              		.syntax unified
 1748              	@ 1123 "cmsis/core/cmsis_gcc.h" 1
 1749 0052 41E80023 		strex r3, r2, [r1]
 1750              	@ 0 "" 2
 1751              		.thumb
 1752              		.syntax unified
 1753 0056 7B62     		str	r3, [r7, #36]
 1754 0058 7B6A     		ldr	r3, [r7, #36]
 1755 005a 002B     		cmp	r3, #0
 1756 005c E5D1     		bne	.L143
 1757 005e 7B68     		ldr	r3, [r7, #4]
 1758 0060 1B6F     		ldr	r3, [r3, #112]
 1759 0062 002B     		cmp	r3, #0
 1760 0064 15D0     		beq	.L144
 1761 0066 7B68     		ldr	r3, [r7, #4]
 1762 0068 1B6F     		ldr	r3, [r3, #112]
 1763 006a 1846     		mov	r0, r3
 1764 006c FFF7FEFF 		bl	HAL_DMA_Abort
 1765 0070 0346     		mov	r3, r0
 1766 0072 002B     		cmp	r3, #0
 1767 0074 0DD0     		beq	.L144
 1768 0076 7B68     		ldr	r3, [r7, #4]
 1769 0078 1B6F     		ldr	r3, [r3, #112]
 1770 007a 1846     		mov	r0, r3
 1771 007c FFF7FEFF 		bl	HAL_DMA_GetError
 1772 0080 0346     		mov	r3, r0
 1773 0082 202B     		cmp	r3, #32
 1774 0084 05D1     		bne	.L144
 1775 0086 7B68     		ldr	r3, [r7, #4]
 1776 0088 1022     		movs	r2, #16
 1777 008a C3F88420 		str	r2, [r3, #132]
 1778 008e 0323     		movs	r3, #3
 1779 0090 44E0     		b	.L145
 1780              	.L144:
 1781 0092 7868     		ldr	r0, [r7, #4]
 1782 0094 FFF7FEFF 		bl	UART_EndTxTransfer
 1783              	.L140:
 1784 0098 7B68     		ldr	r3, [r7, #4]
 1785 009a 1B68     		ldr	r3, [r3]
 1786 009c 9B68     		ldr	r3, [r3, #8]
 1787 009e 03F04003 		and	r3, r3, #64
 1788 00a2 402B     		cmp	r3, #64
 1789 00a4 39D1     		bne	.L146
 1790 00a6 BB6B     		ldr	r3, [r7, #56]
 1791 00a8 222B     		cmp	r3, #34
 1792 00aa 36D1     		bne	.L146
 1793              	.L149:
 1794 00ac 7B68     		ldr	r3, [r7, #4]
 1795 00ae 1B68     		ldr	r3, [r3]
 1796 00b0 0833     		adds	r3, r3, #8
 1797 00b2 FB60     		str	r3, [r7, #12]
 1798 00b4 FB68     		ldr	r3, [r7, #12]
ARM GAS  C:\msys64\tmp\ccXyuxUj.s 			page 32


 1799              		.syntax unified
 1800              	@ 1072 "cmsis/core/cmsis_gcc.h" 1
 1801 00b6 53E8003F 		ldrex r3, [r3]
 1802              	@ 0 "" 2
 1803              		.thumb
 1804              		.syntax unified
 1805 00ba BB60     		str	r3, [r7, #8]
 1806 00bc BB68     		ldr	r3, [r7, #8]
 1807 00be 23F04003 		bic	r3, r3, #64
 1808 00c2 3B63     		str	r3, [r7, #48]
 1809 00c4 7B68     		ldr	r3, [r7, #4]
 1810 00c6 1B68     		ldr	r3, [r3]
 1811 00c8 0833     		adds	r3, r3, #8
 1812 00ca 3A6B     		ldr	r2, [r7, #48]
 1813 00cc BA61     		str	r2, [r7, #24]
 1814 00ce 7B61     		str	r3, [r7, #20]
 1815 00d0 7969     		ldr	r1, [r7, #20]
 1816 00d2 BA69     		ldr	r2, [r7, #24]
 1817              		.syntax unified
 1818              	@ 1123 "cmsis/core/cmsis_gcc.h" 1
 1819 00d4 41E80023 		strex r3, r2, [r1]
 1820              	@ 0 "" 2
 1821              		.thumb
 1822              		.syntax unified
 1823 00d8 3B61     		str	r3, [r7, #16]
 1824 00da 3B69     		ldr	r3, [r7, #16]
 1825 00dc 002B     		cmp	r3, #0
 1826 00de E5D1     		bne	.L149
 1827 00e0 7B68     		ldr	r3, [r7, #4]
 1828 00e2 5B6F     		ldr	r3, [r3, #116]
 1829 00e4 002B     		cmp	r3, #0
 1830 00e6 15D0     		beq	.L150
 1831 00e8 7B68     		ldr	r3, [r7, #4]
 1832 00ea 5B6F     		ldr	r3, [r3, #116]
 1833 00ec 1846     		mov	r0, r3
 1834 00ee FFF7FEFF 		bl	HAL_DMA_Abort
 1835 00f2 0346     		mov	r3, r0
 1836 00f4 002B     		cmp	r3, #0
 1837 00f6 0DD0     		beq	.L150
 1838 00f8 7B68     		ldr	r3, [r7, #4]
 1839 00fa 5B6F     		ldr	r3, [r3, #116]
 1840 00fc 1846     		mov	r0, r3
 1841 00fe FFF7FEFF 		bl	HAL_DMA_GetError
 1842 0102 0346     		mov	r3, r0
 1843 0104 202B     		cmp	r3, #32
 1844 0106 05D1     		bne	.L150
 1845 0108 7B68     		ldr	r3, [r7, #4]
 1846 010a 1022     		movs	r2, #16
 1847 010c C3F88420 		str	r2, [r3, #132]
 1848 0110 0323     		movs	r3, #3
 1849 0112 03E0     		b	.L145
 1850              	.L150:
 1851 0114 7868     		ldr	r0, [r7, #4]
 1852 0116 FFF7FEFF 		bl	UART_EndRxTransfer
 1853              	.L146:
 1854 011a 0023     		movs	r3, #0
 1855              	.L145:
ARM GAS  C:\msys64\tmp\ccXyuxUj.s 			page 33


 1856 011c 1846     		mov	r0, r3
 1857 011e 4037     		adds	r7, r7, #64
 1858 0120 BD46     		mov	sp, r7
 1859              		@ sp needed
 1860 0122 80BD     		pop	{r7, pc}
 1862              		.section	.text.HAL_UART_Abort,"ax",%progbits
 1863              		.align	1
 1864              		.global	HAL_UART_Abort
 1865              		.syntax unified
 1866              		.thumb
 1867              		.thumb_func
 1869              	HAL_UART_Abort:
 1870              		@ args = 0, pretend = 0, frame = 128
 1871              		@ frame_needed = 1, uses_anonymous_args = 0
 1872 0000 80B5     		push	{r7, lr}
 1873 0002 A0B0     		sub	sp, sp, #128
 1874 0004 00AF     		add	r7, sp, #0
 1875 0006 7860     		str	r0, [r7, #4]
 1876              	.L154:
 1877 0008 7B68     		ldr	r3, [r7, #4]
 1878 000a 1B68     		ldr	r3, [r3]
 1879 000c FB65     		str	r3, [r7, #92]
 1880 000e FB6D     		ldr	r3, [r7, #92]
 1881              		.syntax unified
 1882              	@ 1072 "cmsis/core/cmsis_gcc.h" 1
 1883 0010 53E8003F 		ldrex r3, [r3]
 1884              	@ 0 "" 2
 1885              		.thumb
 1886              		.syntax unified
 1887 0014 BB65     		str	r3, [r7, #88]
 1888 0016 BB6D     		ldr	r3, [r7, #88]
 1889 0018 23F4F073 		bic	r3, r3, #480
 1890 001c FB67     		str	r3, [r7, #124]
 1891 001e 7B68     		ldr	r3, [r7, #4]
 1892 0020 1B68     		ldr	r3, [r3]
 1893 0022 1A46     		mov	r2, r3
 1894 0024 FB6F     		ldr	r3, [r7, #124]
 1895 0026 BB66     		str	r3, [r7, #104]
 1896 0028 7A66     		str	r2, [r7, #100]
 1897 002a 796E     		ldr	r1, [r7, #100]
 1898 002c BA6E     		ldr	r2, [r7, #104]
 1899              		.syntax unified
 1900              	@ 1123 "cmsis/core/cmsis_gcc.h" 1
 1901 002e 41E80023 		strex r3, r2, [r1]
 1902              	@ 0 "" 2
 1903              		.thumb
 1904              		.syntax unified
 1905 0032 3B66     		str	r3, [r7, #96]
 1906 0034 3B6E     		ldr	r3, [r7, #96]
 1907 0036 002B     		cmp	r3, #0
 1908 0038 E6D1     		bne	.L154
 1909              	.L157:
 1910 003a 7B68     		ldr	r3, [r7, #4]
 1911 003c 1B68     		ldr	r3, [r3]
 1912 003e 0833     		adds	r3, r3, #8
 1913 0040 BB64     		str	r3, [r7, #72]
 1914 0042 BB6C     		ldr	r3, [r7, #72]
ARM GAS  C:\msys64\tmp\ccXyuxUj.s 			page 34


 1915              		.syntax unified
 1916              	@ 1072 "cmsis/core/cmsis_gcc.h" 1
 1917 0044 53E8003F 		ldrex r3, [r3]
 1918              	@ 0 "" 2
 1919              		.thumb
 1920              		.syntax unified
 1921 0048 7B64     		str	r3, [r7, #68]
 1922 004a 7B6C     		ldr	r3, [r7, #68]
 1923 004c 23F00103 		bic	r3, r3, #1
 1924 0050 BB67     		str	r3, [r7, #120]
 1925 0052 7B68     		ldr	r3, [r7, #4]
 1926 0054 1B68     		ldr	r3, [r3]
 1927 0056 0833     		adds	r3, r3, #8
 1928 0058 BA6F     		ldr	r2, [r7, #120]
 1929 005a 7A65     		str	r2, [r7, #84]
 1930 005c 3B65     		str	r3, [r7, #80]
 1931 005e 396D     		ldr	r1, [r7, #80]
 1932 0060 7A6D     		ldr	r2, [r7, #84]
 1933              		.syntax unified
 1934              	@ 1123 "cmsis/core/cmsis_gcc.h" 1
 1935 0062 41E80023 		strex r3, r2, [r1]
 1936              	@ 0 "" 2
 1937              		.thumb
 1938              		.syntax unified
 1939 0066 FB64     		str	r3, [r7, #76]
 1940 0068 FB6C     		ldr	r3, [r7, #76]
 1941 006a 002B     		cmp	r3, #0
 1942 006c E5D1     		bne	.L157
 1943 006e 7B68     		ldr	r3, [r7, #4]
 1944 0070 1B6E     		ldr	r3, [r3, #96]
 1945 0072 012B     		cmp	r3, #1
 1946 0074 18D1     		bne	.L158
 1947              	.L161:
 1948 0076 7B68     		ldr	r3, [r7, #4]
 1949 0078 1B68     		ldr	r3, [r3]
 1950 007a 7B63     		str	r3, [r7, #52]
 1951 007c 7B6B     		ldr	r3, [r7, #52]
 1952              		.syntax unified
 1953              	@ 1072 "cmsis/core/cmsis_gcc.h" 1
 1954 007e 53E8003F 		ldrex r3, [r3]
 1955              	@ 0 "" 2
 1956              		.thumb
 1957              		.syntax unified
 1958 0082 3B63     		str	r3, [r7, #48]
 1959 0084 3B6B     		ldr	r3, [r7, #48]
 1960 0086 23F01003 		bic	r3, r3, #16
 1961 008a 7B67     		str	r3, [r7, #116]
 1962 008c 7B68     		ldr	r3, [r7, #4]
 1963 008e 1B68     		ldr	r3, [r3]
 1964 0090 1A46     		mov	r2, r3
 1965 0092 7B6F     		ldr	r3, [r7, #116]
 1966 0094 3B64     		str	r3, [r7, #64]
 1967 0096 FA63     		str	r2, [r7, #60]
 1968 0098 F96B     		ldr	r1, [r7, #60]
 1969 009a 3A6C     		ldr	r2, [r7, #64]
 1970              		.syntax unified
 1971              	@ 1123 "cmsis/core/cmsis_gcc.h" 1
ARM GAS  C:\msys64\tmp\ccXyuxUj.s 			page 35


 1972 009c 41E80023 		strex r3, r2, [r1]
 1973              	@ 0 "" 2
 1974              		.thumb
 1975              		.syntax unified
 1976 00a0 BB63     		str	r3, [r7, #56]
 1977 00a2 BB6B     		ldr	r3, [r7, #56]
 1978 00a4 002B     		cmp	r3, #0
 1979 00a6 E6D1     		bne	.L161
 1980              	.L158:
 1981 00a8 7B68     		ldr	r3, [r7, #4]
 1982 00aa 1B68     		ldr	r3, [r3]
 1983 00ac 9B68     		ldr	r3, [r3, #8]
 1984 00ae 03F08003 		and	r3, r3, #128
 1985 00b2 802B     		cmp	r3, #128
 1986 00b4 37D1     		bne	.L162
 1987              	.L165:
 1988 00b6 7B68     		ldr	r3, [r7, #4]
 1989 00b8 1B68     		ldr	r3, [r3]
 1990 00ba 0833     		adds	r3, r3, #8
 1991 00bc 3B62     		str	r3, [r7, #32]
 1992 00be 3B6A     		ldr	r3, [r7, #32]
 1993              		.syntax unified
 1994              	@ 1072 "cmsis/core/cmsis_gcc.h" 1
 1995 00c0 53E8003F 		ldrex r3, [r3]
 1996              	@ 0 "" 2
 1997              		.thumb
 1998              		.syntax unified
 1999 00c4 FB61     		str	r3, [r7, #28]
 2000 00c6 FB69     		ldr	r3, [r7, #28]
 2001 00c8 23F08003 		bic	r3, r3, #128
 2002 00cc 3B67     		str	r3, [r7, #112]
 2003 00ce 7B68     		ldr	r3, [r7, #4]
 2004 00d0 1B68     		ldr	r3, [r3]
 2005 00d2 0833     		adds	r3, r3, #8
 2006 00d4 3A6F     		ldr	r2, [r7, #112]
 2007 00d6 FA62     		str	r2, [r7, #44]
 2008 00d8 BB62     		str	r3, [r7, #40]
 2009 00da B96A     		ldr	r1, [r7, #40]
 2010 00dc FA6A     		ldr	r2, [r7, #44]
 2011              		.syntax unified
 2012              	@ 1123 "cmsis/core/cmsis_gcc.h" 1
 2013 00de 41E80023 		strex r3, r2, [r1]
 2014              	@ 0 "" 2
 2015              		.thumb
 2016              		.syntax unified
 2017 00e2 7B62     		str	r3, [r7, #36]
 2018 00e4 7B6A     		ldr	r3, [r7, #36]
 2019 00e6 002B     		cmp	r3, #0
 2020 00e8 E5D1     		bne	.L165
 2021 00ea 7B68     		ldr	r3, [r7, #4]
 2022 00ec 1B6F     		ldr	r3, [r3, #112]
 2023 00ee 002B     		cmp	r3, #0
 2024 00f0 19D0     		beq	.L162
 2025 00f2 7B68     		ldr	r3, [r7, #4]
 2026 00f4 1B6F     		ldr	r3, [r3, #112]
 2027 00f6 0022     		movs	r2, #0
 2028 00f8 1A65     		str	r2, [r3, #80]
ARM GAS  C:\msys64\tmp\ccXyuxUj.s 			page 36


 2029 00fa 7B68     		ldr	r3, [r7, #4]
 2030 00fc 1B6F     		ldr	r3, [r3, #112]
 2031 00fe 1846     		mov	r0, r3
 2032 0100 FFF7FEFF 		bl	HAL_DMA_Abort
 2033 0104 0346     		mov	r3, r0
 2034 0106 002B     		cmp	r3, #0
 2035 0108 0DD0     		beq	.L162
 2036 010a 7B68     		ldr	r3, [r7, #4]
 2037 010c 1B6F     		ldr	r3, [r3, #112]
 2038 010e 1846     		mov	r0, r3
 2039 0110 FFF7FEFF 		bl	HAL_DMA_GetError
 2040 0114 0346     		mov	r3, r0
 2041 0116 202B     		cmp	r3, #32
 2042 0118 05D1     		bne	.L162
 2043 011a 7B68     		ldr	r3, [r7, #4]
 2044 011c 1022     		movs	r2, #16
 2045 011e C3F88420 		str	r2, [r3, #132]
 2046 0122 0323     		movs	r3, #3
 2047 0124 61E0     		b	.L166
 2048              	.L162:
 2049 0126 7B68     		ldr	r3, [r7, #4]
 2050 0128 1B68     		ldr	r3, [r3]
 2051 012a 9B68     		ldr	r3, [r3, #8]
 2052 012c 03F04003 		and	r3, r3, #64
 2053 0130 402B     		cmp	r3, #64
 2054 0132 37D1     		bne	.L167
 2055              	.L170:
 2056 0134 7B68     		ldr	r3, [r7, #4]
 2057 0136 1B68     		ldr	r3, [r3]
 2058 0138 0833     		adds	r3, r3, #8
 2059 013a FB60     		str	r3, [r7, #12]
 2060 013c FB68     		ldr	r3, [r7, #12]
 2061              		.syntax unified
 2062              	@ 1072 "cmsis/core/cmsis_gcc.h" 1
 2063 013e 53E8003F 		ldrex r3, [r3]
 2064              	@ 0 "" 2
 2065              		.thumb
 2066              		.syntax unified
 2067 0142 BB60     		str	r3, [r7, #8]
 2068 0144 BB68     		ldr	r3, [r7, #8]
 2069 0146 23F04003 		bic	r3, r3, #64
 2070 014a FB66     		str	r3, [r7, #108]
 2071 014c 7B68     		ldr	r3, [r7, #4]
 2072 014e 1B68     		ldr	r3, [r3]
 2073 0150 0833     		adds	r3, r3, #8
 2074 0152 FA6E     		ldr	r2, [r7, #108]
 2075 0154 BA61     		str	r2, [r7, #24]
 2076 0156 7B61     		str	r3, [r7, #20]
 2077 0158 7969     		ldr	r1, [r7, #20]
 2078 015a BA69     		ldr	r2, [r7, #24]
 2079              		.syntax unified
 2080              	@ 1123 "cmsis/core/cmsis_gcc.h" 1
 2081 015c 41E80023 		strex r3, r2, [r1]
 2082              	@ 0 "" 2
 2083              		.thumb
 2084              		.syntax unified
 2085 0160 3B61     		str	r3, [r7, #16]
ARM GAS  C:\msys64\tmp\ccXyuxUj.s 			page 37


 2086 0162 3B69     		ldr	r3, [r7, #16]
 2087 0164 002B     		cmp	r3, #0
 2088 0166 E5D1     		bne	.L170
 2089 0168 7B68     		ldr	r3, [r7, #4]
 2090 016a 5B6F     		ldr	r3, [r3, #116]
 2091 016c 002B     		cmp	r3, #0
 2092 016e 19D0     		beq	.L167
 2093 0170 7B68     		ldr	r3, [r7, #4]
 2094 0172 5B6F     		ldr	r3, [r3, #116]
 2095 0174 0022     		movs	r2, #0
 2096 0176 1A65     		str	r2, [r3, #80]
 2097 0178 7B68     		ldr	r3, [r7, #4]
 2098 017a 5B6F     		ldr	r3, [r3, #116]
 2099 017c 1846     		mov	r0, r3
 2100 017e FFF7FEFF 		bl	HAL_DMA_Abort
 2101 0182 0346     		mov	r3, r0
 2102 0184 002B     		cmp	r3, #0
 2103 0186 0DD0     		beq	.L167
 2104 0188 7B68     		ldr	r3, [r7, #4]
 2105 018a 5B6F     		ldr	r3, [r3, #116]
 2106 018c 1846     		mov	r0, r3
 2107 018e FFF7FEFF 		bl	HAL_DMA_GetError
 2108 0192 0346     		mov	r3, r0
 2109 0194 202B     		cmp	r3, #32
 2110 0196 05D1     		bne	.L167
 2111 0198 7B68     		ldr	r3, [r7, #4]
 2112 019a 1022     		movs	r2, #16
 2113 019c C3F88420 		str	r2, [r3, #132]
 2114 01a0 0323     		movs	r3, #3
 2115 01a2 22E0     		b	.L166
 2116              	.L167:
 2117 01a4 7B68     		ldr	r3, [r7, #4]
 2118 01a6 0022     		movs	r2, #0
 2119 01a8 A3F85220 		strh	r2, [r3, #82]	@ movhi
 2120 01ac 7B68     		ldr	r3, [r7, #4]
 2121 01ae 0022     		movs	r2, #0
 2122 01b0 A3F85A20 		strh	r2, [r3, #90]	@ movhi
 2123 01b4 7B68     		ldr	r3, [r7, #4]
 2124 01b6 1B68     		ldr	r3, [r3]
 2125 01b8 0F22     		movs	r2, #15
 2126 01ba 1A62     		str	r2, [r3, #32]
 2127 01bc 7B68     		ldr	r3, [r7, #4]
 2128 01be 1B68     		ldr	r3, [r3]
 2129 01c0 9A69     		ldr	r2, [r3, #24]
 2130 01c2 7B68     		ldr	r3, [r7, #4]
 2131 01c4 1B68     		ldr	r3, [r3]
 2132 01c6 42F00802 		orr	r2, r2, #8
 2133 01ca 9A61     		str	r2, [r3, #24]
 2134 01cc 7B68     		ldr	r3, [r7, #4]
 2135 01ce 2022     		movs	r2, #32
 2136 01d0 DA67     		str	r2, [r3, #124]
 2137 01d2 7B68     		ldr	r3, [r7, #4]
 2138 01d4 2022     		movs	r2, #32
 2139 01d6 C3F88020 		str	r2, [r3, #128]
 2140 01da 7B68     		ldr	r3, [r7, #4]
 2141 01dc 0022     		movs	r2, #0
 2142 01de 1A66     		str	r2, [r3, #96]
ARM GAS  C:\msys64\tmp\ccXyuxUj.s 			page 38


 2143 01e0 7B68     		ldr	r3, [r7, #4]
 2144 01e2 0022     		movs	r2, #0
 2145 01e4 C3F88420 		str	r2, [r3, #132]
 2146 01e8 0023     		movs	r3, #0
 2147              	.L166:
 2148 01ea 1846     		mov	r0, r3
 2149 01ec 8037     		adds	r7, r7, #128
 2150 01ee BD46     		mov	sp, r7
 2151              		@ sp needed
 2152 01f0 80BD     		pop	{r7, pc}
 2154              		.section	.text.HAL_UART_AbortTransmit,"ax",%progbits
 2155              		.align	1
 2156              		.global	HAL_UART_AbortTransmit
 2157              		.syntax unified
 2158              		.thumb
 2159              		.thumb_func
 2161              	HAL_UART_AbortTransmit:
 2162              		@ args = 0, pretend = 0, frame = 56
 2163              		@ frame_needed = 1, uses_anonymous_args = 0
 2164 0000 80B5     		push	{r7, lr}
 2165 0002 8EB0     		sub	sp, sp, #56
 2166 0004 00AF     		add	r7, sp, #0
 2167 0006 7860     		str	r0, [r7, #4]
 2168              	.L174:
 2169 0008 7B68     		ldr	r3, [r7, #4]
 2170 000a 1B68     		ldr	r3, [r3]
 2171 000c 3B62     		str	r3, [r7, #32]
 2172 000e 3B6A     		ldr	r3, [r7, #32]
 2173              		.syntax unified
 2174              	@ 1072 "cmsis/core/cmsis_gcc.h" 1
 2175 0010 53E8003F 		ldrex r3, [r3]
 2176              	@ 0 "" 2
 2177              		.thumb
 2178              		.syntax unified
 2179 0014 FB61     		str	r3, [r7, #28]
 2180 0016 FB69     		ldr	r3, [r7, #28]
 2181 0018 23F0C003 		bic	r3, r3, #192
 2182 001c 7B63     		str	r3, [r7, #52]
 2183 001e 7B68     		ldr	r3, [r7, #4]
 2184 0020 1B68     		ldr	r3, [r3]
 2185 0022 1A46     		mov	r2, r3
 2186 0024 7B6B     		ldr	r3, [r7, #52]
 2187 0026 FB62     		str	r3, [r7, #44]
 2188 0028 BA62     		str	r2, [r7, #40]
 2189 002a B96A     		ldr	r1, [r7, #40]
 2190 002c FA6A     		ldr	r2, [r7, #44]
 2191              		.syntax unified
 2192              	@ 1123 "cmsis/core/cmsis_gcc.h" 1
 2193 002e 41E80023 		strex r3, r2, [r1]
 2194              	@ 0 "" 2
 2195              		.thumb
 2196              		.syntax unified
 2197 0032 7B62     		str	r3, [r7, #36]
 2198 0034 7B6A     		ldr	r3, [r7, #36]
 2199 0036 002B     		cmp	r3, #0
 2200 0038 E6D1     		bne	.L174
 2201 003a 7B68     		ldr	r3, [r7, #4]
ARM GAS  C:\msys64\tmp\ccXyuxUj.s 			page 39


 2202 003c 1B68     		ldr	r3, [r3]
 2203 003e 9B68     		ldr	r3, [r3, #8]
 2204 0040 03F08003 		and	r3, r3, #128
 2205 0044 802B     		cmp	r3, #128
 2206 0046 37D1     		bne	.L175
 2207              	.L178:
 2208 0048 7B68     		ldr	r3, [r7, #4]
 2209 004a 1B68     		ldr	r3, [r3]
 2210 004c 0833     		adds	r3, r3, #8
 2211 004e FB60     		str	r3, [r7, #12]
 2212 0050 FB68     		ldr	r3, [r7, #12]
 2213              		.syntax unified
 2214              	@ 1072 "cmsis/core/cmsis_gcc.h" 1
 2215 0052 53E8003F 		ldrex r3, [r3]
 2216              	@ 0 "" 2
 2217              		.thumb
 2218              		.syntax unified
 2219 0056 BB60     		str	r3, [r7, #8]
 2220 0058 BB68     		ldr	r3, [r7, #8]
 2221 005a 23F08003 		bic	r3, r3, #128
 2222 005e 3B63     		str	r3, [r7, #48]
 2223 0060 7B68     		ldr	r3, [r7, #4]
 2224 0062 1B68     		ldr	r3, [r3]
 2225 0064 0833     		adds	r3, r3, #8
 2226 0066 3A6B     		ldr	r2, [r7, #48]
 2227 0068 BA61     		str	r2, [r7, #24]
 2228 006a 7B61     		str	r3, [r7, #20]
 2229 006c 7969     		ldr	r1, [r7, #20]
 2230 006e BA69     		ldr	r2, [r7, #24]
 2231              		.syntax unified
 2232              	@ 1123 "cmsis/core/cmsis_gcc.h" 1
 2233 0070 41E80023 		strex r3, r2, [r1]
 2234              	@ 0 "" 2
 2235              		.thumb
 2236              		.syntax unified
 2237 0074 3B61     		str	r3, [r7, #16]
 2238 0076 3B69     		ldr	r3, [r7, #16]
 2239 0078 002B     		cmp	r3, #0
 2240 007a E5D1     		bne	.L178
 2241 007c 7B68     		ldr	r3, [r7, #4]
 2242 007e 1B6F     		ldr	r3, [r3, #112]
 2243 0080 002B     		cmp	r3, #0
 2244 0082 19D0     		beq	.L175
 2245 0084 7B68     		ldr	r3, [r7, #4]
 2246 0086 1B6F     		ldr	r3, [r3, #112]
 2247 0088 0022     		movs	r2, #0
 2248 008a 1A65     		str	r2, [r3, #80]
 2249 008c 7B68     		ldr	r3, [r7, #4]
 2250 008e 1B6F     		ldr	r3, [r3, #112]
 2251 0090 1846     		mov	r0, r3
 2252 0092 FFF7FEFF 		bl	HAL_DMA_Abort
 2253 0096 0346     		mov	r3, r0
 2254 0098 002B     		cmp	r3, #0
 2255 009a 0DD0     		beq	.L175
 2256 009c 7B68     		ldr	r3, [r7, #4]
 2257 009e 1B6F     		ldr	r3, [r3, #112]
 2258 00a0 1846     		mov	r0, r3
ARM GAS  C:\msys64\tmp\ccXyuxUj.s 			page 40


 2259 00a2 FFF7FEFF 		bl	HAL_DMA_GetError
 2260 00a6 0346     		mov	r3, r0
 2261 00a8 202B     		cmp	r3, #32
 2262 00aa 05D1     		bne	.L175
 2263 00ac 7B68     		ldr	r3, [r7, #4]
 2264 00ae 1022     		movs	r2, #16
 2265 00b0 C3F88420 		str	r2, [r3, #132]
 2266 00b4 0323     		movs	r3, #3
 2267 00b6 07E0     		b	.L179
 2268              	.L175:
 2269 00b8 7B68     		ldr	r3, [r7, #4]
 2270 00ba 0022     		movs	r2, #0
 2271 00bc A3F85220 		strh	r2, [r3, #82]	@ movhi
 2272 00c0 7B68     		ldr	r3, [r7, #4]
 2273 00c2 2022     		movs	r2, #32
 2274 00c4 DA67     		str	r2, [r3, #124]
 2275 00c6 0023     		movs	r3, #0
 2276              	.L179:
 2277 00c8 1846     		mov	r0, r3
 2278 00ca 3837     		adds	r7, r7, #56
 2279 00cc BD46     		mov	sp, r7
 2280              		@ sp needed
 2281 00ce 80BD     		pop	{r7, pc}
 2283              		.section	.text.HAL_UART_AbortReceive,"ax",%progbits
 2284              		.align	1
 2285              		.global	HAL_UART_AbortReceive
 2286              		.syntax unified
 2287              		.thumb
 2288              		.thumb_func
 2290              	HAL_UART_AbortReceive:
 2291              		@ args = 0, pretend = 0, frame = 104
 2292              		@ frame_needed = 1, uses_anonymous_args = 0
 2293 0000 80B5     		push	{r7, lr}
 2294 0002 9AB0     		sub	sp, sp, #104
 2295 0004 00AF     		add	r7, sp, #0
 2296 0006 7860     		str	r0, [r7, #4]
 2297              	.L183:
 2298 0008 7B68     		ldr	r3, [r7, #4]
 2299 000a 1B68     		ldr	r3, [r3]
 2300 000c BB64     		str	r3, [r7, #72]
 2301 000e BB6C     		ldr	r3, [r7, #72]
 2302              		.syntax unified
 2303              	@ 1072 "cmsis/core/cmsis_gcc.h" 1
 2304 0010 53E8003F 		ldrex r3, [r3]
 2305              	@ 0 "" 2
 2306              		.thumb
 2307              		.syntax unified
 2308 0014 7B64     		str	r3, [r7, #68]
 2309 0016 7B6C     		ldr	r3, [r7, #68]
 2310 0018 23F49073 		bic	r3, r3, #288
 2311 001c 7B66     		str	r3, [r7, #100]
 2312 001e 7B68     		ldr	r3, [r7, #4]
 2313 0020 1B68     		ldr	r3, [r3]
 2314 0022 1A46     		mov	r2, r3
 2315 0024 7B6E     		ldr	r3, [r7, #100]
 2316 0026 7B65     		str	r3, [r7, #84]
 2317 0028 3A65     		str	r2, [r7, #80]
ARM GAS  C:\msys64\tmp\ccXyuxUj.s 			page 41


 2318 002a 396D     		ldr	r1, [r7, #80]
 2319 002c 7A6D     		ldr	r2, [r7, #84]
 2320              		.syntax unified
 2321              	@ 1123 "cmsis/core/cmsis_gcc.h" 1
 2322 002e 41E80023 		strex r3, r2, [r1]
 2323              	@ 0 "" 2
 2324              		.thumb
 2325              		.syntax unified
 2326 0032 FB64     		str	r3, [r7, #76]
 2327 0034 FB6C     		ldr	r3, [r7, #76]
 2328 0036 002B     		cmp	r3, #0
 2329 0038 E6D1     		bne	.L183
 2330              	.L186:
 2331 003a 7B68     		ldr	r3, [r7, #4]
 2332 003c 1B68     		ldr	r3, [r3]
 2333 003e 0833     		adds	r3, r3, #8
 2334 0040 7B63     		str	r3, [r7, #52]
 2335 0042 7B6B     		ldr	r3, [r7, #52]
 2336              		.syntax unified
 2337              	@ 1072 "cmsis/core/cmsis_gcc.h" 1
 2338 0044 53E8003F 		ldrex r3, [r3]
 2339              	@ 0 "" 2
 2340              		.thumb
 2341              		.syntax unified
 2342 0048 3B63     		str	r3, [r7, #48]
 2343 004a 3B6B     		ldr	r3, [r7, #48]
 2344 004c 23F00103 		bic	r3, r3, #1
 2345 0050 3B66     		str	r3, [r7, #96]
 2346 0052 7B68     		ldr	r3, [r7, #4]
 2347 0054 1B68     		ldr	r3, [r3]
 2348 0056 0833     		adds	r3, r3, #8
 2349 0058 3A6E     		ldr	r2, [r7, #96]
 2350 005a 3A64     		str	r2, [r7, #64]
 2351 005c FB63     		str	r3, [r7, #60]
 2352 005e F96B     		ldr	r1, [r7, #60]
 2353 0060 3A6C     		ldr	r2, [r7, #64]
 2354              		.syntax unified
 2355              	@ 1123 "cmsis/core/cmsis_gcc.h" 1
 2356 0062 41E80023 		strex r3, r2, [r1]
 2357              	@ 0 "" 2
 2358              		.thumb
 2359              		.syntax unified
 2360 0066 BB63     		str	r3, [r7, #56]
 2361 0068 BB6B     		ldr	r3, [r7, #56]
 2362 006a 002B     		cmp	r3, #0
 2363 006c E5D1     		bne	.L186
 2364 006e 7B68     		ldr	r3, [r7, #4]
 2365 0070 1B6E     		ldr	r3, [r3, #96]
 2366 0072 012B     		cmp	r3, #1
 2367 0074 18D1     		bne	.L187
 2368              	.L190:
 2369 0076 7B68     		ldr	r3, [r7, #4]
 2370 0078 1B68     		ldr	r3, [r3]
 2371 007a 3B62     		str	r3, [r7, #32]
 2372 007c 3B6A     		ldr	r3, [r7, #32]
 2373              		.syntax unified
 2374              	@ 1072 "cmsis/core/cmsis_gcc.h" 1
ARM GAS  C:\msys64\tmp\ccXyuxUj.s 			page 42


 2375 007e 53E8003F 		ldrex r3, [r3]
 2376              	@ 0 "" 2
 2377              		.thumb
 2378              		.syntax unified
 2379 0082 FB61     		str	r3, [r7, #28]
 2380 0084 FB69     		ldr	r3, [r7, #28]
 2381 0086 23F01003 		bic	r3, r3, #16
 2382 008a FB65     		str	r3, [r7, #92]
 2383 008c 7B68     		ldr	r3, [r7, #4]
 2384 008e 1B68     		ldr	r3, [r3]
 2385 0090 1A46     		mov	r2, r3
 2386 0092 FB6D     		ldr	r3, [r7, #92]
 2387 0094 FB62     		str	r3, [r7, #44]
 2388 0096 BA62     		str	r2, [r7, #40]
 2389 0098 B96A     		ldr	r1, [r7, #40]
 2390 009a FA6A     		ldr	r2, [r7, #44]
 2391              		.syntax unified
 2392              	@ 1123 "cmsis/core/cmsis_gcc.h" 1
 2393 009c 41E80023 		strex r3, r2, [r1]
 2394              	@ 0 "" 2
 2395              		.thumb
 2396              		.syntax unified
 2397 00a0 7B62     		str	r3, [r7, #36]
 2398 00a2 7B6A     		ldr	r3, [r7, #36]
 2399 00a4 002B     		cmp	r3, #0
 2400 00a6 E6D1     		bne	.L190
 2401              	.L187:
 2402 00a8 7B68     		ldr	r3, [r7, #4]
 2403 00aa 1B68     		ldr	r3, [r3]
 2404 00ac 9B68     		ldr	r3, [r3, #8]
 2405 00ae 03F04003 		and	r3, r3, #64
 2406 00b2 402B     		cmp	r3, #64
 2407 00b4 37D1     		bne	.L191
 2408              	.L194:
 2409 00b6 7B68     		ldr	r3, [r7, #4]
 2410 00b8 1B68     		ldr	r3, [r3]
 2411 00ba 0833     		adds	r3, r3, #8
 2412 00bc FB60     		str	r3, [r7, #12]
 2413 00be FB68     		ldr	r3, [r7, #12]
 2414              		.syntax unified
 2415              	@ 1072 "cmsis/core/cmsis_gcc.h" 1
 2416 00c0 53E8003F 		ldrex r3, [r3]
 2417              	@ 0 "" 2
 2418              		.thumb
 2419              		.syntax unified
 2420 00c4 BB60     		str	r3, [r7, #8]
 2421 00c6 BB68     		ldr	r3, [r7, #8]
 2422 00c8 23F04003 		bic	r3, r3, #64
 2423 00cc BB65     		str	r3, [r7, #88]
 2424 00ce 7B68     		ldr	r3, [r7, #4]
 2425 00d0 1B68     		ldr	r3, [r3]
 2426 00d2 0833     		adds	r3, r3, #8
 2427 00d4 BA6D     		ldr	r2, [r7, #88]
 2428 00d6 BA61     		str	r2, [r7, #24]
 2429 00d8 7B61     		str	r3, [r7, #20]
 2430 00da 7969     		ldr	r1, [r7, #20]
 2431 00dc BA69     		ldr	r2, [r7, #24]
ARM GAS  C:\msys64\tmp\ccXyuxUj.s 			page 43


 2432              		.syntax unified
 2433              	@ 1123 "cmsis/core/cmsis_gcc.h" 1
 2434 00de 41E80023 		strex r3, r2, [r1]
 2435              	@ 0 "" 2
 2436              		.thumb
 2437              		.syntax unified
 2438 00e2 3B61     		str	r3, [r7, #16]
 2439 00e4 3B69     		ldr	r3, [r7, #16]
 2440 00e6 002B     		cmp	r3, #0
 2441 00e8 E5D1     		bne	.L194
 2442 00ea 7B68     		ldr	r3, [r7, #4]
 2443 00ec 5B6F     		ldr	r3, [r3, #116]
 2444 00ee 002B     		cmp	r3, #0
 2445 00f0 19D0     		beq	.L191
 2446 00f2 7B68     		ldr	r3, [r7, #4]
 2447 00f4 5B6F     		ldr	r3, [r3, #116]
 2448 00f6 0022     		movs	r2, #0
 2449 00f8 1A65     		str	r2, [r3, #80]
 2450 00fa 7B68     		ldr	r3, [r7, #4]
 2451 00fc 5B6F     		ldr	r3, [r3, #116]
 2452 00fe 1846     		mov	r0, r3
 2453 0100 FFF7FEFF 		bl	HAL_DMA_Abort
 2454 0104 0346     		mov	r3, r0
 2455 0106 002B     		cmp	r3, #0
 2456 0108 0DD0     		beq	.L191
 2457 010a 7B68     		ldr	r3, [r7, #4]
 2458 010c 5B6F     		ldr	r3, [r3, #116]
 2459 010e 1846     		mov	r0, r3
 2460 0110 FFF7FEFF 		bl	HAL_DMA_GetError
 2461 0114 0346     		mov	r3, r0
 2462 0116 202B     		cmp	r3, #32
 2463 0118 05D1     		bne	.L191
 2464 011a 7B68     		ldr	r3, [r7, #4]
 2465 011c 1022     		movs	r2, #16
 2466 011e C3F88420 		str	r2, [r3, #132]
 2467 0122 0323     		movs	r3, #3
 2468 0124 17E0     		b	.L195
 2469              	.L191:
 2470 0126 7B68     		ldr	r3, [r7, #4]
 2471 0128 0022     		movs	r2, #0
 2472 012a A3F85A20 		strh	r2, [r3, #90]	@ movhi
 2473 012e 7B68     		ldr	r3, [r7, #4]
 2474 0130 1B68     		ldr	r3, [r3]
 2475 0132 0F22     		movs	r2, #15
 2476 0134 1A62     		str	r2, [r3, #32]
 2477 0136 7B68     		ldr	r3, [r7, #4]
 2478 0138 1B68     		ldr	r3, [r3]
 2479 013a 9A69     		ldr	r2, [r3, #24]
 2480 013c 7B68     		ldr	r3, [r7, #4]
 2481 013e 1B68     		ldr	r3, [r3]
 2482 0140 42F00802 		orr	r2, r2, #8
 2483 0144 9A61     		str	r2, [r3, #24]
 2484 0146 7B68     		ldr	r3, [r7, #4]
 2485 0148 2022     		movs	r2, #32
 2486 014a C3F88020 		str	r2, [r3, #128]
 2487 014e 7B68     		ldr	r3, [r7, #4]
 2488 0150 0022     		movs	r2, #0
ARM GAS  C:\msys64\tmp\ccXyuxUj.s 			page 44


 2489 0152 1A66     		str	r2, [r3, #96]
 2490 0154 0023     		movs	r3, #0
 2491              	.L195:
 2492 0156 1846     		mov	r0, r3
 2493 0158 6837     		adds	r7, r7, #104
 2494 015a BD46     		mov	sp, r7
 2495              		@ sp needed
 2496 015c 80BD     		pop	{r7, pc}
 2498              		.section	.text.HAL_UART_Abort_IT,"ax",%progbits
 2499              		.align	1
 2500              		.global	HAL_UART_Abort_IT
 2501              		.syntax unified
 2502              		.thumb
 2503              		.thumb_func
 2505              	HAL_UART_Abort_IT:
 2506              		@ args = 0, pretend = 0, frame = 136
 2507              		@ frame_needed = 1, uses_anonymous_args = 0
 2508 0000 80B5     		push	{r7, lr}
 2509 0002 A2B0     		sub	sp, sp, #136
 2510 0004 00AF     		add	r7, sp, #0
 2511 0006 7860     		str	r0, [r7, #4]
 2512 0008 0123     		movs	r3, #1
 2513 000a C7F88430 		str	r3, [r7, #132]
 2514              	.L199:
 2515 000e 7B68     		ldr	r3, [r7, #4]
 2516 0010 1B68     		ldr	r3, [r3]
 2517 0012 3B66     		str	r3, [r7, #96]
 2518 0014 3B6E     		ldr	r3, [r7, #96]
 2519              		.syntax unified
 2520              	@ 1072 "cmsis/core/cmsis_gcc.h" 1
 2521 0016 53E8003F 		ldrex r3, [r3]
 2522              	@ 0 "" 2
 2523              		.thumb
 2524              		.syntax unified
 2525 001a FB65     		str	r3, [r7, #92]
 2526 001c FB6D     		ldr	r3, [r7, #92]
 2527 001e 23F4F073 		bic	r3, r3, #480
 2528 0022 C7F88030 		str	r3, [r7, #128]
 2529 0026 7B68     		ldr	r3, [r7, #4]
 2530 0028 1B68     		ldr	r3, [r3]
 2531 002a 1A46     		mov	r2, r3
 2532 002c D7F88030 		ldr	r3, [r7, #128]
 2533 0030 FB66     		str	r3, [r7, #108]
 2534 0032 BA66     		str	r2, [r7, #104]
 2535 0034 B96E     		ldr	r1, [r7, #104]
 2536 0036 FA6E     		ldr	r2, [r7, #108]
 2537              		.syntax unified
 2538              	@ 1123 "cmsis/core/cmsis_gcc.h" 1
 2539 0038 41E80023 		strex r3, r2, [r1]
 2540              	@ 0 "" 2
 2541              		.thumb
 2542              		.syntax unified
 2543 003c 7B66     		str	r3, [r7, #100]
 2544 003e 7B6E     		ldr	r3, [r7, #100]
 2545 0040 002B     		cmp	r3, #0
 2546 0042 E4D1     		bne	.L199
 2547              	.L202:
ARM GAS  C:\msys64\tmp\ccXyuxUj.s 			page 45


 2548 0044 7B68     		ldr	r3, [r7, #4]
 2549 0046 1B68     		ldr	r3, [r3]
 2550 0048 0833     		adds	r3, r3, #8
 2551 004a FB64     		str	r3, [r7, #76]
 2552 004c FB6C     		ldr	r3, [r7, #76]
 2553              		.syntax unified
 2554              	@ 1072 "cmsis/core/cmsis_gcc.h" 1
 2555 004e 53E8003F 		ldrex r3, [r3]
 2556              	@ 0 "" 2
 2557              		.thumb
 2558              		.syntax unified
 2559 0052 BB64     		str	r3, [r7, #72]
 2560 0054 BB6C     		ldr	r3, [r7, #72]
 2561 0056 23F00103 		bic	r3, r3, #1
 2562 005a FB67     		str	r3, [r7, #124]
 2563 005c 7B68     		ldr	r3, [r7, #4]
 2564 005e 1B68     		ldr	r3, [r3]
 2565 0060 0833     		adds	r3, r3, #8
 2566 0062 FA6F     		ldr	r2, [r7, #124]
 2567 0064 BA65     		str	r2, [r7, #88]
 2568 0066 7B65     		str	r3, [r7, #84]
 2569 0068 796D     		ldr	r1, [r7, #84]
 2570 006a BA6D     		ldr	r2, [r7, #88]
 2571              		.syntax unified
 2572              	@ 1123 "cmsis/core/cmsis_gcc.h" 1
 2573 006c 41E80023 		strex r3, r2, [r1]
 2574              	@ 0 "" 2
 2575              		.thumb
 2576              		.syntax unified
 2577 0070 3B65     		str	r3, [r7, #80]
 2578 0072 3B6D     		ldr	r3, [r7, #80]
 2579 0074 002B     		cmp	r3, #0
 2580 0076 E5D1     		bne	.L202
 2581 0078 7B68     		ldr	r3, [r7, #4]
 2582 007a 1B6E     		ldr	r3, [r3, #96]
 2583 007c 012B     		cmp	r3, #1
 2584 007e 18D1     		bne	.L203
 2585              	.L206:
 2586 0080 7B68     		ldr	r3, [r7, #4]
 2587 0082 1B68     		ldr	r3, [r3]
 2588 0084 BB63     		str	r3, [r7, #56]
 2589 0086 BB6B     		ldr	r3, [r7, #56]
 2590              		.syntax unified
 2591              	@ 1072 "cmsis/core/cmsis_gcc.h" 1
 2592 0088 53E8003F 		ldrex r3, [r3]
 2593              	@ 0 "" 2
 2594              		.thumb
 2595              		.syntax unified
 2596 008c 7B63     		str	r3, [r7, #52]
 2597 008e 7B6B     		ldr	r3, [r7, #52]
 2598 0090 23F01003 		bic	r3, r3, #16
 2599 0094 BB67     		str	r3, [r7, #120]
 2600 0096 7B68     		ldr	r3, [r7, #4]
 2601 0098 1B68     		ldr	r3, [r3]
 2602 009a 1A46     		mov	r2, r3
 2603 009c BB6F     		ldr	r3, [r7, #120]
 2604 009e 7B64     		str	r3, [r7, #68]
ARM GAS  C:\msys64\tmp\ccXyuxUj.s 			page 46


 2605 00a0 3A64     		str	r2, [r7, #64]
 2606 00a2 396C     		ldr	r1, [r7, #64]
 2607 00a4 7A6C     		ldr	r2, [r7, #68]
 2608              		.syntax unified
 2609              	@ 1123 "cmsis/core/cmsis_gcc.h" 1
 2610 00a6 41E80023 		strex r3, r2, [r1]
 2611              	@ 0 "" 2
 2612              		.thumb
 2613              		.syntax unified
 2614 00aa FB63     		str	r3, [r7, #60]
 2615 00ac FB6B     		ldr	r3, [r7, #60]
 2616 00ae 002B     		cmp	r3, #0
 2617 00b0 E6D1     		bne	.L206
 2618              	.L203:
 2619 00b2 7B68     		ldr	r3, [r7, #4]
 2620 00b4 1B6F     		ldr	r3, [r3, #112]
 2621 00b6 002B     		cmp	r3, #0
 2622 00b8 0FD0     		beq	.L207
 2623 00ba 7B68     		ldr	r3, [r7, #4]
 2624 00bc 1B68     		ldr	r3, [r3]
 2625 00be 9B68     		ldr	r3, [r3, #8]
 2626 00c0 03F08003 		and	r3, r3, #128
 2627 00c4 802B     		cmp	r3, #128
 2628 00c6 04D1     		bne	.L208
 2629 00c8 7B68     		ldr	r3, [r7, #4]
 2630 00ca 1B6F     		ldr	r3, [r3, #112]
 2631 00cc 5D4A     		ldr	r2, .L223
 2632 00ce 1A65     		str	r2, [r3, #80]
 2633 00d0 03E0     		b	.L207
 2634              	.L208:
 2635 00d2 7B68     		ldr	r3, [r7, #4]
 2636 00d4 1B6F     		ldr	r3, [r3, #112]
 2637 00d6 0022     		movs	r2, #0
 2638 00d8 1A65     		str	r2, [r3, #80]
 2639              	.L207:
 2640 00da 7B68     		ldr	r3, [r7, #4]
 2641 00dc 5B6F     		ldr	r3, [r3, #116]
 2642 00de 002B     		cmp	r3, #0
 2643 00e0 0FD0     		beq	.L209
 2644 00e2 7B68     		ldr	r3, [r7, #4]
 2645 00e4 1B68     		ldr	r3, [r3]
 2646 00e6 9B68     		ldr	r3, [r3, #8]
 2647 00e8 03F04003 		and	r3, r3, #64
 2648 00ec 402B     		cmp	r3, #64
 2649 00ee 04D1     		bne	.L210
 2650 00f0 7B68     		ldr	r3, [r7, #4]
 2651 00f2 5B6F     		ldr	r3, [r3, #116]
 2652 00f4 544A     		ldr	r2, .L223+4
 2653 00f6 1A65     		str	r2, [r3, #80]
 2654 00f8 03E0     		b	.L209
 2655              	.L210:
 2656 00fa 7B68     		ldr	r3, [r7, #4]
 2657 00fc 5B6F     		ldr	r3, [r3, #116]
 2658 00fe 0022     		movs	r2, #0
 2659 0100 1A65     		str	r2, [r3, #80]
 2660              	.L209:
 2661 0102 7B68     		ldr	r3, [r7, #4]
ARM GAS  C:\msys64\tmp\ccXyuxUj.s 			page 47


 2662 0104 1B68     		ldr	r3, [r3]
 2663 0106 9B68     		ldr	r3, [r3, #8]
 2664 0108 03F08003 		and	r3, r3, #128
 2665 010c 802B     		cmp	r3, #128
 2666 010e 2DD1     		bne	.L211
 2667              	.L214:
 2668 0110 7B68     		ldr	r3, [r7, #4]
 2669 0112 1B68     		ldr	r3, [r3]
 2670 0114 0833     		adds	r3, r3, #8
 2671 0116 7B62     		str	r3, [r7, #36]
 2672 0118 7B6A     		ldr	r3, [r7, #36]
 2673              		.syntax unified
 2674              	@ 1072 "cmsis/core/cmsis_gcc.h" 1
 2675 011a 53E8003F 		ldrex r3, [r3]
 2676              	@ 0 "" 2
 2677              		.thumb
 2678              		.syntax unified
 2679 011e 3B62     		str	r3, [r7, #32]
 2680 0120 3B6A     		ldr	r3, [r7, #32]
 2681 0122 23F08003 		bic	r3, r3, #128
 2682 0126 7B67     		str	r3, [r7, #116]
 2683 0128 7B68     		ldr	r3, [r7, #4]
 2684 012a 1B68     		ldr	r3, [r3]
 2685 012c 0833     		adds	r3, r3, #8
 2686 012e 7A6F     		ldr	r2, [r7, #116]
 2687 0130 3A63     		str	r2, [r7, #48]
 2688 0132 FB62     		str	r3, [r7, #44]
 2689 0134 F96A     		ldr	r1, [r7, #44]
 2690 0136 3A6B     		ldr	r2, [r7, #48]
 2691              		.syntax unified
 2692              	@ 1123 "cmsis/core/cmsis_gcc.h" 1
 2693 0138 41E80023 		strex r3, r2, [r1]
 2694              	@ 0 "" 2
 2695              		.thumb
 2696              		.syntax unified
 2697 013c BB62     		str	r3, [r7, #40]
 2698 013e BB6A     		ldr	r3, [r7, #40]
 2699 0140 002B     		cmp	r3, #0
 2700 0142 E5D1     		bne	.L214
 2701 0144 7B68     		ldr	r3, [r7, #4]
 2702 0146 1B6F     		ldr	r3, [r3, #112]
 2703 0148 002B     		cmp	r3, #0
 2704 014a 0FD0     		beq	.L211
 2705 014c 7B68     		ldr	r3, [r7, #4]
 2706 014e 1B6F     		ldr	r3, [r3, #112]
 2707 0150 1846     		mov	r0, r3
 2708 0152 FFF7FEFF 		bl	HAL_DMA_Abort_IT
 2709 0156 0346     		mov	r3, r0
 2710 0158 002B     		cmp	r3, #0
 2711 015a 04D0     		beq	.L215
 2712 015c 7B68     		ldr	r3, [r7, #4]
 2713 015e 1B6F     		ldr	r3, [r3, #112]
 2714 0160 0022     		movs	r2, #0
 2715 0162 1A65     		str	r2, [r3, #80]
 2716 0164 02E0     		b	.L211
 2717              	.L215:
 2718 0166 0023     		movs	r3, #0
ARM GAS  C:\msys64\tmp\ccXyuxUj.s 			page 48


 2719 0168 C7F88430 		str	r3, [r7, #132]
 2720              	.L211:
 2721 016c 7B68     		ldr	r3, [r7, #4]
 2722 016e 1B68     		ldr	r3, [r3]
 2723 0170 9B68     		ldr	r3, [r3, #8]
 2724 0172 03F04003 		and	r3, r3, #64
 2725 0176 402B     		cmp	r3, #64
 2726 0178 30D1     		bne	.L216
 2727              	.L219:
 2728 017a 7B68     		ldr	r3, [r7, #4]
 2729 017c 1B68     		ldr	r3, [r3]
 2730 017e 0833     		adds	r3, r3, #8
 2731 0180 3B61     		str	r3, [r7, #16]
 2732 0182 3B69     		ldr	r3, [r7, #16]
 2733              		.syntax unified
 2734              	@ 1072 "cmsis/core/cmsis_gcc.h" 1
 2735 0184 53E8003F 		ldrex r3, [r3]
 2736              	@ 0 "" 2
 2737              		.thumb
 2738              		.syntax unified
 2739 0188 FB60     		str	r3, [r7, #12]
 2740 018a FB68     		ldr	r3, [r7, #12]
 2741 018c 23F04003 		bic	r3, r3, #64
 2742 0190 3B67     		str	r3, [r7, #112]
 2743 0192 7B68     		ldr	r3, [r7, #4]
 2744 0194 1B68     		ldr	r3, [r3]
 2745 0196 0833     		adds	r3, r3, #8
 2746 0198 3A6F     		ldr	r2, [r7, #112]
 2747 019a FA61     		str	r2, [r7, #28]
 2748 019c BB61     		str	r3, [r7, #24]
 2749 019e B969     		ldr	r1, [r7, #24]
 2750 01a0 FA69     		ldr	r2, [r7, #28]
 2751              		.syntax unified
 2752              	@ 1123 "cmsis/core/cmsis_gcc.h" 1
 2753 01a2 41E80023 		strex r3, r2, [r1]
 2754              	@ 0 "" 2
 2755              		.thumb
 2756              		.syntax unified
 2757 01a6 7B61     		str	r3, [r7, #20]
 2758 01a8 7B69     		ldr	r3, [r7, #20]
 2759 01aa 002B     		cmp	r3, #0
 2760 01ac E5D1     		bne	.L219
 2761 01ae 7B68     		ldr	r3, [r7, #4]
 2762 01b0 5B6F     		ldr	r3, [r3, #116]
 2763 01b2 002B     		cmp	r3, #0
 2764 01b4 12D0     		beq	.L216
 2765 01b6 7B68     		ldr	r3, [r7, #4]
 2766 01b8 5B6F     		ldr	r3, [r3, #116]
 2767 01ba 1846     		mov	r0, r3
 2768 01bc FFF7FEFF 		bl	HAL_DMA_Abort_IT
 2769 01c0 0346     		mov	r3, r0
 2770 01c2 002B     		cmp	r3, #0
 2771 01c4 07D0     		beq	.L220
 2772 01c6 7B68     		ldr	r3, [r7, #4]
 2773 01c8 5B6F     		ldr	r3, [r3, #116]
 2774 01ca 0022     		movs	r2, #0
 2775 01cc 1A65     		str	r2, [r3, #80]
ARM GAS  C:\msys64\tmp\ccXyuxUj.s 			page 49


 2776 01ce 0123     		movs	r3, #1
 2777 01d0 C7F88430 		str	r3, [r7, #132]
 2778 01d4 02E0     		b	.L216
 2779              	.L220:
 2780 01d6 0023     		movs	r3, #0
 2781 01d8 C7F88430 		str	r3, [r7, #132]
 2782              	.L216:
 2783 01dc D7F88430 		ldr	r3, [r7, #132]
 2784 01e0 012B     		cmp	r3, #1
 2785 01e2 2AD1     		bne	.L221
 2786 01e4 7B68     		ldr	r3, [r7, #4]
 2787 01e6 0022     		movs	r2, #0
 2788 01e8 A3F85220 		strh	r2, [r3, #82]	@ movhi
 2789 01ec 7B68     		ldr	r3, [r7, #4]
 2790 01ee 0022     		movs	r2, #0
 2791 01f0 A3F85A20 		strh	r2, [r3, #90]	@ movhi
 2792 01f4 7B68     		ldr	r3, [r7, #4]
 2793 01f6 0022     		movs	r2, #0
 2794 01f8 9A66     		str	r2, [r3, #104]
 2795 01fa 7B68     		ldr	r3, [r7, #4]
 2796 01fc 0022     		movs	r2, #0
 2797 01fe DA66     		str	r2, [r3, #108]
 2798 0200 7B68     		ldr	r3, [r7, #4]
 2799 0202 0022     		movs	r2, #0
 2800 0204 C3F88420 		str	r2, [r3, #132]
 2801 0208 7B68     		ldr	r3, [r7, #4]
 2802 020a 1B68     		ldr	r3, [r3]
 2803 020c 0F22     		movs	r2, #15
 2804 020e 1A62     		str	r2, [r3, #32]
 2805 0210 7B68     		ldr	r3, [r7, #4]
 2806 0212 1B68     		ldr	r3, [r3]
 2807 0214 9A69     		ldr	r2, [r3, #24]
 2808 0216 7B68     		ldr	r3, [r7, #4]
 2809 0218 1B68     		ldr	r3, [r3]
 2810 021a 42F00802 		orr	r2, r2, #8
 2811 021e 9A61     		str	r2, [r3, #24]
 2812 0220 7B68     		ldr	r3, [r7, #4]
 2813 0222 2022     		movs	r2, #32
 2814 0224 DA67     		str	r2, [r3, #124]
 2815 0226 7B68     		ldr	r3, [r7, #4]
 2816 0228 2022     		movs	r2, #32
 2817 022a C3F88020 		str	r2, [r3, #128]
 2818 022e 7B68     		ldr	r3, [r7, #4]
 2819 0230 0022     		movs	r2, #0
 2820 0232 1A66     		str	r2, [r3, #96]
 2821 0234 7868     		ldr	r0, [r7, #4]
 2822 0236 FFF7FEFF 		bl	HAL_UART_AbortCpltCallback
 2823              	.L221:
 2824 023a 0023     		movs	r3, #0
 2825 023c 1846     		mov	r0, r3
 2826 023e 8837     		adds	r7, r7, #136
 2827 0240 BD46     		mov	sp, r7
 2828              		@ sp needed
 2829 0242 80BD     		pop	{r7, pc}
 2830              	.L224:
 2831              		.align	2
 2832              	.L223:
ARM GAS  C:\msys64\tmp\ccXyuxUj.s 			page 50


 2833 0244 00000000 		.word	UART_DMATxAbortCallback
 2834 0248 00000000 		.word	UART_DMARxAbortCallback
 2836              		.section	.text.HAL_UART_AbortTransmit_IT,"ax",%progbits
 2837              		.align	1
 2838              		.global	HAL_UART_AbortTransmit_IT
 2839              		.syntax unified
 2840              		.thumb
 2841              		.thumb_func
 2843              	HAL_UART_AbortTransmit_IT:
 2844              		@ args = 0, pretend = 0, frame = 56
 2845              		@ frame_needed = 1, uses_anonymous_args = 0
 2846 0000 80B5     		push	{r7, lr}
 2847 0002 8EB0     		sub	sp, sp, #56
 2848 0004 00AF     		add	r7, sp, #0
 2849 0006 7860     		str	r0, [r7, #4]
 2850              	.L228:
 2851 0008 7B68     		ldr	r3, [r7, #4]
 2852 000a 1B68     		ldr	r3, [r3]
 2853 000c 3B62     		str	r3, [r7, #32]
 2854 000e 3B6A     		ldr	r3, [r7, #32]
 2855              		.syntax unified
 2856              	@ 1072 "cmsis/core/cmsis_gcc.h" 1
 2857 0010 53E8003F 		ldrex r3, [r3]
 2858              	@ 0 "" 2
 2859              		.thumb
 2860              		.syntax unified
 2861 0014 FB61     		str	r3, [r7, #28]
 2862 0016 FB69     		ldr	r3, [r7, #28]
 2863 0018 23F0C003 		bic	r3, r3, #192
 2864 001c 7B63     		str	r3, [r7, #52]
 2865 001e 7B68     		ldr	r3, [r7, #4]
 2866 0020 1B68     		ldr	r3, [r3]
 2867 0022 1A46     		mov	r2, r3
 2868 0024 7B6B     		ldr	r3, [r7, #52]
 2869 0026 FB62     		str	r3, [r7, #44]
 2870 0028 BA62     		str	r2, [r7, #40]
 2871 002a B96A     		ldr	r1, [r7, #40]
 2872 002c FA6A     		ldr	r2, [r7, #44]
 2873              		.syntax unified
 2874              	@ 1123 "cmsis/core/cmsis_gcc.h" 1
 2875 002e 41E80023 		strex r3, r2, [r1]
 2876              	@ 0 "" 2
 2877              		.thumb
 2878              		.syntax unified
 2879 0032 7B62     		str	r3, [r7, #36]
 2880 0034 7B6A     		ldr	r3, [r7, #36]
 2881 0036 002B     		cmp	r3, #0
 2882 0038 E6D1     		bne	.L228
 2883 003a 7B68     		ldr	r3, [r7, #4]
 2884 003c 1B68     		ldr	r3, [r3]
 2885 003e 9B68     		ldr	r3, [r3, #8]
 2886 0040 03F08003 		and	r3, r3, #128
 2887 0044 802B     		cmp	r3, #128
 2888 0046 3FD1     		bne	.L229
 2889              	.L232:
 2890 0048 7B68     		ldr	r3, [r7, #4]
 2891 004a 1B68     		ldr	r3, [r3]
ARM GAS  C:\msys64\tmp\ccXyuxUj.s 			page 51


 2892 004c 0833     		adds	r3, r3, #8
 2893 004e FB60     		str	r3, [r7, #12]
 2894 0050 FB68     		ldr	r3, [r7, #12]
 2895              		.syntax unified
 2896              	@ 1072 "cmsis/core/cmsis_gcc.h" 1
 2897 0052 53E8003F 		ldrex r3, [r3]
 2898              	@ 0 "" 2
 2899              		.thumb
 2900              		.syntax unified
 2901 0056 BB60     		str	r3, [r7, #8]
 2902 0058 BB68     		ldr	r3, [r7, #8]
 2903 005a 23F08003 		bic	r3, r3, #128
 2904 005e 3B63     		str	r3, [r7, #48]
 2905 0060 7B68     		ldr	r3, [r7, #4]
 2906 0062 1B68     		ldr	r3, [r3]
 2907 0064 0833     		adds	r3, r3, #8
 2908 0066 3A6B     		ldr	r2, [r7, #48]
 2909 0068 BA61     		str	r2, [r7, #24]
 2910 006a 7B61     		str	r3, [r7, #20]
 2911 006c 7969     		ldr	r1, [r7, #20]
 2912 006e BA69     		ldr	r2, [r7, #24]
 2913              		.syntax unified
 2914              	@ 1123 "cmsis/core/cmsis_gcc.h" 1
 2915 0070 41E80023 		strex r3, r2, [r1]
 2916              	@ 0 "" 2
 2917              		.thumb
 2918              		.syntax unified
 2919 0074 3B61     		str	r3, [r7, #16]
 2920 0076 3B69     		ldr	r3, [r7, #16]
 2921 0078 002B     		cmp	r3, #0
 2922 007a E5D1     		bne	.L232
 2923 007c 7B68     		ldr	r3, [r7, #4]
 2924 007e 1B6F     		ldr	r3, [r3, #112]
 2925 0080 002B     		cmp	r3, #0
 2926 0082 13D0     		beq	.L233
 2927 0084 7B68     		ldr	r3, [r7, #4]
 2928 0086 1B6F     		ldr	r3, [r3, #112]
 2929 0088 184A     		ldr	r2, .L236
 2930 008a 1A65     		str	r2, [r3, #80]
 2931 008c 7B68     		ldr	r3, [r7, #4]
 2932 008e 1B6F     		ldr	r3, [r3, #112]
 2933 0090 1846     		mov	r0, r3
 2934 0092 FFF7FEFF 		bl	HAL_DMA_Abort_IT
 2935 0096 0346     		mov	r3, r0
 2936 0098 002B     		cmp	r3, #0
 2937 009a 22D0     		beq	.L234
 2938 009c 7B68     		ldr	r3, [r7, #4]
 2939 009e 1B6F     		ldr	r3, [r3, #112]
 2940 00a0 1B6D     		ldr	r3, [r3, #80]
 2941 00a2 7A68     		ldr	r2, [r7, #4]
 2942 00a4 126F     		ldr	r2, [r2, #112]
 2943 00a6 1046     		mov	r0, r2
 2944 00a8 9847     		blx	r3
 2945 00aa 1AE0     		b	.L234
 2946              	.L233:
 2947 00ac 7B68     		ldr	r3, [r7, #4]
 2948 00ae 0022     		movs	r2, #0
ARM GAS  C:\msys64\tmp\ccXyuxUj.s 			page 52


 2949 00b0 A3F85220 		strh	r2, [r3, #82]	@ movhi
 2950 00b4 7B68     		ldr	r3, [r7, #4]
 2951 00b6 0022     		movs	r2, #0
 2952 00b8 DA66     		str	r2, [r3, #108]
 2953 00ba 7B68     		ldr	r3, [r7, #4]
 2954 00bc 2022     		movs	r2, #32
 2955 00be DA67     		str	r2, [r3, #124]
 2956 00c0 7868     		ldr	r0, [r7, #4]
 2957 00c2 FFF7FEFF 		bl	HAL_UART_AbortTransmitCpltCallback
 2958 00c6 0CE0     		b	.L234
 2959              	.L229:
 2960 00c8 7B68     		ldr	r3, [r7, #4]
 2961 00ca 0022     		movs	r2, #0
 2962 00cc A3F85220 		strh	r2, [r3, #82]	@ movhi
 2963 00d0 7B68     		ldr	r3, [r7, #4]
 2964 00d2 0022     		movs	r2, #0
 2965 00d4 DA66     		str	r2, [r3, #108]
 2966 00d6 7B68     		ldr	r3, [r7, #4]
 2967 00d8 2022     		movs	r2, #32
 2968 00da DA67     		str	r2, [r3, #124]
 2969 00dc 7868     		ldr	r0, [r7, #4]
 2970 00de FFF7FEFF 		bl	HAL_UART_AbortTransmitCpltCallback
 2971              	.L234:
 2972 00e2 0023     		movs	r3, #0
 2973 00e4 1846     		mov	r0, r3
 2974 00e6 3837     		adds	r7, r7, #56
 2975 00e8 BD46     		mov	sp, r7
 2976              		@ sp needed
 2977 00ea 80BD     		pop	{r7, pc}
 2978              	.L237:
 2979              		.align	2
 2980              	.L236:
 2981 00ec 00000000 		.word	UART_DMATxOnlyAbortCallback
 2983              		.section	.text.HAL_UART_AbortReceive_IT,"ax",%progbits
 2984              		.align	1
 2985              		.global	HAL_UART_AbortReceive_IT
 2986              		.syntax unified
 2987              		.thumb
 2988              		.thumb_func
 2990              	HAL_UART_AbortReceive_IT:
 2991              		@ args = 0, pretend = 0, frame = 104
 2992              		@ frame_needed = 1, uses_anonymous_args = 0
 2993 0000 80B5     		push	{r7, lr}
 2994 0002 9AB0     		sub	sp, sp, #104
 2995 0004 00AF     		add	r7, sp, #0
 2996 0006 7860     		str	r0, [r7, #4]
 2997              	.L241:
 2998 0008 7B68     		ldr	r3, [r7, #4]
 2999 000a 1B68     		ldr	r3, [r3]
 3000 000c BB64     		str	r3, [r7, #72]
 3001 000e BB6C     		ldr	r3, [r7, #72]
 3002              		.syntax unified
 3003              	@ 1072 "cmsis/core/cmsis_gcc.h" 1
 3004 0010 53E8003F 		ldrex r3, [r3]
 3005              	@ 0 "" 2
 3006              		.thumb
 3007              		.syntax unified
ARM GAS  C:\msys64\tmp\ccXyuxUj.s 			page 53


 3008 0014 7B64     		str	r3, [r7, #68]
 3009 0016 7B6C     		ldr	r3, [r7, #68]
 3010 0018 23F49073 		bic	r3, r3, #288
 3011 001c 7B66     		str	r3, [r7, #100]
 3012 001e 7B68     		ldr	r3, [r7, #4]
 3013 0020 1B68     		ldr	r3, [r3]
 3014 0022 1A46     		mov	r2, r3
 3015 0024 7B6E     		ldr	r3, [r7, #100]
 3016 0026 7B65     		str	r3, [r7, #84]
 3017 0028 3A65     		str	r2, [r7, #80]
 3018 002a 396D     		ldr	r1, [r7, #80]
 3019 002c 7A6D     		ldr	r2, [r7, #84]
 3020              		.syntax unified
 3021              	@ 1123 "cmsis/core/cmsis_gcc.h" 1
 3022 002e 41E80023 		strex r3, r2, [r1]
 3023              	@ 0 "" 2
 3024              		.thumb
 3025              		.syntax unified
 3026 0032 FB64     		str	r3, [r7, #76]
 3027 0034 FB6C     		ldr	r3, [r7, #76]
 3028 0036 002B     		cmp	r3, #0
 3029 0038 E6D1     		bne	.L241
 3030              	.L244:
 3031 003a 7B68     		ldr	r3, [r7, #4]
 3032 003c 1B68     		ldr	r3, [r3]
 3033 003e 0833     		adds	r3, r3, #8
 3034 0040 7B63     		str	r3, [r7, #52]
 3035 0042 7B6B     		ldr	r3, [r7, #52]
 3036              		.syntax unified
 3037              	@ 1072 "cmsis/core/cmsis_gcc.h" 1
 3038 0044 53E8003F 		ldrex r3, [r3]
 3039              	@ 0 "" 2
 3040              		.thumb
 3041              		.syntax unified
 3042 0048 3B63     		str	r3, [r7, #48]
 3043 004a 3B6B     		ldr	r3, [r7, #48]
 3044 004c 23F00103 		bic	r3, r3, #1
 3045 0050 3B66     		str	r3, [r7, #96]
 3046 0052 7B68     		ldr	r3, [r7, #4]
 3047 0054 1B68     		ldr	r3, [r3]
 3048 0056 0833     		adds	r3, r3, #8
 3049 0058 3A6E     		ldr	r2, [r7, #96]
 3050 005a 3A64     		str	r2, [r7, #64]
 3051 005c FB63     		str	r3, [r7, #60]
 3052 005e F96B     		ldr	r1, [r7, #60]
 3053 0060 3A6C     		ldr	r2, [r7, #64]
 3054              		.syntax unified
 3055              	@ 1123 "cmsis/core/cmsis_gcc.h" 1
 3056 0062 41E80023 		strex r3, r2, [r1]
 3057              	@ 0 "" 2
 3058              		.thumb
 3059              		.syntax unified
 3060 0066 BB63     		str	r3, [r7, #56]
 3061 0068 BB6B     		ldr	r3, [r7, #56]
 3062 006a 002B     		cmp	r3, #0
 3063 006c E5D1     		bne	.L244
 3064 006e 7B68     		ldr	r3, [r7, #4]
ARM GAS  C:\msys64\tmp\ccXyuxUj.s 			page 54


 3065 0070 1B6E     		ldr	r3, [r3, #96]
 3066 0072 012B     		cmp	r3, #1
 3067 0074 18D1     		bne	.L245
 3068              	.L248:
 3069 0076 7B68     		ldr	r3, [r7, #4]
 3070 0078 1B68     		ldr	r3, [r3]
 3071 007a 3B62     		str	r3, [r7, #32]
 3072 007c 3B6A     		ldr	r3, [r7, #32]
 3073              		.syntax unified
 3074              	@ 1072 "cmsis/core/cmsis_gcc.h" 1
 3075 007e 53E8003F 		ldrex r3, [r3]
 3076              	@ 0 "" 2
 3077              		.thumb
 3078              		.syntax unified
 3079 0082 FB61     		str	r3, [r7, #28]
 3080 0084 FB69     		ldr	r3, [r7, #28]
 3081 0086 23F01003 		bic	r3, r3, #16
 3082 008a FB65     		str	r3, [r7, #92]
 3083 008c 7B68     		ldr	r3, [r7, #4]
 3084 008e 1B68     		ldr	r3, [r3]
 3085 0090 1A46     		mov	r2, r3
 3086 0092 FB6D     		ldr	r3, [r7, #92]
 3087 0094 FB62     		str	r3, [r7, #44]
 3088 0096 BA62     		str	r2, [r7, #40]
 3089 0098 B96A     		ldr	r1, [r7, #40]
 3090 009a FA6A     		ldr	r2, [r7, #44]
 3091              		.syntax unified
 3092              	@ 1123 "cmsis/core/cmsis_gcc.h" 1
 3093 009c 41E80023 		strex r3, r2, [r1]
 3094              	@ 0 "" 2
 3095              		.thumb
 3096              		.syntax unified
 3097 00a0 7B62     		str	r3, [r7, #36]
 3098 00a2 7B6A     		ldr	r3, [r7, #36]
 3099 00a4 002B     		cmp	r3, #0
 3100 00a6 E6D1     		bne	.L248
 3101              	.L245:
 3102 00a8 7B68     		ldr	r3, [r7, #4]
 3103 00aa 1B68     		ldr	r3, [r3]
 3104 00ac 9B68     		ldr	r3, [r3, #8]
 3105 00ae 03F04003 		and	r3, r3, #64
 3106 00b2 402B     		cmp	r3, #64
 3107 00b4 4FD1     		bne	.L249
 3108              	.L252:
 3109 00b6 7B68     		ldr	r3, [r7, #4]
 3110 00b8 1B68     		ldr	r3, [r3]
 3111 00ba 0833     		adds	r3, r3, #8
 3112 00bc FB60     		str	r3, [r7, #12]
 3113 00be FB68     		ldr	r3, [r7, #12]
 3114              		.syntax unified
 3115              	@ 1072 "cmsis/core/cmsis_gcc.h" 1
 3116 00c0 53E8003F 		ldrex r3, [r3]
 3117              	@ 0 "" 2
 3118              		.thumb
 3119              		.syntax unified
 3120 00c4 BB60     		str	r3, [r7, #8]
 3121 00c6 BB68     		ldr	r3, [r7, #8]
ARM GAS  C:\msys64\tmp\ccXyuxUj.s 			page 55


 3122 00c8 23F04003 		bic	r3, r3, #64
 3123 00cc BB65     		str	r3, [r7, #88]
 3124 00ce 7B68     		ldr	r3, [r7, #4]
 3125 00d0 1B68     		ldr	r3, [r3]
 3126 00d2 0833     		adds	r3, r3, #8
 3127 00d4 BA6D     		ldr	r2, [r7, #88]
 3128 00d6 BA61     		str	r2, [r7, #24]
 3129 00d8 7B61     		str	r3, [r7, #20]
 3130 00da 7969     		ldr	r1, [r7, #20]
 3131 00dc BA69     		ldr	r2, [r7, #24]
 3132              		.syntax unified
 3133              	@ 1123 "cmsis/core/cmsis_gcc.h" 1
 3134 00de 41E80023 		strex r3, r2, [r1]
 3135              	@ 0 "" 2
 3136              		.thumb
 3137              		.syntax unified
 3138 00e2 3B61     		str	r3, [r7, #16]
 3139 00e4 3B69     		ldr	r3, [r7, #16]
 3140 00e6 002B     		cmp	r3, #0
 3141 00e8 E5D1     		bne	.L252
 3142 00ea 7B68     		ldr	r3, [r7, #4]
 3143 00ec 5B6F     		ldr	r3, [r3, #116]
 3144 00ee 002B     		cmp	r3, #0
 3145 00f0 13D0     		beq	.L253
 3146 00f2 7B68     		ldr	r3, [r7, #4]
 3147 00f4 5B6F     		ldr	r3, [r3, #116]
 3148 00f6 254A     		ldr	r2, .L256
 3149 00f8 1A65     		str	r2, [r3, #80]
 3150 00fa 7B68     		ldr	r3, [r7, #4]
 3151 00fc 5B6F     		ldr	r3, [r3, #116]
 3152 00fe 1846     		mov	r0, r3
 3153 0100 FFF7FEFF 		bl	HAL_DMA_Abort_IT
 3154 0104 0346     		mov	r3, r0
 3155 0106 002B     		cmp	r3, #0
 3156 0108 3AD0     		beq	.L254
 3157 010a 7B68     		ldr	r3, [r7, #4]
 3158 010c 5B6F     		ldr	r3, [r3, #116]
 3159 010e 1B6D     		ldr	r3, [r3, #80]
 3160 0110 7A68     		ldr	r2, [r7, #4]
 3161 0112 526F     		ldr	r2, [r2, #116]
 3162 0114 1046     		mov	r0, r2
 3163 0116 9847     		blx	r3
 3164 0118 32E0     		b	.L254
 3165              	.L253:
 3166 011a 7B68     		ldr	r3, [r7, #4]
 3167 011c 0022     		movs	r2, #0
 3168 011e A3F85A20 		strh	r2, [r3, #90]	@ movhi
 3169 0122 7B68     		ldr	r3, [r7, #4]
 3170 0124 0022     		movs	r2, #0
 3171 0126 5A65     		str	r2, [r3, #84]
 3172 0128 7B68     		ldr	r3, [r7, #4]
 3173 012a 1B68     		ldr	r3, [r3]
 3174 012c 0F22     		movs	r2, #15
 3175 012e 1A62     		str	r2, [r3, #32]
 3176 0130 7B68     		ldr	r3, [r7, #4]
 3177 0132 1B68     		ldr	r3, [r3]
 3178 0134 9A69     		ldr	r2, [r3, #24]
ARM GAS  C:\msys64\tmp\ccXyuxUj.s 			page 56


 3179 0136 7B68     		ldr	r3, [r7, #4]
 3180 0138 1B68     		ldr	r3, [r3]
 3181 013a 42F00802 		orr	r2, r2, #8
 3182 013e 9A61     		str	r2, [r3, #24]
 3183 0140 7B68     		ldr	r3, [r7, #4]
 3184 0142 2022     		movs	r2, #32
 3185 0144 C3F88020 		str	r2, [r3, #128]
 3186 0148 7B68     		ldr	r3, [r7, #4]
 3187 014a 0022     		movs	r2, #0
 3188 014c 1A66     		str	r2, [r3, #96]
 3189 014e 7868     		ldr	r0, [r7, #4]
 3190 0150 FFF7FEFF 		bl	HAL_UART_AbortReceiveCpltCallback
 3191 0154 14E0     		b	.L254
 3192              	.L249:
 3193 0156 7B68     		ldr	r3, [r7, #4]
 3194 0158 0022     		movs	r2, #0
 3195 015a A3F85A20 		strh	r2, [r3, #90]	@ movhi
 3196 015e 7B68     		ldr	r3, [r7, #4]
 3197 0160 0022     		movs	r2, #0
 3198 0162 5A65     		str	r2, [r3, #84]
 3199 0164 7B68     		ldr	r3, [r7, #4]
 3200 0166 1B68     		ldr	r3, [r3]
 3201 0168 0F22     		movs	r2, #15
 3202 016a 1A62     		str	r2, [r3, #32]
 3203 016c 7B68     		ldr	r3, [r7, #4]
 3204 016e 2022     		movs	r2, #32
 3205 0170 C3F88020 		str	r2, [r3, #128]
 3206 0174 7B68     		ldr	r3, [r7, #4]
 3207 0176 0022     		movs	r2, #0
 3208 0178 1A66     		str	r2, [r3, #96]
 3209 017a 7868     		ldr	r0, [r7, #4]
 3210 017c FFF7FEFF 		bl	HAL_UART_AbortReceiveCpltCallback
 3211              	.L254:
 3212 0180 0023     		movs	r3, #0
 3213 0182 1846     		mov	r0, r3
 3214 0184 6837     		adds	r7, r7, #104
 3215 0186 BD46     		mov	sp, r7
 3216              		@ sp needed
 3217 0188 80BD     		pop	{r7, pc}
 3218              	.L257:
 3219 018a 00BF     		.align	2
 3220              	.L256:
 3221 018c 00000000 		.word	UART_DMARxOnlyAbortCallback
 3223              		.section	.text.HAL_UART_IRQHandler,"ax",%progbits
 3224              		.align	1
 3225              		.global	HAL_UART_IRQHandler
 3226              		.syntax unified
 3227              		.thumb
 3228              		.thumb_func
 3230              	HAL_UART_IRQHandler:
 3231              		@ args = 0, pretend = 0, frame = 232
 3232              		@ frame_needed = 1, uses_anonymous_args = 0
 3233 0000 80B5     		push	{r7, lr}
 3234 0002 BAB0     		sub	sp, sp, #232
 3235 0004 00AF     		add	r7, sp, #0
 3236 0006 7860     		str	r0, [r7, #4]
 3237 0008 7B68     		ldr	r3, [r7, #4]
ARM GAS  C:\msys64\tmp\ccXyuxUj.s 			page 57


 3238 000a 1B68     		ldr	r3, [r3]
 3239 000c DB69     		ldr	r3, [r3, #28]
 3240 000e C7F8E430 		str	r3, [r7, #228]
 3241 0012 7B68     		ldr	r3, [r7, #4]
 3242 0014 1B68     		ldr	r3, [r3]
 3243 0016 1B68     		ldr	r3, [r3]
 3244 0018 C7F8E030 		str	r3, [r7, #224]
 3245 001c 7B68     		ldr	r3, [r7, #4]
 3246 001e 1B68     		ldr	r3, [r3]
 3247 0020 9B68     		ldr	r3, [r3, #8]
 3248 0022 C7F8DC30 		str	r3, [r7, #220]
 3249 0026 D7F8E420 		ldr	r2, [r7, #228]
 3250 002a 40F60F03 		movw	r3, #2063
 3251 002e 1340     		ands	r3, r3, r2
 3252 0030 C7F8D830 		str	r3, [r7, #216]
 3253 0034 D7F8D830 		ldr	r3, [r7, #216]
 3254 0038 002B     		cmp	r3, #0
 3255 003a 15D1     		bne	.L259
 3256 003c D7F8E430 		ldr	r3, [r7, #228]
 3257 0040 03F02003 		and	r3, r3, #32
 3258 0044 002B     		cmp	r3, #0
 3259 0046 0FD0     		beq	.L259
 3260 0048 D7F8E030 		ldr	r3, [r7, #224]
 3261 004c 03F02003 		and	r3, r3, #32
 3262 0050 002B     		cmp	r3, #0
 3263 0052 09D0     		beq	.L259
 3264 0054 7B68     		ldr	r3, [r7, #4]
 3265 0056 9B6E     		ldr	r3, [r3, #104]
 3266 0058 002B     		cmp	r3, #0
 3267 005a 00F0B182 		beq	.L309
 3268 005e 7B68     		ldr	r3, [r7, #4]
 3269 0060 9B6E     		ldr	r3, [r3, #104]
 3270 0062 7868     		ldr	r0, [r7, #4]
 3271 0064 9847     		blx	r3
 3272 0066 ABE2     		b	.L309
 3273              	.L259:
 3274 0068 D7F8D830 		ldr	r3, [r7, #216]
 3275 006c 002B     		cmp	r3, #0
 3276 006e 00F01781 		beq	.L262
 3277 0072 D7F8DC30 		ldr	r3, [r7, #220]
 3278 0076 03F00103 		and	r3, r3, #1
 3279 007a 002B     		cmp	r3, #0
 3280 007c 06D1     		bne	.L263
 3281 007e D7F8E020 		ldr	r2, [r7, #224]
 3282 0082 854B     		ldr	r3, .L315
 3283 0084 1340     		ands	r3, r3, r2
 3284 0086 002B     		cmp	r3, #0
 3285 0088 00F00A81 		beq	.L262
 3286              	.L263:
 3287 008c D7F8E430 		ldr	r3, [r7, #228]
 3288 0090 03F00103 		and	r3, r3, #1
 3289 0094 002B     		cmp	r3, #0
 3290 0096 11D0     		beq	.L264
 3291 0098 D7F8E030 		ldr	r3, [r7, #224]
 3292 009c 03F48073 		and	r3, r3, #256
 3293 00a0 002B     		cmp	r3, #0
 3294 00a2 0BD0     		beq	.L264
ARM GAS  C:\msys64\tmp\ccXyuxUj.s 			page 58


 3295 00a4 7B68     		ldr	r3, [r7, #4]
 3296 00a6 1B68     		ldr	r3, [r3]
 3297 00a8 0122     		movs	r2, #1
 3298 00aa 1A62     		str	r2, [r3, #32]
 3299 00ac 7B68     		ldr	r3, [r7, #4]
 3300 00ae D3F88430 		ldr	r3, [r3, #132]
 3301 00b2 43F00102 		orr	r2, r3, #1
 3302 00b6 7B68     		ldr	r3, [r7, #4]
 3303 00b8 C3F88420 		str	r2, [r3, #132]
 3304              	.L264:
 3305 00bc D7F8E430 		ldr	r3, [r7, #228]
 3306 00c0 03F00203 		and	r3, r3, #2
 3307 00c4 002B     		cmp	r3, #0
 3308 00c6 11D0     		beq	.L265
 3309 00c8 D7F8DC30 		ldr	r3, [r7, #220]
 3310 00cc 03F00103 		and	r3, r3, #1
 3311 00d0 002B     		cmp	r3, #0
 3312 00d2 0BD0     		beq	.L265
 3313 00d4 7B68     		ldr	r3, [r7, #4]
 3314 00d6 1B68     		ldr	r3, [r3]
 3315 00d8 0222     		movs	r2, #2
 3316 00da 1A62     		str	r2, [r3, #32]
 3317 00dc 7B68     		ldr	r3, [r7, #4]
 3318 00de D3F88430 		ldr	r3, [r3, #132]
 3319 00e2 43F00402 		orr	r2, r3, #4
 3320 00e6 7B68     		ldr	r3, [r7, #4]
 3321 00e8 C3F88420 		str	r2, [r3, #132]
 3322              	.L265:
 3323 00ec D7F8E430 		ldr	r3, [r7, #228]
 3324 00f0 03F00403 		and	r3, r3, #4
 3325 00f4 002B     		cmp	r3, #0
 3326 00f6 11D0     		beq	.L266
 3327 00f8 D7F8DC30 		ldr	r3, [r7, #220]
 3328 00fc 03F00103 		and	r3, r3, #1
 3329 0100 002B     		cmp	r3, #0
 3330 0102 0BD0     		beq	.L266
 3331 0104 7B68     		ldr	r3, [r7, #4]
 3332 0106 1B68     		ldr	r3, [r3]
 3333 0108 0422     		movs	r2, #4
 3334 010a 1A62     		str	r2, [r3, #32]
 3335 010c 7B68     		ldr	r3, [r7, #4]
 3336 010e D3F88430 		ldr	r3, [r3, #132]
 3337 0112 43F00202 		orr	r2, r3, #2
 3338 0116 7B68     		ldr	r3, [r7, #4]
 3339 0118 C3F88420 		str	r2, [r3, #132]
 3340              	.L266:
 3341 011c D7F8E430 		ldr	r3, [r7, #228]
 3342 0120 03F00803 		and	r3, r3, #8
 3343 0124 002B     		cmp	r3, #0
 3344 0126 17D0     		beq	.L267
 3345 0128 D7F8E030 		ldr	r3, [r7, #224]
 3346 012c 03F02003 		and	r3, r3, #32
 3347 0130 002B     		cmp	r3, #0
 3348 0132 05D1     		bne	.L268
 3349 0134 D7F8DC30 		ldr	r3, [r7, #220]
 3350 0138 03F00103 		and	r3, r3, #1
 3351 013c 002B     		cmp	r3, #0
ARM GAS  C:\msys64\tmp\ccXyuxUj.s 			page 59


 3352 013e 0BD0     		beq	.L267
 3353              	.L268:
 3354 0140 7B68     		ldr	r3, [r7, #4]
 3355 0142 1B68     		ldr	r3, [r3]
 3356 0144 0822     		movs	r2, #8
 3357 0146 1A62     		str	r2, [r3, #32]
 3358 0148 7B68     		ldr	r3, [r7, #4]
 3359 014a D3F88430 		ldr	r3, [r3, #132]
 3360 014e 43F00802 		orr	r2, r3, #8
 3361 0152 7B68     		ldr	r3, [r7, #4]
 3362 0154 C3F88420 		str	r2, [r3, #132]
 3363              	.L267:
 3364 0158 D7F8E430 		ldr	r3, [r7, #228]
 3365 015c 03F40063 		and	r3, r3, #2048
 3366 0160 002B     		cmp	r3, #0
 3367 0162 12D0     		beq	.L269
 3368 0164 D7F8E030 		ldr	r3, [r7, #224]
 3369 0168 03F08063 		and	r3, r3, #67108864
 3370 016c 002B     		cmp	r3, #0
 3371 016e 0CD0     		beq	.L269
 3372 0170 7B68     		ldr	r3, [r7, #4]
 3373 0172 1B68     		ldr	r3, [r3]
 3374 0174 4FF40062 		mov	r2, #2048
 3375 0178 1A62     		str	r2, [r3, #32]
 3376 017a 7B68     		ldr	r3, [r7, #4]
 3377 017c D3F88430 		ldr	r3, [r3, #132]
 3378 0180 43F02002 		orr	r2, r3, #32
 3379 0184 7B68     		ldr	r3, [r7, #4]
 3380 0186 C3F88420 		str	r2, [r3, #132]
 3381              	.L269:
 3382 018a 7B68     		ldr	r3, [r7, #4]
 3383 018c D3F88430 		ldr	r3, [r3, #132]
 3384 0190 002B     		cmp	r3, #0
 3385 0192 00F01782 		beq	.L310
 3386 0196 D7F8E430 		ldr	r3, [r7, #228]
 3387 019a 03F02003 		and	r3, r3, #32
 3388 019e 002B     		cmp	r3, #0
 3389 01a0 0DD0     		beq	.L271
 3390 01a2 D7F8E030 		ldr	r3, [r7, #224]
 3391 01a6 03F02003 		and	r3, r3, #32
 3392 01aa 002B     		cmp	r3, #0
 3393 01ac 07D0     		beq	.L271
 3394 01ae 7B68     		ldr	r3, [r7, #4]
 3395 01b0 9B6E     		ldr	r3, [r3, #104]
 3396 01b2 002B     		cmp	r3, #0
 3397 01b4 03D0     		beq	.L271
 3398 01b6 7B68     		ldr	r3, [r7, #4]
 3399 01b8 9B6E     		ldr	r3, [r3, #104]
 3400 01ba 7868     		ldr	r0, [r7, #4]
 3401 01bc 9847     		blx	r3
 3402              	.L271:
 3403 01be 7B68     		ldr	r3, [r7, #4]
 3404 01c0 D3F88430 		ldr	r3, [r3, #132]
 3405 01c4 C7F8D430 		str	r3, [r7, #212]
 3406 01c8 7B68     		ldr	r3, [r7, #4]
 3407 01ca 1B68     		ldr	r3, [r3]
 3408 01cc 9B68     		ldr	r3, [r3, #8]
ARM GAS  C:\msys64\tmp\ccXyuxUj.s 			page 60


 3409 01ce 03F04003 		and	r3, r3, #64
 3410 01d2 402B     		cmp	r3, #64
 3411 01d4 05D0     		beq	.L272
 3412 01d6 D7F8D430 		ldr	r3, [r7, #212]
 3413 01da 03F02803 		and	r3, r3, #40
 3414 01de 002B     		cmp	r3, #0
 3415 01e0 4FD0     		beq	.L273
 3416              	.L272:
 3417 01e2 7868     		ldr	r0, [r7, #4]
 3418 01e4 FFF7FEFF 		bl	UART_EndRxTransfer
 3419 01e8 7B68     		ldr	r3, [r7, #4]
 3420 01ea 1B68     		ldr	r3, [r3]
 3421 01ec 9B68     		ldr	r3, [r3, #8]
 3422 01ee 03F04003 		and	r3, r3, #64
 3423 01f2 402B     		cmp	r3, #64
 3424 01f4 41D1     		bne	.L274
 3425              	.L277:
 3426 01f6 7B68     		ldr	r3, [r7, #4]
 3427 01f8 1B68     		ldr	r3, [r3]
 3428 01fa 0833     		adds	r3, r3, #8
 3429 01fc C7F89C30 		str	r3, [r7, #156]
 3430 0200 D7F89C30 		ldr	r3, [r7, #156]
 3431              		.syntax unified
 3432              	@ 1072 "cmsis/core/cmsis_gcc.h" 1
 3433 0204 53E8003F 		ldrex r3, [r3]
 3434              	@ 0 "" 2
 3435              		.thumb
 3436              		.syntax unified
 3437 0208 C7F89830 		str	r3, [r7, #152]
 3438 020c D7F89830 		ldr	r3, [r7, #152]
 3439 0210 23F04003 		bic	r3, r3, #64
 3440 0214 C7F8D030 		str	r3, [r7, #208]
 3441 0218 7B68     		ldr	r3, [r7, #4]
 3442 021a 1B68     		ldr	r3, [r3]
 3443 021c 0833     		adds	r3, r3, #8
 3444 021e D7F8D020 		ldr	r2, [r7, #208]
 3445 0222 C7F8A820 		str	r2, [r7, #168]
 3446 0226 C7F8A430 		str	r3, [r7, #164]
 3447 022a D7F8A410 		ldr	r1, [r7, #164]
 3448 022e D7F8A820 		ldr	r2, [r7, #168]
 3449              		.syntax unified
 3450              	@ 1123 "cmsis/core/cmsis_gcc.h" 1
 3451 0232 41E80023 		strex r3, r2, [r1]
 3452              	@ 0 "" 2
 3453              		.thumb
 3454              		.syntax unified
 3455 0236 C7F8A030 		str	r3, [r7, #160]
 3456 023a D7F8A030 		ldr	r3, [r7, #160]
 3457 023e 002B     		cmp	r3, #0
 3458 0240 D9D1     		bne	.L277
 3459 0242 7B68     		ldr	r3, [r7, #4]
 3460 0244 5B6F     		ldr	r3, [r3, #116]
 3461 0246 002B     		cmp	r3, #0
 3462 0248 13D0     		beq	.L278
 3463 024a 7B68     		ldr	r3, [r7, #4]
 3464 024c 5B6F     		ldr	r3, [r3, #116]
 3465 024e 134A     		ldr	r2, .L315+4
ARM GAS  C:\msys64\tmp\ccXyuxUj.s 			page 61


 3466 0250 1A65     		str	r2, [r3, #80]
 3467 0252 7B68     		ldr	r3, [r7, #4]
 3468 0254 5B6F     		ldr	r3, [r3, #116]
 3469 0256 1846     		mov	r0, r3
 3470 0258 FFF7FEFF 		bl	HAL_DMA_Abort_IT
 3471 025c 0346     		mov	r3, r0
 3472 025e 002B     		cmp	r3, #0
 3473 0260 17D0     		beq	.L311
 3474 0262 7B68     		ldr	r3, [r7, #4]
 3475 0264 5B6F     		ldr	r3, [r3, #116]
 3476 0266 1B6D     		ldr	r3, [r3, #80]
 3477 0268 7A68     		ldr	r2, [r7, #4]
 3478 026a 526F     		ldr	r2, [r2, #116]
 3479 026c 1046     		mov	r0, r2
 3480 026e 9847     		blx	r3
 3481 0270 0FE0     		b	.L311
 3482              	.L278:
 3483 0272 7868     		ldr	r0, [r7, #4]
 3484 0274 FFF7FEFF 		bl	HAL_UART_ErrorCallback
 3485 0278 0BE0     		b	.L311
 3486              	.L274:
 3487 027a 7868     		ldr	r0, [r7, #4]
 3488 027c FFF7FEFF 		bl	HAL_UART_ErrorCallback
 3489 0280 07E0     		b	.L311
 3490              	.L273:
 3491 0282 7868     		ldr	r0, [r7, #4]
 3492 0284 FFF7FEFF 		bl	HAL_UART_ErrorCallback
 3493 0288 7B68     		ldr	r3, [r7, #4]
 3494 028a 0022     		movs	r2, #0
 3495 028c C3F88420 		str	r2, [r3, #132]
 3496 0290 98E1     		b	.L310
 3497              	.L311:
 3498 0292 00BF     		nop
 3499 0294 96E1     		b	.L310
 3500              	.L316:
 3501 0296 00BF     		.align	2
 3502              	.L315:
 3503 0298 20010004 		.word	67109152
 3504 029c 00000000 		.word	UART_DMAAbortOnError
 3505              	.L262:
 3506 02a0 7B68     		ldr	r3, [r7, #4]
 3507 02a2 1B6E     		ldr	r3, [r3, #96]
 3508 02a4 012B     		cmp	r3, #1
 3509 02a6 40F06681 		bne	.L280
 3510 02aa D7F8E430 		ldr	r3, [r7, #228]
 3511 02ae 03F01003 		and	r3, r3, #16
 3512 02b2 002B     		cmp	r3, #0
 3513 02b4 00F05F81 		beq	.L280
 3514 02b8 D7F8E030 		ldr	r3, [r7, #224]
 3515 02bc 03F01003 		and	r3, r3, #16
 3516 02c0 002B     		cmp	r3, #0
 3517 02c2 00F05881 		beq	.L280
 3518 02c6 7B68     		ldr	r3, [r7, #4]
 3519 02c8 1B68     		ldr	r3, [r3]
 3520 02ca 1022     		movs	r2, #16
 3521 02cc 1A62     		str	r2, [r3, #32]
 3522 02ce 7B68     		ldr	r3, [r7, #4]
ARM GAS  C:\msys64\tmp\ccXyuxUj.s 			page 62


 3523 02d0 1B68     		ldr	r3, [r3]
 3524 02d2 9B68     		ldr	r3, [r3, #8]
 3525 02d4 03F04003 		and	r3, r3, #64
 3526 02d8 402B     		cmp	r3, #64
 3527 02da 40F0D080 		bne	.L281
 3528 02de 7B68     		ldr	r3, [r7, #4]
 3529 02e0 5B6F     		ldr	r3, [r3, #116]
 3530 02e2 1B68     		ldr	r3, [r3]
 3531 02e4 5B68     		ldr	r3, [r3, #4]
 3532 02e6 A7F8BE30 		strh	r3, [r7, #190]	@ movhi
 3533 02ea B7F8BE30 		ldrh	r3, [r7, #190]
 3534 02ee 002B     		cmp	r3, #0
 3535 02f0 00F0AB80 		beq	.L282
 3536 02f4 7B68     		ldr	r3, [r7, #4]
 3537 02f6 B3F85830 		ldrh	r3, [r3, #88]
 3538 02fa B7F8BE20 		ldrh	r2, [r7, #190]
 3539 02fe 9A42     		cmp	r2, r3
 3540 0300 80F0A380 		bcs	.L282
 3541 0304 7B68     		ldr	r3, [r7, #4]
 3542 0306 B7F8BE20 		ldrh	r2, [r7, #190]	@ movhi
 3543 030a A3F85A20 		strh	r2, [r3, #90]	@ movhi
 3544 030e 7B68     		ldr	r3, [r7, #4]
 3545 0310 5B6F     		ldr	r3, [r3, #116]
 3546 0312 DB69     		ldr	r3, [r3, #28]
 3547 0314 B3F5807F 		cmp	r3, #256
 3548 0318 00F08680 		beq	.L283
 3549              	.L286:
 3550 031c 7B68     		ldr	r3, [r7, #4]
 3551 031e 1B68     		ldr	r3, [r3]
 3552 0320 C7F88830 		str	r3, [r7, #136]
 3553 0324 D7F88830 		ldr	r3, [r7, #136]
 3554              		.syntax unified
 3555              	@ 1072 "cmsis/core/cmsis_gcc.h" 1
 3556 0328 53E8003F 		ldrex r3, [r3]
 3557              	@ 0 "" 2
 3558              		.thumb
 3559              		.syntax unified
 3560 032c C7F88430 		str	r3, [r7, #132]
 3561 0330 D7F88430 		ldr	r3, [r7, #132]
 3562 0334 23F48073 		bic	r3, r3, #256
 3563 0338 C7F8B830 		str	r3, [r7, #184]
 3564 033c 7B68     		ldr	r3, [r7, #4]
 3565 033e 1B68     		ldr	r3, [r3]
 3566 0340 1A46     		mov	r2, r3
 3567 0342 D7F8B830 		ldr	r3, [r7, #184]
 3568 0346 C7F89430 		str	r3, [r7, #148]
 3569 034a C7F89020 		str	r2, [r7, #144]
 3570 034e D7F89010 		ldr	r1, [r7, #144]
 3571 0352 D7F89420 		ldr	r2, [r7, #148]
 3572              		.syntax unified
 3573              	@ 1123 "cmsis/core/cmsis_gcc.h" 1
 3574 0356 41E80023 		strex r3, r2, [r1]
 3575              	@ 0 "" 2
 3576              		.thumb
 3577              		.syntax unified
 3578 035a C7F88C30 		str	r3, [r7, #140]
 3579 035e D7F88C30 		ldr	r3, [r7, #140]
ARM GAS  C:\msys64\tmp\ccXyuxUj.s 			page 63


 3580 0362 002B     		cmp	r3, #0
 3581 0364 DAD1     		bne	.L286
 3582              	.L289:
 3583 0366 7B68     		ldr	r3, [r7, #4]
 3584 0368 1B68     		ldr	r3, [r3]
 3585 036a 0833     		adds	r3, r3, #8
 3586 036c 7B67     		str	r3, [r7, #116]
 3587 036e 7B6F     		ldr	r3, [r7, #116]
 3588              		.syntax unified
 3589              	@ 1072 "cmsis/core/cmsis_gcc.h" 1
 3590 0370 53E8003F 		ldrex r3, [r3]
 3591              	@ 0 "" 2
 3592              		.thumb
 3593              		.syntax unified
 3594 0374 3B67     		str	r3, [r7, #112]
 3595 0376 3B6F     		ldr	r3, [r7, #112]
 3596 0378 23F00103 		bic	r3, r3, #1
 3597 037c C7F8B430 		str	r3, [r7, #180]
 3598 0380 7B68     		ldr	r3, [r7, #4]
 3599 0382 1B68     		ldr	r3, [r3]
 3600 0384 0833     		adds	r3, r3, #8
 3601 0386 D7F8B420 		ldr	r2, [r7, #180]
 3602 038a C7F88020 		str	r2, [r7, #128]
 3603 038e FB67     		str	r3, [r7, #124]
 3604 0390 F96F     		ldr	r1, [r7, #124]
 3605 0392 D7F88020 		ldr	r2, [r7, #128]
 3606              		.syntax unified
 3607              	@ 1123 "cmsis/core/cmsis_gcc.h" 1
 3608 0396 41E80023 		strex r3, r2, [r1]
 3609              	@ 0 "" 2
 3610              		.thumb
 3611              		.syntax unified
 3612 039a BB67     		str	r3, [r7, #120]
 3613 039c BB6F     		ldr	r3, [r7, #120]
 3614 039e 002B     		cmp	r3, #0
 3615 03a0 E1D1     		bne	.L289
 3616              	.L292:
 3617 03a2 7B68     		ldr	r3, [r7, #4]
 3618 03a4 1B68     		ldr	r3, [r3]
 3619 03a6 0833     		adds	r3, r3, #8
 3620 03a8 3B66     		str	r3, [r7, #96]
 3621 03aa 3B6E     		ldr	r3, [r7, #96]
 3622              		.syntax unified
 3623              	@ 1072 "cmsis/core/cmsis_gcc.h" 1
 3624 03ac 53E8003F 		ldrex r3, [r3]
 3625              	@ 0 "" 2
 3626              		.thumb
 3627              		.syntax unified
 3628 03b0 FB65     		str	r3, [r7, #92]
 3629 03b2 FB6D     		ldr	r3, [r7, #92]
 3630 03b4 23F04003 		bic	r3, r3, #64
 3631 03b8 C7F8B030 		str	r3, [r7, #176]
 3632 03bc 7B68     		ldr	r3, [r7, #4]
 3633 03be 1B68     		ldr	r3, [r3]
 3634 03c0 0833     		adds	r3, r3, #8
 3635 03c2 D7F8B020 		ldr	r2, [r7, #176]
 3636 03c6 FA66     		str	r2, [r7, #108]
ARM GAS  C:\msys64\tmp\ccXyuxUj.s 			page 64


 3637 03c8 BB66     		str	r3, [r7, #104]
 3638 03ca B96E     		ldr	r1, [r7, #104]
 3639 03cc FA6E     		ldr	r2, [r7, #108]
 3640              		.syntax unified
 3641              	@ 1123 "cmsis/core/cmsis_gcc.h" 1
 3642 03ce 41E80023 		strex r3, r2, [r1]
 3643              	@ 0 "" 2
 3644              		.thumb
 3645              		.syntax unified
 3646 03d2 7B66     		str	r3, [r7, #100]
 3647 03d4 7B6E     		ldr	r3, [r7, #100]
 3648 03d6 002B     		cmp	r3, #0
 3649 03d8 E3D1     		bne	.L292
 3650 03da 7B68     		ldr	r3, [r7, #4]
 3651 03dc 2022     		movs	r2, #32
 3652 03de C3F88020 		str	r2, [r3, #128]
 3653 03e2 7B68     		ldr	r3, [r7, #4]
 3654 03e4 0022     		movs	r2, #0
 3655 03e6 1A66     		str	r2, [r3, #96]
 3656              	.L295:
 3657 03e8 7B68     		ldr	r3, [r7, #4]
 3658 03ea 1B68     		ldr	r3, [r3]
 3659 03ec FB64     		str	r3, [r7, #76]
 3660 03ee FB6C     		ldr	r3, [r7, #76]
 3661              		.syntax unified
 3662              	@ 1072 "cmsis/core/cmsis_gcc.h" 1
 3663 03f0 53E8003F 		ldrex r3, [r3]
 3664              	@ 0 "" 2
 3665              		.thumb
 3666              		.syntax unified
 3667 03f4 BB64     		str	r3, [r7, #72]
 3668 03f6 BB6C     		ldr	r3, [r7, #72]
 3669 03f8 23F01003 		bic	r3, r3, #16
 3670 03fc C7F8AC30 		str	r3, [r7, #172]
 3671 0400 7B68     		ldr	r3, [r7, #4]
 3672 0402 1B68     		ldr	r3, [r3]
 3673 0404 1A46     		mov	r2, r3
 3674 0406 D7F8AC30 		ldr	r3, [r7, #172]
 3675 040a BB65     		str	r3, [r7, #88]
 3676 040c 7A65     		str	r2, [r7, #84]
 3677 040e 796D     		ldr	r1, [r7, #84]
 3678 0410 BA6D     		ldr	r2, [r7, #88]
 3679              		.syntax unified
 3680              	@ 1123 "cmsis/core/cmsis_gcc.h" 1
 3681 0412 41E80023 		strex r3, r2, [r1]
 3682              	@ 0 "" 2
 3683              		.thumb
 3684              		.syntax unified
 3685 0416 3B65     		str	r3, [r7, #80]
 3686 0418 3B6D     		ldr	r3, [r7, #80]
 3687 041a 002B     		cmp	r3, #0
 3688 041c E4D1     		bne	.L295
 3689 041e 7B68     		ldr	r3, [r7, #4]
 3690 0420 5B6F     		ldr	r3, [r3, #116]
 3691 0422 1846     		mov	r0, r3
 3692 0424 FFF7FEFF 		bl	HAL_DMA_Abort
 3693              	.L283:
ARM GAS  C:\msys64\tmp\ccXyuxUj.s 			page 65


 3694 0428 7B68     		ldr	r3, [r7, #4]
 3695 042a 0222     		movs	r2, #2
 3696 042c 5A66     		str	r2, [r3, #100]
 3697 042e 7B68     		ldr	r3, [r7, #4]
 3698 0430 B3F85820 		ldrh	r2, [r3, #88]
 3699 0434 7B68     		ldr	r3, [r7, #4]
 3700 0436 B3F85A30 		ldrh	r3, [r3, #90]	@ movhi
 3701 043a 9BB2     		uxth	r3, r3
 3702 043c D31A     		subs	r3, r2, r3
 3703 043e 9BB2     		uxth	r3, r3
 3704 0440 1946     		mov	r1, r3
 3705 0442 7868     		ldr	r0, [r7, #4]
 3706 0444 FFF7FEFF 		bl	HAL_UARTEx_RxEventCallback
 3707 0448 BEE0     		b	.L312
 3708              	.L282:
 3709 044a 7B68     		ldr	r3, [r7, #4]
 3710 044c B3F85830 		ldrh	r3, [r3, #88]
 3711 0450 B7F8BE20 		ldrh	r2, [r7, #190]
 3712 0454 9A42     		cmp	r2, r3
 3713 0456 40F0B780 		bne	.L312
 3714 045a 7B68     		ldr	r3, [r7, #4]
 3715 045c 5B6F     		ldr	r3, [r3, #116]
 3716 045e DB69     		ldr	r3, [r3, #28]
 3717 0460 B3F5807F 		cmp	r3, #256
 3718 0464 40F0B080 		bne	.L312
 3719 0468 7B68     		ldr	r3, [r7, #4]
 3720 046a 0222     		movs	r2, #2
 3721 046c 5A66     		str	r2, [r3, #100]
 3722 046e 7B68     		ldr	r3, [r7, #4]
 3723 0470 B3F85830 		ldrh	r3, [r3, #88]
 3724 0474 1946     		mov	r1, r3
 3725 0476 7868     		ldr	r0, [r7, #4]
 3726 0478 FFF7FEFF 		bl	HAL_UARTEx_RxEventCallback
 3727 047c A4E0     		b	.L312
 3728              	.L281:
 3729 047e 7B68     		ldr	r3, [r7, #4]
 3730 0480 B3F85820 		ldrh	r2, [r3, #88]
 3731 0484 7B68     		ldr	r3, [r7, #4]
 3732 0486 B3F85A30 		ldrh	r3, [r3, #90]	@ movhi
 3733 048a 9BB2     		uxth	r3, r3
 3734 048c D31A     		subs	r3, r2, r3
 3735 048e A7F8CE30 		strh	r3, [r7, #206]	@ movhi
 3736 0492 7B68     		ldr	r3, [r7, #4]
 3737 0494 B3F85A30 		ldrh	r3, [r3, #90]	@ movhi
 3738 0498 9BB2     		uxth	r3, r3
 3739 049a 002B     		cmp	r3, #0
 3740 049c 00F09680 		beq	.L313
 3741 04a0 B7F8CE30 		ldrh	r3, [r7, #206]
 3742 04a4 002B     		cmp	r3, #0
 3743 04a6 00F09180 		beq	.L313
 3744              	.L300:
 3745 04aa 7B68     		ldr	r3, [r7, #4]
 3746 04ac 1B68     		ldr	r3, [r3]
 3747 04ae BB63     		str	r3, [r7, #56]
 3748 04b0 BB6B     		ldr	r3, [r7, #56]
 3749              		.syntax unified
 3750              	@ 1072 "cmsis/core/cmsis_gcc.h" 1
ARM GAS  C:\msys64\tmp\ccXyuxUj.s 			page 66


 3751 04b2 53E8003F 		ldrex r3, [r3]
 3752              	@ 0 "" 2
 3753              		.thumb
 3754              		.syntax unified
 3755 04b6 7B63     		str	r3, [r7, #52]
 3756 04b8 7B6B     		ldr	r3, [r7, #52]
 3757 04ba 23F49073 		bic	r3, r3, #288
 3758 04be C7F8C830 		str	r3, [r7, #200]
 3759 04c2 7B68     		ldr	r3, [r7, #4]
 3760 04c4 1B68     		ldr	r3, [r3]
 3761 04c6 1A46     		mov	r2, r3
 3762 04c8 D7F8C830 		ldr	r3, [r7, #200]
 3763 04cc 7B64     		str	r3, [r7, #68]
 3764 04ce 3A64     		str	r2, [r7, #64]
 3765 04d0 396C     		ldr	r1, [r7, #64]
 3766 04d2 7A6C     		ldr	r2, [r7, #68]
 3767              		.syntax unified
 3768              	@ 1123 "cmsis/core/cmsis_gcc.h" 1
 3769 04d4 41E80023 		strex r3, r2, [r1]
 3770              	@ 0 "" 2
 3771              		.thumb
 3772              		.syntax unified
 3773 04d8 FB63     		str	r3, [r7, #60]
 3774 04da FB6B     		ldr	r3, [r7, #60]
 3775 04dc 002B     		cmp	r3, #0
 3776 04de E4D1     		bne	.L300
 3777              	.L303:
 3778 04e0 7B68     		ldr	r3, [r7, #4]
 3779 04e2 1B68     		ldr	r3, [r3]
 3780 04e4 0833     		adds	r3, r3, #8
 3781 04e6 7B62     		str	r3, [r7, #36]
 3782 04e8 7B6A     		ldr	r3, [r7, #36]
 3783              		.syntax unified
 3784              	@ 1072 "cmsis/core/cmsis_gcc.h" 1
 3785 04ea 53E8003F 		ldrex r3, [r3]
 3786              	@ 0 "" 2
 3787              		.thumb
 3788              		.syntax unified
 3789 04ee 3B62     		str	r3, [r7, #32]
 3790 04f0 3B6A     		ldr	r3, [r7, #32]
 3791 04f2 23F00103 		bic	r3, r3, #1
 3792 04f6 C7F8C430 		str	r3, [r7, #196]
 3793 04fa 7B68     		ldr	r3, [r7, #4]
 3794 04fc 1B68     		ldr	r3, [r3]
 3795 04fe 0833     		adds	r3, r3, #8
 3796 0500 D7F8C420 		ldr	r2, [r7, #196]
 3797 0504 3A63     		str	r2, [r7, #48]
 3798 0506 FB62     		str	r3, [r7, #44]
 3799 0508 F96A     		ldr	r1, [r7, #44]
 3800 050a 3A6B     		ldr	r2, [r7, #48]
 3801              		.syntax unified
 3802              	@ 1123 "cmsis/core/cmsis_gcc.h" 1
 3803 050c 41E80023 		strex r3, r2, [r1]
 3804              	@ 0 "" 2
 3805              		.thumb
 3806              		.syntax unified
 3807 0510 BB62     		str	r3, [r7, #40]
ARM GAS  C:\msys64\tmp\ccXyuxUj.s 			page 67


 3808 0512 BB6A     		ldr	r3, [r7, #40]
 3809 0514 002B     		cmp	r3, #0
 3810 0516 E3D1     		bne	.L303
 3811 0518 7B68     		ldr	r3, [r7, #4]
 3812 051a 2022     		movs	r2, #32
 3813 051c C3F88020 		str	r2, [r3, #128]
 3814 0520 7B68     		ldr	r3, [r7, #4]
 3815 0522 0022     		movs	r2, #0
 3816 0524 1A66     		str	r2, [r3, #96]
 3817 0526 7B68     		ldr	r3, [r7, #4]
 3818 0528 0022     		movs	r2, #0
 3819 052a 9A66     		str	r2, [r3, #104]
 3820              	.L306:
 3821 052c 7B68     		ldr	r3, [r7, #4]
 3822 052e 1B68     		ldr	r3, [r3]
 3823 0530 3B61     		str	r3, [r7, #16]
 3824 0532 3B69     		ldr	r3, [r7, #16]
 3825              		.syntax unified
 3826              	@ 1072 "cmsis/core/cmsis_gcc.h" 1
 3827 0534 53E8003F 		ldrex r3, [r3]
 3828              	@ 0 "" 2
 3829              		.thumb
 3830              		.syntax unified
 3831 0538 FB60     		str	r3, [r7, #12]
 3832 053a FB68     		ldr	r3, [r7, #12]
 3833 053c 23F01003 		bic	r3, r3, #16
 3834 0540 C7F8C030 		str	r3, [r7, #192]
 3835 0544 7B68     		ldr	r3, [r7, #4]
 3836 0546 1B68     		ldr	r3, [r3]
 3837 0548 1A46     		mov	r2, r3
 3838 054a D7F8C030 		ldr	r3, [r7, #192]
 3839 054e FB61     		str	r3, [r7, #28]
 3840 0550 BA61     		str	r2, [r7, #24]
 3841 0552 B969     		ldr	r1, [r7, #24]
 3842 0554 FA69     		ldr	r2, [r7, #28]
 3843              		.syntax unified
 3844              	@ 1123 "cmsis/core/cmsis_gcc.h" 1
 3845 0556 41E80023 		strex r3, r2, [r1]
 3846              	@ 0 "" 2
 3847              		.thumb
 3848              		.syntax unified
 3849 055a 7B61     		str	r3, [r7, #20]
 3850 055c 7B69     		ldr	r3, [r7, #20]
 3851 055e 002B     		cmp	r3, #0
 3852 0560 E4D1     		bne	.L306
 3853 0562 7B68     		ldr	r3, [r7, #4]
 3854 0564 0222     		movs	r2, #2
 3855 0566 5A66     		str	r2, [r3, #100]
 3856 0568 B7F8CE30 		ldrh	r3, [r7, #206]
 3857 056c 1946     		mov	r1, r3
 3858 056e 7868     		ldr	r0, [r7, #4]
 3859 0570 FFF7FEFF 		bl	HAL_UARTEx_RxEventCallback
 3860 0574 2AE0     		b	.L313
 3861              	.L280:
 3862 0576 D7F8E430 		ldr	r3, [r7, #228]
 3863 057a 03F08003 		and	r3, r3, #128
 3864 057e 002B     		cmp	r3, #0
ARM GAS  C:\msys64\tmp\ccXyuxUj.s 			page 68


 3865 0580 0ED0     		beq	.L307
 3866 0582 D7F8E030 		ldr	r3, [r7, #224]
 3867 0586 03F08003 		and	r3, r3, #128
 3868 058a 002B     		cmp	r3, #0
 3869 058c 08D0     		beq	.L307
 3870 058e 7B68     		ldr	r3, [r7, #4]
 3871 0590 DB6E     		ldr	r3, [r3, #108]
 3872 0592 002B     		cmp	r3, #0
 3873 0594 1CD0     		beq	.L314
 3874 0596 7B68     		ldr	r3, [r7, #4]
 3875 0598 DB6E     		ldr	r3, [r3, #108]
 3876 059a 7868     		ldr	r0, [r7, #4]
 3877 059c 9847     		blx	r3
 3878 059e 17E0     		b	.L314
 3879              	.L307:
 3880 05a0 D7F8E430 		ldr	r3, [r7, #228]
 3881 05a4 03F04003 		and	r3, r3, #64
 3882 05a8 002B     		cmp	r3, #0
 3883 05aa 12D0     		beq	.L258
 3884 05ac D7F8E030 		ldr	r3, [r7, #224]
 3885 05b0 03F04003 		and	r3, r3, #64
 3886 05b4 002B     		cmp	r3, #0
 3887 05b6 0CD0     		beq	.L258
 3888 05b8 7868     		ldr	r0, [r7, #4]
 3889 05ba FFF7FEFF 		bl	UART_EndTransmit_IT
 3890 05be 08E0     		b	.L258
 3891              	.L309:
 3892 05c0 00BF     		nop
 3893 05c2 06E0     		b	.L258
 3894              	.L310:
 3895 05c4 00BF     		nop
 3896 05c6 04E0     		b	.L258
 3897              	.L312:
 3898 05c8 00BF     		nop
 3899 05ca 02E0     		b	.L258
 3900              	.L313:
 3901 05cc 00BF     		nop
 3902 05ce 00E0     		b	.L258
 3903              	.L314:
 3904 05d0 00BF     		nop
 3905              	.L258:
 3906 05d2 E837     		adds	r7, r7, #232
 3907 05d4 BD46     		mov	sp, r7
 3908              		@ sp needed
 3909 05d6 80BD     		pop	{r7, pc}
 3911              		.section	.text.HAL_UART_TxCpltCallback,"ax",%progbits
 3912              		.align	1
 3913              		.weak	HAL_UART_TxCpltCallback
 3914              		.syntax unified
 3915              		.thumb
 3916              		.thumb_func
 3918              	HAL_UART_TxCpltCallback:
 3919              		@ args = 0, pretend = 0, frame = 8
 3920              		@ frame_needed = 1, uses_anonymous_args = 0
 3921              		@ link register save eliminated.
 3922 0000 80B4     		push	{r7}
 3923 0002 83B0     		sub	sp, sp, #12
ARM GAS  C:\msys64\tmp\ccXyuxUj.s 			page 69


 3924 0004 00AF     		add	r7, sp, #0
 3925 0006 7860     		str	r0, [r7, #4]
 3926 0008 00BF     		nop
 3927 000a 0C37     		adds	r7, r7, #12
 3928 000c BD46     		mov	sp, r7
 3929              		@ sp needed
 3930 000e 5DF8047B 		ldr	r7, [sp], #4
 3931 0012 7047     		bx	lr
 3933              		.section	.text.HAL_UART_TxHalfCpltCallback,"ax",%progbits
 3934              		.align	1
 3935              		.weak	HAL_UART_TxHalfCpltCallback
 3936              		.syntax unified
 3937              		.thumb
 3938              		.thumb_func
 3940              	HAL_UART_TxHalfCpltCallback:
 3941              		@ args = 0, pretend = 0, frame = 8
 3942              		@ frame_needed = 1, uses_anonymous_args = 0
 3943              		@ link register save eliminated.
 3944 0000 80B4     		push	{r7}
 3945 0002 83B0     		sub	sp, sp, #12
 3946 0004 00AF     		add	r7, sp, #0
 3947 0006 7860     		str	r0, [r7, #4]
 3948 0008 00BF     		nop
 3949 000a 0C37     		adds	r7, r7, #12
 3950 000c BD46     		mov	sp, r7
 3951              		@ sp needed
 3952 000e 5DF8047B 		ldr	r7, [sp], #4
 3953 0012 7047     		bx	lr
 3955              		.section	.text.HAL_UART_RxCpltCallback,"ax",%progbits
 3956              		.align	1
 3957              		.weak	HAL_UART_RxCpltCallback
 3958              		.syntax unified
 3959              		.thumb
 3960              		.thumb_func
 3962              	HAL_UART_RxCpltCallback:
 3963              		@ args = 0, pretend = 0, frame = 8
 3964              		@ frame_needed = 1, uses_anonymous_args = 0
 3965              		@ link register save eliminated.
 3966 0000 80B4     		push	{r7}
 3967 0002 83B0     		sub	sp, sp, #12
 3968 0004 00AF     		add	r7, sp, #0
 3969 0006 7860     		str	r0, [r7, #4]
 3970 0008 00BF     		nop
 3971 000a 0C37     		adds	r7, r7, #12
 3972 000c BD46     		mov	sp, r7
 3973              		@ sp needed
 3974 000e 5DF8047B 		ldr	r7, [sp], #4
 3975 0012 7047     		bx	lr
 3977              		.section	.text.HAL_UART_RxHalfCpltCallback,"ax",%progbits
 3978              		.align	1
 3979              		.weak	HAL_UART_RxHalfCpltCallback
 3980              		.syntax unified
 3981              		.thumb
 3982              		.thumb_func
 3984              	HAL_UART_RxHalfCpltCallback:
 3985              		@ args = 0, pretend = 0, frame = 8
 3986              		@ frame_needed = 1, uses_anonymous_args = 0
ARM GAS  C:\msys64\tmp\ccXyuxUj.s 			page 70


 3987              		@ link register save eliminated.
 3988 0000 80B4     		push	{r7}
 3989 0002 83B0     		sub	sp, sp, #12
 3990 0004 00AF     		add	r7, sp, #0
 3991 0006 7860     		str	r0, [r7, #4]
 3992 0008 00BF     		nop
 3993 000a 0C37     		adds	r7, r7, #12
 3994 000c BD46     		mov	sp, r7
 3995              		@ sp needed
 3996 000e 5DF8047B 		ldr	r7, [sp], #4
 3997 0012 7047     		bx	lr
 3999              		.section	.text.HAL_UART_ErrorCallback,"ax",%progbits
 4000              		.align	1
 4001              		.weak	HAL_UART_ErrorCallback
 4002              		.syntax unified
 4003              		.thumb
 4004              		.thumb_func
 4006              	HAL_UART_ErrorCallback:
 4007              		@ args = 0, pretend = 0, frame = 8
 4008              		@ frame_needed = 1, uses_anonymous_args = 0
 4009              		@ link register save eliminated.
 4010 0000 80B4     		push	{r7}
 4011 0002 83B0     		sub	sp, sp, #12
 4012 0004 00AF     		add	r7, sp, #0
 4013 0006 7860     		str	r0, [r7, #4]
 4014 0008 00BF     		nop
 4015 000a 0C37     		adds	r7, r7, #12
 4016 000c BD46     		mov	sp, r7
 4017              		@ sp needed
 4018 000e 5DF8047B 		ldr	r7, [sp], #4
 4019 0012 7047     		bx	lr
 4021              		.section	.text.HAL_UART_AbortCpltCallback,"ax",%progbits
 4022              		.align	1
 4023              		.weak	HAL_UART_AbortCpltCallback
 4024              		.syntax unified
 4025              		.thumb
 4026              		.thumb_func
 4028              	HAL_UART_AbortCpltCallback:
 4029              		@ args = 0, pretend = 0, frame = 8
 4030              		@ frame_needed = 1, uses_anonymous_args = 0
 4031              		@ link register save eliminated.
 4032 0000 80B4     		push	{r7}
 4033 0002 83B0     		sub	sp, sp, #12
 4034 0004 00AF     		add	r7, sp, #0
 4035 0006 7860     		str	r0, [r7, #4]
 4036 0008 00BF     		nop
 4037 000a 0C37     		adds	r7, r7, #12
 4038 000c BD46     		mov	sp, r7
 4039              		@ sp needed
 4040 000e 5DF8047B 		ldr	r7, [sp], #4
 4041 0012 7047     		bx	lr
 4043              		.section	.text.HAL_UART_AbortTransmitCpltCallback,"ax",%progbits
 4044              		.align	1
 4045              		.weak	HAL_UART_AbortTransmitCpltCallback
 4046              		.syntax unified
 4047              		.thumb
 4048              		.thumb_func
ARM GAS  C:\msys64\tmp\ccXyuxUj.s 			page 71


 4050              	HAL_UART_AbortTransmitCpltCallback:
 4051              		@ args = 0, pretend = 0, frame = 8
 4052              		@ frame_needed = 1, uses_anonymous_args = 0
 4053              		@ link register save eliminated.
 4054 0000 80B4     		push	{r7}
 4055 0002 83B0     		sub	sp, sp, #12
 4056 0004 00AF     		add	r7, sp, #0
 4057 0006 7860     		str	r0, [r7, #4]
 4058 0008 00BF     		nop
 4059 000a 0C37     		adds	r7, r7, #12
 4060 000c BD46     		mov	sp, r7
 4061              		@ sp needed
 4062 000e 5DF8047B 		ldr	r7, [sp], #4
 4063 0012 7047     		bx	lr
 4065              		.section	.text.HAL_UART_AbortReceiveCpltCallback,"ax",%progbits
 4066              		.align	1
 4067              		.weak	HAL_UART_AbortReceiveCpltCallback
 4068              		.syntax unified
 4069              		.thumb
 4070              		.thumb_func
 4072              	HAL_UART_AbortReceiveCpltCallback:
 4073              		@ args = 0, pretend = 0, frame = 8
 4074              		@ frame_needed = 1, uses_anonymous_args = 0
 4075              		@ link register save eliminated.
 4076 0000 80B4     		push	{r7}
 4077 0002 83B0     		sub	sp, sp, #12
 4078 0004 00AF     		add	r7, sp, #0
 4079 0006 7860     		str	r0, [r7, #4]
 4080 0008 00BF     		nop
 4081 000a 0C37     		adds	r7, r7, #12
 4082 000c BD46     		mov	sp, r7
 4083              		@ sp needed
 4084 000e 5DF8047B 		ldr	r7, [sp], #4
 4085 0012 7047     		bx	lr
 4087              		.section	.text.HAL_UARTEx_RxEventCallback,"ax",%progbits
 4088              		.align	1
 4089              		.weak	HAL_UARTEx_RxEventCallback
 4090              		.syntax unified
 4091              		.thumb
 4092              		.thumb_func
 4094              	HAL_UARTEx_RxEventCallback:
 4095              		@ args = 0, pretend = 0, frame = 8
 4096              		@ frame_needed = 1, uses_anonymous_args = 0
 4097              		@ link register save eliminated.
 4098 0000 80B4     		push	{r7}
 4099 0002 83B0     		sub	sp, sp, #12
 4100 0004 00AF     		add	r7, sp, #0
 4101 0006 7860     		str	r0, [r7, #4]
 4102 0008 0B46     		mov	r3, r1
 4103 000a 7B80     		strh	r3, [r7, #2]	@ movhi
 4104 000c 00BF     		nop
 4105 000e 0C37     		adds	r7, r7, #12
 4106 0010 BD46     		mov	sp, r7
 4107              		@ sp needed
 4108 0012 5DF8047B 		ldr	r7, [sp], #4
 4109 0016 7047     		bx	lr
 4111              		.section	.text.HAL_UART_ReceiverTimeout_Config,"ax",%progbits
ARM GAS  C:\msys64\tmp\ccXyuxUj.s 			page 72


 4112              		.align	1
 4113              		.global	HAL_UART_ReceiverTimeout_Config
 4114              		.syntax unified
 4115              		.thumb
 4116              		.thumb_func
 4118              	HAL_UART_ReceiverTimeout_Config:
 4119              		@ args = 0, pretend = 0, frame = 8
 4120              		@ frame_needed = 1, uses_anonymous_args = 0
 4121              		@ link register save eliminated.
 4122 0000 80B4     		push	{r7}
 4123 0002 83B0     		sub	sp, sp, #12
 4124 0004 00AF     		add	r7, sp, #0
 4125 0006 7860     		str	r0, [r7, #4]
 4126 0008 3960     		str	r1, [r7]
 4127 000a 7B68     		ldr	r3, [r7, #4]
 4128 000c 1B68     		ldr	r3, [r3]
 4129 000e 5B69     		ldr	r3, [r3, #20]
 4130 0010 03F07F41 		and	r1, r3, #-16777216
 4131 0014 7B68     		ldr	r3, [r7, #4]
 4132 0016 1B68     		ldr	r3, [r3]
 4133 0018 3A68     		ldr	r2, [r7]
 4134 001a 0A43     		orrs	r2, r2, r1
 4135 001c 5A61     		str	r2, [r3, #20]
 4136 001e 00BF     		nop
 4137 0020 0C37     		adds	r7, r7, #12
 4138 0022 BD46     		mov	sp, r7
 4139              		@ sp needed
 4140 0024 5DF8047B 		ldr	r7, [sp], #4
 4141 0028 7047     		bx	lr
 4143              		.section	.text.HAL_UART_EnableReceiverTimeout,"ax",%progbits
 4144              		.align	1
 4145              		.global	HAL_UART_EnableReceiverTimeout
 4146              		.syntax unified
 4147              		.thumb
 4148              		.thumb_func
 4150              	HAL_UART_EnableReceiverTimeout:
 4151              		@ args = 0, pretend = 0, frame = 8
 4152              		@ frame_needed = 1, uses_anonymous_args = 0
 4153              		@ link register save eliminated.
 4154 0000 80B4     		push	{r7}
 4155 0002 83B0     		sub	sp, sp, #12
 4156 0004 00AF     		add	r7, sp, #0
 4157 0006 7860     		str	r0, [r7, #4]
 4158 0008 7B68     		ldr	r3, [r7, #4]
 4159 000a DB6F     		ldr	r3, [r3, #124]
 4160 000c 202B     		cmp	r3, #32
 4161 000e 1ED1     		bne	.L328
 4162 0010 7B68     		ldr	r3, [r7, #4]
 4163 0012 93F87830 		ldrb	r3, [r3, #120]	@ zero_extendqisi2
 4164 0016 012B     		cmp	r3, #1
 4165 0018 01D1     		bne	.L329
 4166 001a 0223     		movs	r3, #2
 4167 001c 18E0     		b	.L330
 4168              	.L329:
 4169 001e 7B68     		ldr	r3, [r7, #4]
 4170 0020 0122     		movs	r2, #1
 4171 0022 83F87820 		strb	r2, [r3, #120]
ARM GAS  C:\msys64\tmp\ccXyuxUj.s 			page 73


 4172 0026 7B68     		ldr	r3, [r7, #4]
 4173 0028 2422     		movs	r2, #36
 4174 002a DA67     		str	r2, [r3, #124]
 4175 002c 7B68     		ldr	r3, [r7, #4]
 4176 002e 1B68     		ldr	r3, [r3]
 4177 0030 5A68     		ldr	r2, [r3, #4]
 4178 0032 7B68     		ldr	r3, [r7, #4]
 4179 0034 1B68     		ldr	r3, [r3]
 4180 0036 42F40002 		orr	r2, r2, #8388608
 4181 003a 5A60     		str	r2, [r3, #4]
 4182 003c 7B68     		ldr	r3, [r7, #4]
 4183 003e 2022     		movs	r2, #32
 4184 0040 DA67     		str	r2, [r3, #124]
 4185 0042 7B68     		ldr	r3, [r7, #4]
 4186 0044 0022     		movs	r2, #0
 4187 0046 83F87820 		strb	r2, [r3, #120]
 4188 004a 0023     		movs	r3, #0
 4189 004c 00E0     		b	.L330
 4190              	.L328:
 4191 004e 0223     		movs	r3, #2
 4192              	.L330:
 4193 0050 1846     		mov	r0, r3
 4194 0052 0C37     		adds	r7, r7, #12
 4195 0054 BD46     		mov	sp, r7
 4196              		@ sp needed
 4197 0056 5DF8047B 		ldr	r7, [sp], #4
 4198 005a 7047     		bx	lr
 4200              		.section	.text.HAL_UART_DisableReceiverTimeout,"ax",%progbits
 4201              		.align	1
 4202              		.global	HAL_UART_DisableReceiverTimeout
 4203              		.syntax unified
 4204              		.thumb
 4205              		.thumb_func
 4207              	HAL_UART_DisableReceiverTimeout:
 4208              		@ args = 0, pretend = 0, frame = 8
 4209              		@ frame_needed = 1, uses_anonymous_args = 0
 4210              		@ link register save eliminated.
 4211 0000 80B4     		push	{r7}
 4212 0002 83B0     		sub	sp, sp, #12
 4213 0004 00AF     		add	r7, sp, #0
 4214 0006 7860     		str	r0, [r7, #4]
 4215 0008 7B68     		ldr	r3, [r7, #4]
 4216 000a DB6F     		ldr	r3, [r3, #124]
 4217 000c 202B     		cmp	r3, #32
 4218 000e 1ED1     		bne	.L332
 4219 0010 7B68     		ldr	r3, [r7, #4]
 4220 0012 93F87830 		ldrb	r3, [r3, #120]	@ zero_extendqisi2
 4221 0016 012B     		cmp	r3, #1
 4222 0018 01D1     		bne	.L333
 4223 001a 0223     		movs	r3, #2
 4224 001c 18E0     		b	.L334
 4225              	.L333:
 4226 001e 7B68     		ldr	r3, [r7, #4]
 4227 0020 0122     		movs	r2, #1
 4228 0022 83F87820 		strb	r2, [r3, #120]
 4229 0026 7B68     		ldr	r3, [r7, #4]
 4230 0028 2422     		movs	r2, #36
ARM GAS  C:\msys64\tmp\ccXyuxUj.s 			page 74


 4231 002a DA67     		str	r2, [r3, #124]
 4232 002c 7B68     		ldr	r3, [r7, #4]
 4233 002e 1B68     		ldr	r3, [r3]
 4234 0030 5A68     		ldr	r2, [r3, #4]
 4235 0032 7B68     		ldr	r3, [r7, #4]
 4236 0034 1B68     		ldr	r3, [r3]
 4237 0036 22F40002 		bic	r2, r2, #8388608
 4238 003a 5A60     		str	r2, [r3, #4]
 4239 003c 7B68     		ldr	r3, [r7, #4]
 4240 003e 2022     		movs	r2, #32
 4241 0040 DA67     		str	r2, [r3, #124]
 4242 0042 7B68     		ldr	r3, [r7, #4]
 4243 0044 0022     		movs	r2, #0
 4244 0046 83F87820 		strb	r2, [r3, #120]
 4245 004a 0023     		movs	r3, #0
 4246 004c 00E0     		b	.L334
 4247              	.L332:
 4248 004e 0223     		movs	r3, #2
 4249              	.L334:
 4250 0050 1846     		mov	r0, r3
 4251 0052 0C37     		adds	r7, r7, #12
 4252 0054 BD46     		mov	sp, r7
 4253              		@ sp needed
 4254 0056 5DF8047B 		ldr	r7, [sp], #4
 4255 005a 7047     		bx	lr
 4257              		.section	.text.HAL_MultiProcessor_EnableMuteMode,"ax",%progbits
 4258              		.align	1
 4259              		.global	HAL_MultiProcessor_EnableMuteMode
 4260              		.syntax unified
 4261              		.thumb
 4262              		.thumb_func
 4264              	HAL_MultiProcessor_EnableMuteMode:
 4265              		@ args = 0, pretend = 0, frame = 32
 4266              		@ frame_needed = 1, uses_anonymous_args = 0
 4267 0000 80B5     		push	{r7, lr}
 4268 0002 88B0     		sub	sp, sp, #32
 4269 0004 00AF     		add	r7, sp, #0
 4270 0006 7860     		str	r0, [r7, #4]
 4271 0008 7B68     		ldr	r3, [r7, #4]
 4272 000a 93F87830 		ldrb	r3, [r3, #120]	@ zero_extendqisi2
 4273 000e 012B     		cmp	r3, #1
 4274 0010 01D1     		bne	.L336
 4275 0012 0223     		movs	r3, #2
 4276 0014 26E0     		b	.L337
 4277              	.L336:
 4278 0016 7B68     		ldr	r3, [r7, #4]
 4279 0018 0122     		movs	r2, #1
 4280 001a 83F87820 		strb	r2, [r3, #120]
 4281 001e 7B68     		ldr	r3, [r7, #4]
 4282 0020 2422     		movs	r2, #36
 4283 0022 DA67     		str	r2, [r3, #124]
 4284              	.L340:
 4285 0024 7B68     		ldr	r3, [r7, #4]
 4286 0026 1B68     		ldr	r3, [r3]
 4287 0028 FB60     		str	r3, [r7, #12]
 4288 002a FB68     		ldr	r3, [r7, #12]
 4289              		.syntax unified
ARM GAS  C:\msys64\tmp\ccXyuxUj.s 			page 75


 4290              	@ 1072 "cmsis/core/cmsis_gcc.h" 1
 4291 002c 53E8003F 		ldrex r3, [r3]
 4292              	@ 0 "" 2
 4293              		.thumb
 4294              		.syntax unified
 4295 0030 BB60     		str	r3, [r7, #8]
 4296 0032 BB68     		ldr	r3, [r7, #8]
 4297 0034 43F40053 		orr	r3, r3, #8192
 4298 0038 FB61     		str	r3, [r7, #28]
 4299 003a 7B68     		ldr	r3, [r7, #4]
 4300 003c 1B68     		ldr	r3, [r3]
 4301 003e 1A46     		mov	r2, r3
 4302 0040 FB69     		ldr	r3, [r7, #28]
 4303 0042 BB61     		str	r3, [r7, #24]
 4304 0044 7A61     		str	r2, [r7, #20]
 4305 0046 7969     		ldr	r1, [r7, #20]
 4306 0048 BA69     		ldr	r2, [r7, #24]
 4307              		.syntax unified
 4308              	@ 1123 "cmsis/core/cmsis_gcc.h" 1
 4309 004a 41E80023 		strex r3, r2, [r1]
 4310              	@ 0 "" 2
 4311              		.thumb
 4312              		.syntax unified
 4313 004e 3B61     		str	r3, [r7, #16]
 4314 0050 3B69     		ldr	r3, [r7, #16]
 4315 0052 002B     		cmp	r3, #0
 4316 0054 E6D1     		bne	.L340
 4317 0056 7B68     		ldr	r3, [r7, #4]
 4318 0058 2022     		movs	r2, #32
 4319 005a DA67     		str	r2, [r3, #124]
 4320 005c 7868     		ldr	r0, [r7, #4]
 4321 005e FFF7FEFF 		bl	UART_CheckIdleState
 4322 0062 0346     		mov	r3, r0
 4323              	.L337:
 4324 0064 1846     		mov	r0, r3
 4325 0066 2037     		adds	r7, r7, #32
 4326 0068 BD46     		mov	sp, r7
 4327              		@ sp needed
 4328 006a 80BD     		pop	{r7, pc}
 4330              		.section	.text.HAL_MultiProcessor_DisableMuteMode,"ax",%progbits
 4331              		.align	1
 4332              		.global	HAL_MultiProcessor_DisableMuteMode
 4333              		.syntax unified
 4334              		.thumb
 4335              		.thumb_func
 4337              	HAL_MultiProcessor_DisableMuteMode:
 4338              		@ args = 0, pretend = 0, frame = 32
 4339              		@ frame_needed = 1, uses_anonymous_args = 0
 4340 0000 80B5     		push	{r7, lr}
 4341 0002 88B0     		sub	sp, sp, #32
 4342 0004 00AF     		add	r7, sp, #0
 4343 0006 7860     		str	r0, [r7, #4]
 4344 0008 7B68     		ldr	r3, [r7, #4]
 4345 000a 93F87830 		ldrb	r3, [r3, #120]	@ zero_extendqisi2
 4346 000e 012B     		cmp	r3, #1
 4347 0010 01D1     		bne	.L342
 4348 0012 0223     		movs	r3, #2
ARM GAS  C:\msys64\tmp\ccXyuxUj.s 			page 76


 4349 0014 26E0     		b	.L343
 4350              	.L342:
 4351 0016 7B68     		ldr	r3, [r7, #4]
 4352 0018 0122     		movs	r2, #1
 4353 001a 83F87820 		strb	r2, [r3, #120]
 4354 001e 7B68     		ldr	r3, [r7, #4]
 4355 0020 2422     		movs	r2, #36
 4356 0022 DA67     		str	r2, [r3, #124]
 4357              	.L346:
 4358 0024 7B68     		ldr	r3, [r7, #4]
 4359 0026 1B68     		ldr	r3, [r3]
 4360 0028 FB60     		str	r3, [r7, #12]
 4361 002a FB68     		ldr	r3, [r7, #12]
 4362              		.syntax unified
 4363              	@ 1072 "cmsis/core/cmsis_gcc.h" 1
 4364 002c 53E8003F 		ldrex r3, [r3]
 4365              	@ 0 "" 2
 4366              		.thumb
 4367              		.syntax unified
 4368 0030 BB60     		str	r3, [r7, #8]
 4369 0032 BB68     		ldr	r3, [r7, #8]
 4370 0034 23F40053 		bic	r3, r3, #8192
 4371 0038 FB61     		str	r3, [r7, #28]
 4372 003a 7B68     		ldr	r3, [r7, #4]
 4373 003c 1B68     		ldr	r3, [r3]
 4374 003e 1A46     		mov	r2, r3
 4375 0040 FB69     		ldr	r3, [r7, #28]
 4376 0042 BB61     		str	r3, [r7, #24]
 4377 0044 7A61     		str	r2, [r7, #20]
 4378 0046 7969     		ldr	r1, [r7, #20]
 4379 0048 BA69     		ldr	r2, [r7, #24]
 4380              		.syntax unified
 4381              	@ 1123 "cmsis/core/cmsis_gcc.h" 1
 4382 004a 41E80023 		strex r3, r2, [r1]
 4383              	@ 0 "" 2
 4384              		.thumb
 4385              		.syntax unified
 4386 004e 3B61     		str	r3, [r7, #16]
 4387 0050 3B69     		ldr	r3, [r7, #16]
 4388 0052 002B     		cmp	r3, #0
 4389 0054 E6D1     		bne	.L346
 4390 0056 7B68     		ldr	r3, [r7, #4]
 4391 0058 2022     		movs	r2, #32
 4392 005a DA67     		str	r2, [r3, #124]
 4393 005c 7868     		ldr	r0, [r7, #4]
 4394 005e FFF7FEFF 		bl	UART_CheckIdleState
 4395 0062 0346     		mov	r3, r0
 4396              	.L343:
 4397 0064 1846     		mov	r0, r3
 4398 0066 2037     		adds	r7, r7, #32
 4399 0068 BD46     		mov	sp, r7
 4400              		@ sp needed
 4401 006a 80BD     		pop	{r7, pc}
 4403              		.section	.text.HAL_MultiProcessor_EnterMuteMode,"ax",%progbits
 4404              		.align	1
 4405              		.global	HAL_MultiProcessor_EnterMuteMode
 4406              		.syntax unified
ARM GAS  C:\msys64\tmp\ccXyuxUj.s 			page 77


 4407              		.thumb
 4408              		.thumb_func
 4410              	HAL_MultiProcessor_EnterMuteMode:
 4411              		@ args = 0, pretend = 0, frame = 8
 4412              		@ frame_needed = 1, uses_anonymous_args = 0
 4413              		@ link register save eliminated.
 4414 0000 80B4     		push	{r7}
 4415 0002 83B0     		sub	sp, sp, #12
 4416 0004 00AF     		add	r7, sp, #0
 4417 0006 7860     		str	r0, [r7, #4]
 4418 0008 7B68     		ldr	r3, [r7, #4]
 4419 000a 1B68     		ldr	r3, [r3]
 4420 000c 9A69     		ldr	r2, [r3, #24]
 4421 000e 7B68     		ldr	r3, [r7, #4]
 4422 0010 1B68     		ldr	r3, [r3]
 4423 0012 42F00402 		orr	r2, r2, #4
 4424 0016 9A61     		str	r2, [r3, #24]
 4425 0018 00BF     		nop
 4426 001a 0C37     		adds	r7, r7, #12
 4427 001c BD46     		mov	sp, r7
 4428              		@ sp needed
 4429 001e 5DF8047B 		ldr	r7, [sp], #4
 4430 0022 7047     		bx	lr
 4432              		.section	.text.HAL_HalfDuplex_EnableTransmitter,"ax",%progbits
 4433              		.align	1
 4434              		.global	HAL_HalfDuplex_EnableTransmitter
 4435              		.syntax unified
 4436              		.thumb
 4437              		.thumb_func
 4439              	HAL_HalfDuplex_EnableTransmitter:
 4440              		@ args = 0, pretend = 0, frame = 56
 4441              		@ frame_needed = 1, uses_anonymous_args = 0
 4442              		@ link register save eliminated.
 4443 0000 80B4     		push	{r7}
 4444 0002 8FB0     		sub	sp, sp, #60
 4445 0004 00AF     		add	r7, sp, #0
 4446 0006 7860     		str	r0, [r7, #4]
 4447 0008 7B68     		ldr	r3, [r7, #4]
 4448 000a 93F87830 		ldrb	r3, [r3, #120]	@ zero_extendqisi2
 4449 000e 012B     		cmp	r3, #1
 4450 0010 01D1     		bne	.L349
 4451 0012 0223     		movs	r3, #2
 4452 0014 40E0     		b	.L350
 4453              	.L349:
 4454 0016 7B68     		ldr	r3, [r7, #4]
 4455 0018 0122     		movs	r2, #1
 4456 001a 83F87820 		strb	r2, [r3, #120]
 4457 001e 7B68     		ldr	r3, [r7, #4]
 4458 0020 2422     		movs	r2, #36
 4459 0022 DA67     		str	r2, [r3, #124]
 4460              	.L353:
 4461 0024 7B68     		ldr	r3, [r7, #4]
 4462 0026 1B68     		ldr	r3, [r3]
 4463 0028 3B62     		str	r3, [r7, #32]
 4464 002a 3B6A     		ldr	r3, [r7, #32]
 4465              		.syntax unified
 4466              	@ 1072 "cmsis/core/cmsis_gcc.h" 1
ARM GAS  C:\msys64\tmp\ccXyuxUj.s 			page 78


 4467 002c 53E8003F 		ldrex r3, [r3]
 4468              	@ 0 "" 2
 4469              		.thumb
 4470              		.syntax unified
 4471 0030 FB61     		str	r3, [r7, #28]
 4472 0032 FB69     		ldr	r3, [r7, #28]
 4473 0034 23F00C03 		bic	r3, r3, #12
 4474 0038 7B63     		str	r3, [r7, #52]
 4475 003a 7B68     		ldr	r3, [r7, #4]
 4476 003c 1B68     		ldr	r3, [r3]
 4477 003e 1A46     		mov	r2, r3
 4478 0040 7B6B     		ldr	r3, [r7, #52]
 4479 0042 FB62     		str	r3, [r7, #44]
 4480 0044 BA62     		str	r2, [r7, #40]
 4481 0046 B96A     		ldr	r1, [r7, #40]
 4482 0048 FA6A     		ldr	r2, [r7, #44]
 4483              		.syntax unified
 4484              	@ 1123 "cmsis/core/cmsis_gcc.h" 1
 4485 004a 41E80023 		strex r3, r2, [r1]
 4486              	@ 0 "" 2
 4487              		.thumb
 4488              		.syntax unified
 4489 004e 7B62     		str	r3, [r7, #36]
 4490 0050 7B6A     		ldr	r3, [r7, #36]
 4491 0052 002B     		cmp	r3, #0
 4492 0054 E6D1     		bne	.L353
 4493              	.L356:
 4494 0056 7B68     		ldr	r3, [r7, #4]
 4495 0058 1B68     		ldr	r3, [r3]
 4496 005a FB60     		str	r3, [r7, #12]
 4497 005c FB68     		ldr	r3, [r7, #12]
 4498              		.syntax unified
 4499              	@ 1072 "cmsis/core/cmsis_gcc.h" 1
 4500 005e 53E8003F 		ldrex r3, [r3]
 4501              	@ 0 "" 2
 4502              		.thumb
 4503              		.syntax unified
 4504 0062 BB60     		str	r3, [r7, #8]
 4505 0064 BB68     		ldr	r3, [r7, #8]
 4506 0066 43F00803 		orr	r3, r3, #8
 4507 006a 3B63     		str	r3, [r7, #48]
 4508 006c 7B68     		ldr	r3, [r7, #4]
 4509 006e 1B68     		ldr	r3, [r3]
 4510 0070 1A46     		mov	r2, r3
 4511 0072 3B6B     		ldr	r3, [r7, #48]
 4512 0074 BB61     		str	r3, [r7, #24]
 4513 0076 7A61     		str	r2, [r7, #20]
 4514 0078 7969     		ldr	r1, [r7, #20]
 4515 007a BA69     		ldr	r2, [r7, #24]
 4516              		.syntax unified
 4517              	@ 1123 "cmsis/core/cmsis_gcc.h" 1
 4518 007c 41E80023 		strex r3, r2, [r1]
 4519              	@ 0 "" 2
 4520              		.thumb
 4521              		.syntax unified
 4522 0080 3B61     		str	r3, [r7, #16]
 4523 0082 3B69     		ldr	r3, [r7, #16]
ARM GAS  C:\msys64\tmp\ccXyuxUj.s 			page 79


 4524 0084 002B     		cmp	r3, #0
 4525 0086 E6D1     		bne	.L356
 4526 0088 7B68     		ldr	r3, [r7, #4]
 4527 008a 2022     		movs	r2, #32
 4528 008c DA67     		str	r2, [r3, #124]
 4529 008e 7B68     		ldr	r3, [r7, #4]
 4530 0090 0022     		movs	r2, #0
 4531 0092 83F87820 		strb	r2, [r3, #120]
 4532 0096 0023     		movs	r3, #0
 4533              	.L350:
 4534 0098 1846     		mov	r0, r3
 4535 009a 3C37     		adds	r7, r7, #60
 4536 009c BD46     		mov	sp, r7
 4537              		@ sp needed
 4538 009e 5DF8047B 		ldr	r7, [sp], #4
 4539 00a2 7047     		bx	lr
 4541              		.section	.text.HAL_HalfDuplex_EnableReceiver,"ax",%progbits
 4542              		.align	1
 4543              		.global	HAL_HalfDuplex_EnableReceiver
 4544              		.syntax unified
 4545              		.thumb
 4546              		.thumb_func
 4548              	HAL_HalfDuplex_EnableReceiver:
 4549              		@ args = 0, pretend = 0, frame = 56
 4550              		@ frame_needed = 1, uses_anonymous_args = 0
 4551              		@ link register save eliminated.
 4552 0000 80B4     		push	{r7}
 4553 0002 8FB0     		sub	sp, sp, #60
 4554 0004 00AF     		add	r7, sp, #0
 4555 0006 7860     		str	r0, [r7, #4]
 4556 0008 7B68     		ldr	r3, [r7, #4]
 4557 000a 93F87830 		ldrb	r3, [r3, #120]	@ zero_extendqisi2
 4558 000e 012B     		cmp	r3, #1
 4559 0010 01D1     		bne	.L358
 4560 0012 0223     		movs	r3, #2
 4561 0014 40E0     		b	.L359
 4562              	.L358:
 4563 0016 7B68     		ldr	r3, [r7, #4]
 4564 0018 0122     		movs	r2, #1
 4565 001a 83F87820 		strb	r2, [r3, #120]
 4566 001e 7B68     		ldr	r3, [r7, #4]
 4567 0020 2422     		movs	r2, #36
 4568 0022 DA67     		str	r2, [r3, #124]
 4569              	.L362:
 4570 0024 7B68     		ldr	r3, [r7, #4]
 4571 0026 1B68     		ldr	r3, [r3]
 4572 0028 3B62     		str	r3, [r7, #32]
 4573 002a 3B6A     		ldr	r3, [r7, #32]
 4574              		.syntax unified
 4575              	@ 1072 "cmsis/core/cmsis_gcc.h" 1
 4576 002c 53E8003F 		ldrex r3, [r3]
 4577              	@ 0 "" 2
 4578              		.thumb
 4579              		.syntax unified
 4580 0030 FB61     		str	r3, [r7, #28]
 4581 0032 FB69     		ldr	r3, [r7, #28]
 4582 0034 23F00C03 		bic	r3, r3, #12
ARM GAS  C:\msys64\tmp\ccXyuxUj.s 			page 80


 4583 0038 7B63     		str	r3, [r7, #52]
 4584 003a 7B68     		ldr	r3, [r7, #4]
 4585 003c 1B68     		ldr	r3, [r3]
 4586 003e 1A46     		mov	r2, r3
 4587 0040 7B6B     		ldr	r3, [r7, #52]
 4588 0042 FB62     		str	r3, [r7, #44]
 4589 0044 BA62     		str	r2, [r7, #40]
 4590 0046 B96A     		ldr	r1, [r7, #40]
 4591 0048 FA6A     		ldr	r2, [r7, #44]
 4592              		.syntax unified
 4593              	@ 1123 "cmsis/core/cmsis_gcc.h" 1
 4594 004a 41E80023 		strex r3, r2, [r1]
 4595              	@ 0 "" 2
 4596              		.thumb
 4597              		.syntax unified
 4598 004e 7B62     		str	r3, [r7, #36]
 4599 0050 7B6A     		ldr	r3, [r7, #36]
 4600 0052 002B     		cmp	r3, #0
 4601 0054 E6D1     		bne	.L362
 4602              	.L365:
 4603 0056 7B68     		ldr	r3, [r7, #4]
 4604 0058 1B68     		ldr	r3, [r3]
 4605 005a FB60     		str	r3, [r7, #12]
 4606 005c FB68     		ldr	r3, [r7, #12]
 4607              		.syntax unified
 4608              	@ 1072 "cmsis/core/cmsis_gcc.h" 1
 4609 005e 53E8003F 		ldrex r3, [r3]
 4610              	@ 0 "" 2
 4611              		.thumb
 4612              		.syntax unified
 4613 0062 BB60     		str	r3, [r7, #8]
 4614 0064 BB68     		ldr	r3, [r7, #8]
 4615 0066 43F00403 		orr	r3, r3, #4
 4616 006a 3B63     		str	r3, [r7, #48]
 4617 006c 7B68     		ldr	r3, [r7, #4]
 4618 006e 1B68     		ldr	r3, [r3]
 4619 0070 1A46     		mov	r2, r3
 4620 0072 3B6B     		ldr	r3, [r7, #48]
 4621 0074 BB61     		str	r3, [r7, #24]
 4622 0076 7A61     		str	r2, [r7, #20]
 4623 0078 7969     		ldr	r1, [r7, #20]
 4624 007a BA69     		ldr	r2, [r7, #24]
 4625              		.syntax unified
 4626              	@ 1123 "cmsis/core/cmsis_gcc.h" 1
 4627 007c 41E80023 		strex r3, r2, [r1]
 4628              	@ 0 "" 2
 4629              		.thumb
 4630              		.syntax unified
 4631 0080 3B61     		str	r3, [r7, #16]
 4632 0082 3B69     		ldr	r3, [r7, #16]
 4633 0084 002B     		cmp	r3, #0
 4634 0086 E6D1     		bne	.L365
 4635 0088 7B68     		ldr	r3, [r7, #4]
 4636 008a 2022     		movs	r2, #32
 4637 008c DA67     		str	r2, [r3, #124]
 4638 008e 7B68     		ldr	r3, [r7, #4]
 4639 0090 0022     		movs	r2, #0
ARM GAS  C:\msys64\tmp\ccXyuxUj.s 			page 81


 4640 0092 83F87820 		strb	r2, [r3, #120]
 4641 0096 0023     		movs	r3, #0
 4642              	.L359:
 4643 0098 1846     		mov	r0, r3
 4644 009a 3C37     		adds	r7, r7, #60
 4645 009c BD46     		mov	sp, r7
 4646              		@ sp needed
 4647 009e 5DF8047B 		ldr	r7, [sp], #4
 4648 00a2 7047     		bx	lr
 4650              		.section	.text.HAL_LIN_SendBreak,"ax",%progbits
 4651              		.align	1
 4652              		.global	HAL_LIN_SendBreak
 4653              		.syntax unified
 4654              		.thumb
 4655              		.thumb_func
 4657              	HAL_LIN_SendBreak:
 4658              		@ args = 0, pretend = 0, frame = 8
 4659              		@ frame_needed = 1, uses_anonymous_args = 0
 4660              		@ link register save eliminated.
 4661 0000 80B4     		push	{r7}
 4662 0002 83B0     		sub	sp, sp, #12
 4663 0004 00AF     		add	r7, sp, #0
 4664 0006 7860     		str	r0, [r7, #4]
 4665 0008 7B68     		ldr	r3, [r7, #4]
 4666 000a 93F87830 		ldrb	r3, [r3, #120]	@ zero_extendqisi2
 4667 000e 012B     		cmp	r3, #1
 4668 0010 01D1     		bne	.L367
 4669 0012 0223     		movs	r3, #2
 4670 0014 16E0     		b	.L368
 4671              	.L367:
 4672 0016 7B68     		ldr	r3, [r7, #4]
 4673 0018 0122     		movs	r2, #1
 4674 001a 83F87820 		strb	r2, [r3, #120]
 4675 001e 7B68     		ldr	r3, [r7, #4]
 4676 0020 2422     		movs	r2, #36
 4677 0022 DA67     		str	r2, [r3, #124]
 4678 0024 7B68     		ldr	r3, [r7, #4]
 4679 0026 1B68     		ldr	r3, [r3]
 4680 0028 9A69     		ldr	r2, [r3, #24]
 4681 002a 7B68     		ldr	r3, [r7, #4]
 4682 002c 1B68     		ldr	r3, [r3]
 4683 002e 42F00202 		orr	r2, r2, #2
 4684 0032 9A61     		str	r2, [r3, #24]
 4685 0034 7B68     		ldr	r3, [r7, #4]
 4686 0036 2022     		movs	r2, #32
 4687 0038 DA67     		str	r2, [r3, #124]
 4688 003a 7B68     		ldr	r3, [r7, #4]
 4689 003c 0022     		movs	r2, #0
 4690 003e 83F87820 		strb	r2, [r3, #120]
 4691 0042 0023     		movs	r3, #0
 4692              	.L368:
 4693 0044 1846     		mov	r0, r3
 4694 0046 0C37     		adds	r7, r7, #12
 4695 0048 BD46     		mov	sp, r7
 4696              		@ sp needed
 4697 004a 5DF8047B 		ldr	r7, [sp], #4
 4698 004e 7047     		bx	lr
ARM GAS  C:\msys64\tmp\ccXyuxUj.s 			page 82


 4700              		.section	.text.HAL_UART_GetState,"ax",%progbits
 4701              		.align	1
 4702              		.global	HAL_UART_GetState
 4703              		.syntax unified
 4704              		.thumb
 4705              		.thumb_func
 4707              	HAL_UART_GetState:
 4708              		@ args = 0, pretend = 0, frame = 16
 4709              		@ frame_needed = 1, uses_anonymous_args = 0
 4710              		@ link register save eliminated.
 4711 0000 80B4     		push	{r7}
 4712 0002 85B0     		sub	sp, sp, #20
 4713 0004 00AF     		add	r7, sp, #0
 4714 0006 7860     		str	r0, [r7, #4]
 4715 0008 7B68     		ldr	r3, [r7, #4]
 4716 000a DB6F     		ldr	r3, [r3, #124]
 4717 000c FB60     		str	r3, [r7, #12]
 4718 000e 7B68     		ldr	r3, [r7, #4]
 4719 0010 D3F88030 		ldr	r3, [r3, #128]
 4720 0014 BB60     		str	r3, [r7, #8]
 4721 0016 FA68     		ldr	r2, [r7, #12]
 4722 0018 BB68     		ldr	r3, [r7, #8]
 4723 001a 1343     		orrs	r3, r3, r2
 4724 001c 1846     		mov	r0, r3
 4725 001e 1437     		adds	r7, r7, #20
 4726 0020 BD46     		mov	sp, r7
 4727              		@ sp needed
 4728 0022 5DF8047B 		ldr	r7, [sp], #4
 4729 0026 7047     		bx	lr
 4731              		.section	.text.HAL_UART_GetError,"ax",%progbits
 4732              		.align	1
 4733              		.global	HAL_UART_GetError
 4734              		.syntax unified
 4735              		.thumb
 4736              		.thumb_func
 4738              	HAL_UART_GetError:
 4739              		@ args = 0, pretend = 0, frame = 8
 4740              		@ frame_needed = 1, uses_anonymous_args = 0
 4741              		@ link register save eliminated.
 4742 0000 80B4     		push	{r7}
 4743 0002 83B0     		sub	sp, sp, #12
 4744 0004 00AF     		add	r7, sp, #0
 4745 0006 7860     		str	r0, [r7, #4]
 4746 0008 7B68     		ldr	r3, [r7, #4]
 4747 000a D3F88430 		ldr	r3, [r3, #132]
 4748 000e 1846     		mov	r0, r3
 4749 0010 0C37     		adds	r7, r7, #12
 4750 0012 BD46     		mov	sp, r7
 4751              		@ sp needed
 4752 0014 5DF8047B 		ldr	r7, [sp], #4
 4753 0018 7047     		bx	lr
 4755              		.section	.text.UART_SetConfig,"ax",%progbits
 4756              		.align	1
 4757              		.global	UART_SetConfig
 4758              		.syntax unified
 4759              		.thumb
 4760              		.thumb_func
ARM GAS  C:\msys64\tmp\ccXyuxUj.s 			page 83


 4762              	UART_SetConfig:
 4763              		@ args = 0, pretend = 0, frame = 32
 4764              		@ frame_needed = 1, uses_anonymous_args = 0
 4765 0000 80B5     		push	{r7, lr}
 4766 0002 88B0     		sub	sp, sp, #32
 4767 0004 00AF     		add	r7, sp, #0
 4768 0006 7860     		str	r0, [r7, #4]
 4769 0008 0023     		movs	r3, #0
 4770 000a BB77     		strb	r3, [r7, #30]
 4771 000c 7B68     		ldr	r3, [r7, #4]
 4772 000e 9A68     		ldr	r2, [r3, #8]
 4773 0010 7B68     		ldr	r3, [r7, #4]
 4774 0012 1B69     		ldr	r3, [r3, #16]
 4775 0014 1A43     		orrs	r2, r2, r3
 4776 0016 7B68     		ldr	r3, [r7, #4]
 4777 0018 5B69     		ldr	r3, [r3, #20]
 4778 001a 1A43     		orrs	r2, r2, r3
 4779 001c 7B68     		ldr	r3, [r7, #4]
 4780 001e DB69     		ldr	r3, [r3, #28]
 4781 0020 1343     		orrs	r3, r3, r2
 4782 0022 7B61     		str	r3, [r7, #20]
 4783 0024 7B68     		ldr	r3, [r7, #4]
 4784 0026 1B68     		ldr	r3, [r3]
 4785 0028 1A68     		ldr	r2, [r3]
 4786 002a A64B     		ldr	r3, .L455
 4787 002c 1340     		ands	r3, r3, r2
 4788 002e 7A68     		ldr	r2, [r7, #4]
 4789 0030 1268     		ldr	r2, [r2]
 4790 0032 7969     		ldr	r1, [r7, #20]
 4791 0034 0B43     		orrs	r3, r3, r1
 4792 0036 1360     		str	r3, [r2]
 4793 0038 7B68     		ldr	r3, [r7, #4]
 4794 003a 1B68     		ldr	r3, [r3]
 4795 003c 5B68     		ldr	r3, [r3, #4]
 4796 003e 23F44051 		bic	r1, r3, #12288
 4797 0042 7B68     		ldr	r3, [r7, #4]
 4798 0044 DA68     		ldr	r2, [r3, #12]
 4799 0046 7B68     		ldr	r3, [r7, #4]
 4800 0048 1B68     		ldr	r3, [r3]
 4801 004a 0A43     		orrs	r2, r2, r1
 4802 004c 5A60     		str	r2, [r3, #4]
 4803 004e 7B68     		ldr	r3, [r7, #4]
 4804 0050 9B69     		ldr	r3, [r3, #24]
 4805 0052 7B61     		str	r3, [r7, #20]
 4806 0054 7B68     		ldr	r3, [r7, #4]
 4807 0056 1B6A     		ldr	r3, [r3, #32]
 4808 0058 7A69     		ldr	r2, [r7, #20]
 4809 005a 1343     		orrs	r3, r3, r2
 4810 005c 7B61     		str	r3, [r7, #20]
 4811 005e 7B68     		ldr	r3, [r7, #4]
 4812 0060 1B68     		ldr	r3, [r3]
 4813 0062 9B68     		ldr	r3, [r3, #8]
 4814 0064 23F43061 		bic	r1, r3, #2816
 4815 0068 7B68     		ldr	r3, [r7, #4]
 4816 006a 1B68     		ldr	r3, [r3]
 4817 006c 7A69     		ldr	r2, [r7, #20]
 4818 006e 0A43     		orrs	r2, r2, r1
ARM GAS  C:\msys64\tmp\ccXyuxUj.s 			page 84


 4819 0070 9A60     		str	r2, [r3, #8]
 4820 0072 7B68     		ldr	r3, [r7, #4]
 4821 0074 1B68     		ldr	r3, [r3]
 4822 0076 944A     		ldr	r2, .L455+4
 4823 0078 9342     		cmp	r3, r2
 4824 007a 20D1     		bne	.L374
 4825 007c 934B     		ldr	r3, .L455+8
 4826 007e D3F89030 		ldr	r3, [r3, #144]
 4827 0082 03F00303 		and	r3, r3, #3
 4828 0086 032B     		cmp	r3, #3
 4829 0088 16D8     		bhi	.L375
 4830 008a 01A2     		adr	r2, .L377
 4831 008c 52F823F0 		ldr	pc, [r2, r3, lsl #2]
 4832              		.p2align 2
 4833              	.L377:
 4834 0090 A1000000 		.word	.L380+1
 4835 0094 AD000000 		.word	.L379+1
 4836 0098 A7000000 		.word	.L378+1
 4837 009c B3000000 		.word	.L376+1
 4838              		.p2align 1
 4839              	.L380:
 4840 00a0 0123     		movs	r3, #1
 4841 00a2 FB77     		strb	r3, [r7, #31]
 4842 00a4 50E1     		b	.L382
 4843              	.L378:
 4844 00a6 0223     		movs	r3, #2
 4845 00a8 FB77     		strb	r3, [r7, #31]
 4846 00aa 4DE1     		b	.L382
 4847              	.L379:
 4848 00ac 0423     		movs	r3, #4
 4849 00ae FB77     		strb	r3, [r7, #31]
 4850 00b0 4AE1     		b	.L382
 4851              	.L376:
 4852 00b2 0823     		movs	r3, #8
 4853 00b4 FB77     		strb	r3, [r7, #31]
 4854 00b6 47E1     		b	.L382
 4855              	.L375:
 4856 00b8 1023     		movs	r3, #16
 4857 00ba FB77     		strb	r3, [r7, #31]
 4858 00bc 44E1     		b	.L382
 4859              	.L374:
 4860 00be 7B68     		ldr	r3, [r7, #4]
 4861 00c0 1B68     		ldr	r3, [r3]
 4862 00c2 834A     		ldr	r2, .L455+12
 4863 00c4 9342     		cmp	r3, r2
 4864 00c6 32D1     		bne	.L383
 4865 00c8 804B     		ldr	r3, .L455+8
 4866 00ca D3F89030 		ldr	r3, [r3, #144]
 4867 00ce 03F00C03 		and	r3, r3, #12
 4868 00d2 0C2B     		cmp	r3, #12
 4869 00d4 28D8     		bhi	.L384
 4870 00d6 01A2     		adr	r2, .L386
 4871 00d8 52F823F0 		ldr	pc, [r2, r3, lsl #2]
 4872              		.p2align 2
 4873              	.L386:
 4874 00dc 11010000 		.word	.L389+1
 4875 00e0 29010000 		.word	.L384+1
ARM GAS  C:\msys64\tmp\ccXyuxUj.s 			page 85


 4876 00e4 29010000 		.word	.L384+1
 4877 00e8 29010000 		.word	.L384+1
 4878 00ec 1D010000 		.word	.L388+1
 4879 00f0 29010000 		.word	.L384+1
 4880 00f4 29010000 		.word	.L384+1
 4881 00f8 29010000 		.word	.L384+1
 4882 00fc 17010000 		.word	.L387+1
 4883 0100 29010000 		.word	.L384+1
 4884 0104 29010000 		.word	.L384+1
 4885 0108 29010000 		.word	.L384+1
 4886 010c 23010000 		.word	.L385+1
 4887              		.p2align 1
 4888              	.L389:
 4889 0110 0023     		movs	r3, #0
 4890 0112 FB77     		strb	r3, [r7, #31]
 4891 0114 18E1     		b	.L382
 4892              	.L387:
 4893 0116 0223     		movs	r3, #2
 4894 0118 FB77     		strb	r3, [r7, #31]
 4895 011a 15E1     		b	.L382
 4896              	.L388:
 4897 011c 0423     		movs	r3, #4
 4898 011e FB77     		strb	r3, [r7, #31]
 4899 0120 12E1     		b	.L382
 4900              	.L385:
 4901 0122 0823     		movs	r3, #8
 4902 0124 FB77     		strb	r3, [r7, #31]
 4903 0126 0FE1     		b	.L382
 4904              	.L384:
 4905 0128 1023     		movs	r3, #16
 4906 012a FB77     		strb	r3, [r7, #31]
 4907 012c 0CE1     		b	.L382
 4908              	.L383:
 4909 012e 7B68     		ldr	r3, [r7, #4]
 4910 0130 1B68     		ldr	r3, [r3]
 4911 0132 684A     		ldr	r2, .L455+16
 4912 0134 9342     		cmp	r3, r2
 4913 0136 20D1     		bne	.L391
 4914 0138 644B     		ldr	r3, .L455+8
 4915 013a D3F89030 		ldr	r3, [r3, #144]
 4916 013e 03F03003 		and	r3, r3, #48
 4917 0142 302B     		cmp	r3, #48
 4918 0144 13D0     		beq	.L392
 4919 0146 302B     		cmp	r3, #48
 4920 0148 14D8     		bhi	.L393
 4921 014a 202B     		cmp	r3, #32
 4922 014c 09D0     		beq	.L394
 4923 014e 202B     		cmp	r3, #32
 4924 0150 10D8     		bhi	.L393
 4925 0152 002B     		cmp	r3, #0
 4926 0154 02D0     		beq	.L395
 4927 0156 102B     		cmp	r3, #16
 4928 0158 06D0     		beq	.L396
 4929 015a 0BE0     		b	.L393
 4930              	.L395:
 4931 015c 0023     		movs	r3, #0
 4932 015e FB77     		strb	r3, [r7, #31]
ARM GAS  C:\msys64\tmp\ccXyuxUj.s 			page 86


 4933 0160 F2E0     		b	.L382
 4934              	.L394:
 4935 0162 0223     		movs	r3, #2
 4936 0164 FB77     		strb	r3, [r7, #31]
 4937 0166 EFE0     		b	.L382
 4938              	.L396:
 4939 0168 0423     		movs	r3, #4
 4940 016a FB77     		strb	r3, [r7, #31]
 4941 016c ECE0     		b	.L382
 4942              	.L392:
 4943 016e 0823     		movs	r3, #8
 4944 0170 FB77     		strb	r3, [r7, #31]
 4945 0172 E9E0     		b	.L382
 4946              	.L393:
 4947 0174 1023     		movs	r3, #16
 4948 0176 FB77     		strb	r3, [r7, #31]
 4949 0178 E6E0     		b	.L382
 4950              	.L391:
 4951 017a 7B68     		ldr	r3, [r7, #4]
 4952 017c 1B68     		ldr	r3, [r3]
 4953 017e 564A     		ldr	r2, .L455+20
 4954 0180 9342     		cmp	r3, r2
 4955 0182 20D1     		bne	.L398
 4956 0184 514B     		ldr	r3, .L455+8
 4957 0186 D3F89030 		ldr	r3, [r3, #144]
 4958 018a 03F0C003 		and	r3, r3, #192
 4959 018e C02B     		cmp	r3, #192
 4960 0190 13D0     		beq	.L399
 4961 0192 C02B     		cmp	r3, #192
 4962 0194 14D8     		bhi	.L400
 4963 0196 802B     		cmp	r3, #128
 4964 0198 09D0     		beq	.L401
 4965 019a 802B     		cmp	r3, #128
 4966 019c 10D8     		bhi	.L400
 4967 019e 002B     		cmp	r3, #0
 4968 01a0 02D0     		beq	.L402
 4969 01a2 402B     		cmp	r3, #64
 4970 01a4 06D0     		beq	.L403
 4971 01a6 0BE0     		b	.L400
 4972              	.L402:
 4973 01a8 0023     		movs	r3, #0
 4974 01aa FB77     		strb	r3, [r7, #31]
 4975 01ac CCE0     		b	.L382
 4976              	.L401:
 4977 01ae 0223     		movs	r3, #2
 4978 01b0 FB77     		strb	r3, [r7, #31]
 4979 01b2 C9E0     		b	.L382
 4980              	.L403:
 4981 01b4 0423     		movs	r3, #4
 4982 01b6 FB77     		strb	r3, [r7, #31]
 4983 01b8 C6E0     		b	.L382
 4984              	.L399:
 4985 01ba 0823     		movs	r3, #8
 4986 01bc FB77     		strb	r3, [r7, #31]
 4987 01be C3E0     		b	.L382
 4988              	.L400:
 4989 01c0 1023     		movs	r3, #16
ARM GAS  C:\msys64\tmp\ccXyuxUj.s 			page 87


 4990 01c2 FB77     		strb	r3, [r7, #31]
 4991 01c4 C0E0     		b	.L382
 4992              	.L398:
 4993 01c6 7B68     		ldr	r3, [r7, #4]
 4994 01c8 1B68     		ldr	r3, [r3]
 4995 01ca 444A     		ldr	r2, .L455+24
 4996 01cc 9342     		cmp	r3, r2
 4997 01ce 25D1     		bne	.L405
 4998 01d0 3E4B     		ldr	r3, .L455+8
 4999 01d2 D3F89030 		ldr	r3, [r3, #144]
 5000 01d6 03F44073 		and	r3, r3, #768
 5001 01da B3F5407F 		cmp	r3, #768
 5002 01de 17D0     		beq	.L406
 5003 01e0 B3F5407F 		cmp	r3, #768
 5004 01e4 17D8     		bhi	.L407
 5005 01e6 B3F5007F 		cmp	r3, #512
 5006 01ea 0BD0     		beq	.L408
 5007 01ec B3F5007F 		cmp	r3, #512
 5008 01f0 11D8     		bhi	.L407
 5009 01f2 002B     		cmp	r3, #0
 5010 01f4 03D0     		beq	.L409
 5011 01f6 B3F5807F 		cmp	r3, #256
 5012 01fa 06D0     		beq	.L410
 5013 01fc 0BE0     		b	.L407
 5014              	.L409:
 5015 01fe 0023     		movs	r3, #0
 5016 0200 FB77     		strb	r3, [r7, #31]
 5017 0202 A1E0     		b	.L382
 5018              	.L408:
 5019 0204 0223     		movs	r3, #2
 5020 0206 FB77     		strb	r3, [r7, #31]
 5021 0208 9EE0     		b	.L382
 5022              	.L410:
 5023 020a 0423     		movs	r3, #4
 5024 020c FB77     		strb	r3, [r7, #31]
 5025 020e 9BE0     		b	.L382
 5026              	.L406:
 5027 0210 0823     		movs	r3, #8
 5028 0212 FB77     		strb	r3, [r7, #31]
 5029 0214 98E0     		b	.L382
 5030              	.L407:
 5031 0216 1023     		movs	r3, #16
 5032 0218 FB77     		strb	r3, [r7, #31]
 5033 021a 95E0     		b	.L382
 5034              	.L405:
 5035 021c 7B68     		ldr	r3, [r7, #4]
 5036 021e 1B68     		ldr	r3, [r3]
 5037 0220 2F4A     		ldr	r2, .L455+28
 5038 0222 9342     		cmp	r3, r2
 5039 0224 25D1     		bne	.L412
 5040 0226 294B     		ldr	r3, .L455+8
 5041 0228 D3F89030 		ldr	r3, [r3, #144]
 5042 022c 03F44063 		and	r3, r3, #3072
 5043 0230 B3F5406F 		cmp	r3, #3072
 5044 0234 17D0     		beq	.L413
 5045 0236 B3F5406F 		cmp	r3, #3072
 5046 023a 17D8     		bhi	.L414
ARM GAS  C:\msys64\tmp\ccXyuxUj.s 			page 88


 5047 023c B3F5006F 		cmp	r3, #2048
 5048 0240 0BD0     		beq	.L415
 5049 0242 B3F5006F 		cmp	r3, #2048
 5050 0246 11D8     		bhi	.L414
 5051 0248 002B     		cmp	r3, #0
 5052 024a 03D0     		beq	.L416
 5053 024c B3F5806F 		cmp	r3, #1024
 5054 0250 06D0     		beq	.L417
 5055 0252 0BE0     		b	.L414
 5056              	.L416:
 5057 0254 0123     		movs	r3, #1
 5058 0256 FB77     		strb	r3, [r7, #31]
 5059 0258 76E0     		b	.L382
 5060              	.L415:
 5061 025a 0223     		movs	r3, #2
 5062 025c FB77     		strb	r3, [r7, #31]
 5063 025e 73E0     		b	.L382
 5064              	.L417:
 5065 0260 0423     		movs	r3, #4
 5066 0262 FB77     		strb	r3, [r7, #31]
 5067 0264 70E0     		b	.L382
 5068              	.L413:
 5069 0266 0823     		movs	r3, #8
 5070 0268 FB77     		strb	r3, [r7, #31]
 5071 026a 6DE0     		b	.L382
 5072              	.L414:
 5073 026c 1023     		movs	r3, #16
 5074 026e FB77     		strb	r3, [r7, #31]
 5075 0270 6AE0     		b	.L382
 5076              	.L412:
 5077 0272 7B68     		ldr	r3, [r7, #4]
 5078 0274 1B68     		ldr	r3, [r3]
 5079 0276 1B4A     		ldr	r2, .L455+32
 5080 0278 9342     		cmp	r3, r2
 5081 027a 38D1     		bne	.L419
 5082 027c 134B     		ldr	r3, .L455+8
 5083 027e D3F89030 		ldr	r3, [r3, #144]
 5084 0282 03F44053 		and	r3, r3, #12288
 5085 0286 B3F5405F 		cmp	r3, #12288
 5086 028a 17D0     		beq	.L420
 5087 028c B3F5405F 		cmp	r3, #12288
 5088 0290 2AD8     		bhi	.L421
 5089 0292 B3F5005F 		cmp	r3, #8192
 5090 0296 0BD0     		beq	.L422
 5091 0298 B3F5005F 		cmp	r3, #8192
 5092 029c 24D8     		bhi	.L421
 5093 029e 002B     		cmp	r3, #0
 5094 02a0 03D0     		beq	.L423
 5095 02a2 B3F5805F 		cmp	r3, #4096
 5096 02a6 06D0     		beq	.L424
 5097 02a8 1EE0     		b	.L421
 5098              	.L423:
 5099 02aa 0023     		movs	r3, #0
 5100 02ac FB77     		strb	r3, [r7, #31]
 5101 02ae 4BE0     		b	.L382
 5102              	.L422:
 5103 02b0 0223     		movs	r3, #2
ARM GAS  C:\msys64\tmp\ccXyuxUj.s 			page 89


 5104 02b2 FB77     		strb	r3, [r7, #31]
 5105 02b4 48E0     		b	.L382
 5106              	.L424:
 5107 02b6 0423     		movs	r3, #4
 5108 02b8 FB77     		strb	r3, [r7, #31]
 5109 02ba 45E0     		b	.L382
 5110              	.L420:
 5111 02bc 0823     		movs	r3, #8
 5112 02be FB77     		strb	r3, [r7, #31]
 5113 02c0 42E0     		b	.L382
 5114              	.L456:
 5115 02c2 00BF     		.align	2
 5116              	.L455:
 5117 02c4 F369FFEF 		.word	-268473869
 5118 02c8 00100140 		.word	1073811456
 5119 02cc 00380240 		.word	1073887232
 5120 02d0 00440040 		.word	1073759232
 5121 02d4 00480040 		.word	1073760256
 5122 02d8 004C0040 		.word	1073761280
 5123 02dc 00500040 		.word	1073762304
 5124 02e0 00140140 		.word	1073812480
 5125 02e4 00780040 		.word	1073772544
 5126              	.L421:
 5127 02e8 1023     		movs	r3, #16
 5128 02ea FB77     		strb	r3, [r7, #31]
 5129 02ec 2CE0     		b	.L382
 5130              	.L419:
 5131 02ee 7B68     		ldr	r3, [r7, #4]
 5132 02f0 1B68     		ldr	r3, [r3]
 5133 02f2 724A     		ldr	r2, .L457
 5134 02f4 9342     		cmp	r3, r2
 5135 02f6 25D1     		bne	.L426
 5136 02f8 714B     		ldr	r3, .L457+4
 5137 02fa D3F89030 		ldr	r3, [r3, #144]
 5138 02fe 03F44043 		and	r3, r3, #49152
 5139 0302 B3F5404F 		cmp	r3, #49152
 5140 0306 17D0     		beq	.L427
 5141 0308 B3F5404F 		cmp	r3, #49152
 5142 030c 17D8     		bhi	.L428
 5143 030e B3F5004F 		cmp	r3, #32768
 5144 0312 0BD0     		beq	.L429
 5145 0314 B3F5004F 		cmp	r3, #32768
 5146 0318 11D8     		bhi	.L428
 5147 031a 002B     		cmp	r3, #0
 5148 031c 03D0     		beq	.L430
 5149 031e B3F5804F 		cmp	r3, #16384
 5150 0322 06D0     		beq	.L431
 5151 0324 0BE0     		b	.L428
 5152              	.L430:
 5153 0326 0023     		movs	r3, #0
 5154 0328 FB77     		strb	r3, [r7, #31]
 5155 032a 0DE0     		b	.L382
 5156              	.L429:
 5157 032c 0223     		movs	r3, #2
 5158 032e FB77     		strb	r3, [r7, #31]
 5159 0330 0AE0     		b	.L382
 5160              	.L431:
ARM GAS  C:\msys64\tmp\ccXyuxUj.s 			page 90


 5161 0332 0423     		movs	r3, #4
 5162 0334 FB77     		strb	r3, [r7, #31]
 5163 0336 07E0     		b	.L382
 5164              	.L427:
 5165 0338 0823     		movs	r3, #8
 5166 033a FB77     		strb	r3, [r7, #31]
 5167 033c 04E0     		b	.L382
 5168              	.L428:
 5169 033e 1023     		movs	r3, #16
 5170 0340 FB77     		strb	r3, [r7, #31]
 5171 0342 01E0     		b	.L382
 5172              	.L426:
 5173 0344 1023     		movs	r3, #16
 5174 0346 FB77     		strb	r3, [r7, #31]
 5175              	.L382:
 5176 0348 7B68     		ldr	r3, [r7, #4]
 5177 034a DB69     		ldr	r3, [r3, #28]
 5178 034c B3F5004F 		cmp	r3, #32768
 5179 0350 5BD1     		bne	.L433
 5180 0352 FB7F     		ldrb	r3, [r7, #31]	@ zero_extendqisi2
 5181 0354 082B     		cmp	r3, #8
 5182 0356 28D8     		bhi	.L434
 5183 0358 01A2     		adr	r2, .L436
 5184 035a 52F823F0 		ldr	pc, [r2, r3, lsl #2]
 5185 035e 00BF     		.p2align 2
 5186              	.L436:
 5187 0360 85030000 		.word	.L440+1
 5188 0364 8D030000 		.word	.L439+1
 5189 0368 95030000 		.word	.L438+1
 5190 036c AB030000 		.word	.L434+1
 5191 0370 9B030000 		.word	.L437+1
 5192 0374 AB030000 		.word	.L434+1
 5193 0378 AB030000 		.word	.L434+1
 5194 037c AB030000 		.word	.L434+1
 5195 0380 A3030000 		.word	.L435+1
 5196              		.p2align 1
 5197              	.L440:
 5198 0384 FFF7FEFF 		bl	HAL_RCC_GetPCLK1Freq
 5199 0388 B861     		str	r0, [r7, #24]
 5200 038a 13E0     		b	.L441
 5201              	.L439:
 5202 038c FFF7FEFF 		bl	HAL_RCC_GetPCLK2Freq
 5203 0390 B861     		str	r0, [r7, #24]
 5204 0392 0FE0     		b	.L441
 5205              	.L438:
 5206 0394 4B4B     		ldr	r3, .L457+8
 5207 0396 BB61     		str	r3, [r7, #24]
 5208 0398 0CE0     		b	.L441
 5209              	.L437:
 5210 039a FFF7FEFF 		bl	HAL_RCC_GetSysClockFreq
 5211 039e B861     		str	r0, [r7, #24]
 5212 03a0 08E0     		b	.L441
 5213              	.L435:
 5214 03a2 4FF40043 		mov	r3, #32768
 5215 03a6 BB61     		str	r3, [r7, #24]
 5216 03a8 04E0     		b	.L441
 5217              	.L434:
ARM GAS  C:\msys64\tmp\ccXyuxUj.s 			page 91


 5218 03aa 0023     		movs	r3, #0
 5219 03ac BB61     		str	r3, [r7, #24]
 5220 03ae 0123     		movs	r3, #1
 5221 03b0 BB77     		strb	r3, [r7, #30]
 5222 03b2 00BF     		nop
 5223              	.L441:
 5224 03b4 BB69     		ldr	r3, [r7, #24]
 5225 03b6 002B     		cmp	r3, #0
 5226 03b8 74D0     		beq	.L444
 5227 03ba BB69     		ldr	r3, [r7, #24]
 5228 03bc 5A00     		lsls	r2, r3, #1
 5229 03be 7B68     		ldr	r3, [r7, #4]
 5230 03c0 5B68     		ldr	r3, [r3, #4]
 5231 03c2 5B08     		lsrs	r3, r3, #1
 5232 03c4 1A44     		add	r2, r2, r3
 5233 03c6 7B68     		ldr	r3, [r7, #4]
 5234 03c8 5B68     		ldr	r3, [r3, #4]
 5235 03ca B2FBF3F3 		udiv	r3, r2, r3
 5236 03ce 3B61     		str	r3, [r7, #16]
 5237 03d0 3B69     		ldr	r3, [r7, #16]
 5238 03d2 0F2B     		cmp	r3, #15
 5239 03d4 16D9     		bls	.L443
 5240 03d6 3B69     		ldr	r3, [r7, #16]
 5241 03d8 B3F5803F 		cmp	r3, #65536
 5242 03dc 12D2     		bcs	.L443
 5243 03de 3B69     		ldr	r3, [r7, #16]
 5244 03e0 9BB2     		uxth	r3, r3
 5245 03e2 23F00F03 		bic	r3, r3, #15
 5246 03e6 FB81     		strh	r3, [r7, #14]	@ movhi
 5247 03e8 3B69     		ldr	r3, [r7, #16]
 5248 03ea 5B08     		lsrs	r3, r3, #1
 5249 03ec 9BB2     		uxth	r3, r3
 5250 03ee 03F00703 		and	r3, r3, #7
 5251 03f2 9AB2     		uxth	r2, r3
 5252 03f4 FB89     		ldrh	r3, [r7, #14]	@ movhi
 5253 03f6 1343     		orrs	r3, r3, r2
 5254 03f8 FB81     		strh	r3, [r7, #14]	@ movhi
 5255 03fa 7B68     		ldr	r3, [r7, #4]
 5256 03fc 1B68     		ldr	r3, [r3]
 5257 03fe FA89     		ldrh	r2, [r7, #14]
 5258 0400 DA60     		str	r2, [r3, #12]
 5259 0402 4FE0     		b	.L444
 5260              	.L443:
 5261 0404 0123     		movs	r3, #1
 5262 0406 BB77     		strb	r3, [r7, #30]
 5263 0408 4CE0     		b	.L444
 5264              	.L433:
 5265 040a FB7F     		ldrb	r3, [r7, #31]	@ zero_extendqisi2
 5266 040c 082B     		cmp	r3, #8
 5267 040e 28D8     		bhi	.L445
 5268 0410 01A2     		adr	r2, .L447
 5269 0412 52F823F0 		ldr	pc, [r2, r3, lsl #2]
 5270 0416 00BF     		.p2align 2
 5271              	.L447:
 5272 0418 3D040000 		.word	.L451+1
 5273 041c 45040000 		.word	.L450+1
 5274 0420 4D040000 		.word	.L449+1
ARM GAS  C:\msys64\tmp\ccXyuxUj.s 			page 92


 5275 0424 63040000 		.word	.L445+1
 5276 0428 53040000 		.word	.L448+1
 5277 042c 63040000 		.word	.L445+1
 5278 0430 63040000 		.word	.L445+1
 5279 0434 63040000 		.word	.L445+1
 5280 0438 5B040000 		.word	.L446+1
 5281              		.p2align 1
 5282              	.L451:
 5283 043c FFF7FEFF 		bl	HAL_RCC_GetPCLK1Freq
 5284 0440 B861     		str	r0, [r7, #24]
 5285 0442 13E0     		b	.L452
 5286              	.L450:
 5287 0444 FFF7FEFF 		bl	HAL_RCC_GetPCLK2Freq
 5288 0448 B861     		str	r0, [r7, #24]
 5289 044a 0FE0     		b	.L452
 5290              	.L449:
 5291 044c 1D4B     		ldr	r3, .L457+8
 5292 044e BB61     		str	r3, [r7, #24]
 5293 0450 0CE0     		b	.L452
 5294              	.L448:
 5295 0452 FFF7FEFF 		bl	HAL_RCC_GetSysClockFreq
 5296 0456 B861     		str	r0, [r7, #24]
 5297 0458 08E0     		b	.L452
 5298              	.L446:
 5299 045a 4FF40043 		mov	r3, #32768
 5300 045e BB61     		str	r3, [r7, #24]
 5301 0460 04E0     		b	.L452
 5302              	.L445:
 5303 0462 0023     		movs	r3, #0
 5304 0464 BB61     		str	r3, [r7, #24]
 5305 0466 0123     		movs	r3, #1
 5306 0468 BB77     		strb	r3, [r7, #30]
 5307 046a 00BF     		nop
 5308              	.L452:
 5309 046c BB69     		ldr	r3, [r7, #24]
 5310 046e 002B     		cmp	r3, #0
 5311 0470 18D0     		beq	.L444
 5312 0472 7B68     		ldr	r3, [r7, #4]
 5313 0474 5B68     		ldr	r3, [r3, #4]
 5314 0476 5A08     		lsrs	r2, r3, #1
 5315 0478 BB69     		ldr	r3, [r7, #24]
 5316 047a 1A44     		add	r2, r2, r3
 5317 047c 7B68     		ldr	r3, [r7, #4]
 5318 047e 5B68     		ldr	r3, [r3, #4]
 5319 0480 B2FBF3F3 		udiv	r3, r2, r3
 5320 0484 3B61     		str	r3, [r7, #16]
 5321 0486 3B69     		ldr	r3, [r7, #16]
 5322 0488 0F2B     		cmp	r3, #15
 5323 048a 09D9     		bls	.L453
 5324 048c 3B69     		ldr	r3, [r7, #16]
 5325 048e B3F5803F 		cmp	r3, #65536
 5326 0492 05D2     		bcs	.L453
 5327 0494 3B69     		ldr	r3, [r7, #16]
 5328 0496 9AB2     		uxth	r2, r3
 5329 0498 7B68     		ldr	r3, [r7, #4]
 5330 049a 1B68     		ldr	r3, [r3]
 5331 049c DA60     		str	r2, [r3, #12]
ARM GAS  C:\msys64\tmp\ccXyuxUj.s 			page 93


 5332 049e 01E0     		b	.L444
 5333              	.L453:
 5334 04a0 0123     		movs	r3, #1
 5335 04a2 BB77     		strb	r3, [r7, #30]
 5336              	.L444:
 5337 04a4 7B68     		ldr	r3, [r7, #4]
 5338 04a6 0022     		movs	r2, #0
 5339 04a8 9A66     		str	r2, [r3, #104]
 5340 04aa 7B68     		ldr	r3, [r7, #4]
 5341 04ac 0022     		movs	r2, #0
 5342 04ae DA66     		str	r2, [r3, #108]
 5343 04b0 BB7F     		ldrb	r3, [r7, #30]	@ zero_extendqisi2
 5344 04b2 1846     		mov	r0, r3
 5345 04b4 2037     		adds	r7, r7, #32
 5346 04b6 BD46     		mov	sp, r7
 5347              		@ sp needed
 5348 04b8 80BD     		pop	{r7, pc}
 5349              	.L458:
 5350 04ba 00BF     		.align	2
 5351              	.L457:
 5352 04bc 007C0040 		.word	1073773568
 5353 04c0 00380240 		.word	1073887232
 5354 04c4 0024F400 		.word	16000000
 5356              		.section	.text.UART_AdvFeatureConfig,"ax",%progbits
 5357              		.align	1
 5358              		.global	UART_AdvFeatureConfig
 5359              		.syntax unified
 5360              		.thumb
 5361              		.thumb_func
 5363              	UART_AdvFeatureConfig:
 5364              		@ args = 0, pretend = 0, frame = 8
 5365              		@ frame_needed = 1, uses_anonymous_args = 0
 5366              		@ link register save eliminated.
 5367 0000 80B4     		push	{r7}
 5368 0002 83B0     		sub	sp, sp, #12
 5369 0004 00AF     		add	r7, sp, #0
 5370 0006 7860     		str	r0, [r7, #4]
 5371 0008 7B68     		ldr	r3, [r7, #4]
 5372 000a 5B6A     		ldr	r3, [r3, #36]
 5373 000c 03F00803 		and	r3, r3, #8
 5374 0010 002B     		cmp	r3, #0
 5375 0012 0AD0     		beq	.L460
 5376 0014 7B68     		ldr	r3, [r7, #4]
 5377 0016 1B68     		ldr	r3, [r3]
 5378 0018 5B68     		ldr	r3, [r3, #4]
 5379 001a 23F40041 		bic	r1, r3, #32768
 5380 001e 7B68     		ldr	r3, [r7, #4]
 5381 0020 5A6B     		ldr	r2, [r3, #52]
 5382 0022 7B68     		ldr	r3, [r7, #4]
 5383 0024 1B68     		ldr	r3, [r3]
 5384 0026 0A43     		orrs	r2, r2, r1
 5385 0028 5A60     		str	r2, [r3, #4]
 5386              	.L460:
 5387 002a 7B68     		ldr	r3, [r7, #4]
 5388 002c 5B6A     		ldr	r3, [r3, #36]
 5389 002e 03F00103 		and	r3, r3, #1
 5390 0032 002B     		cmp	r3, #0
ARM GAS  C:\msys64\tmp\ccXyuxUj.s 			page 94


 5391 0034 0AD0     		beq	.L461
 5392 0036 7B68     		ldr	r3, [r7, #4]
 5393 0038 1B68     		ldr	r3, [r3]
 5394 003a 5B68     		ldr	r3, [r3, #4]
 5395 003c 23F40031 		bic	r1, r3, #131072
 5396 0040 7B68     		ldr	r3, [r7, #4]
 5397 0042 9A6A     		ldr	r2, [r3, #40]
 5398 0044 7B68     		ldr	r3, [r7, #4]
 5399 0046 1B68     		ldr	r3, [r3]
 5400 0048 0A43     		orrs	r2, r2, r1
 5401 004a 5A60     		str	r2, [r3, #4]
 5402              	.L461:
 5403 004c 7B68     		ldr	r3, [r7, #4]
 5404 004e 5B6A     		ldr	r3, [r3, #36]
 5405 0050 03F00203 		and	r3, r3, #2
 5406 0054 002B     		cmp	r3, #0
 5407 0056 0AD0     		beq	.L462
 5408 0058 7B68     		ldr	r3, [r7, #4]
 5409 005a 1B68     		ldr	r3, [r3]
 5410 005c 5B68     		ldr	r3, [r3, #4]
 5411 005e 23F48031 		bic	r1, r3, #65536
 5412 0062 7B68     		ldr	r3, [r7, #4]
 5413 0064 DA6A     		ldr	r2, [r3, #44]
 5414 0066 7B68     		ldr	r3, [r7, #4]
 5415 0068 1B68     		ldr	r3, [r3]
 5416 006a 0A43     		orrs	r2, r2, r1
 5417 006c 5A60     		str	r2, [r3, #4]
 5418              	.L462:
 5419 006e 7B68     		ldr	r3, [r7, #4]
 5420 0070 5B6A     		ldr	r3, [r3, #36]
 5421 0072 03F00403 		and	r3, r3, #4
 5422 0076 002B     		cmp	r3, #0
 5423 0078 0AD0     		beq	.L463
 5424 007a 7B68     		ldr	r3, [r7, #4]
 5425 007c 1B68     		ldr	r3, [r3]
 5426 007e 5B68     		ldr	r3, [r3, #4]
 5427 0080 23F48021 		bic	r1, r3, #262144
 5428 0084 7B68     		ldr	r3, [r7, #4]
 5429 0086 1A6B     		ldr	r2, [r3, #48]
 5430 0088 7B68     		ldr	r3, [r7, #4]
 5431 008a 1B68     		ldr	r3, [r3]
 5432 008c 0A43     		orrs	r2, r2, r1
 5433 008e 5A60     		str	r2, [r3, #4]
 5434              	.L463:
 5435 0090 7B68     		ldr	r3, [r7, #4]
 5436 0092 5B6A     		ldr	r3, [r3, #36]
 5437 0094 03F01003 		and	r3, r3, #16
 5438 0098 002B     		cmp	r3, #0
 5439 009a 0AD0     		beq	.L464
 5440 009c 7B68     		ldr	r3, [r7, #4]
 5441 009e 1B68     		ldr	r3, [r3]
 5442 00a0 9B68     		ldr	r3, [r3, #8]
 5443 00a2 23F48051 		bic	r1, r3, #4096
 5444 00a6 7B68     		ldr	r3, [r7, #4]
 5445 00a8 9A6B     		ldr	r2, [r3, #56]
 5446 00aa 7B68     		ldr	r3, [r7, #4]
 5447 00ac 1B68     		ldr	r3, [r3]
ARM GAS  C:\msys64\tmp\ccXyuxUj.s 			page 95


 5448 00ae 0A43     		orrs	r2, r2, r1
 5449 00b0 9A60     		str	r2, [r3, #8]
 5450              	.L464:
 5451 00b2 7B68     		ldr	r3, [r7, #4]
 5452 00b4 5B6A     		ldr	r3, [r3, #36]
 5453 00b6 03F02003 		and	r3, r3, #32
 5454 00ba 002B     		cmp	r3, #0
 5455 00bc 0AD0     		beq	.L465
 5456 00be 7B68     		ldr	r3, [r7, #4]
 5457 00c0 1B68     		ldr	r3, [r3]
 5458 00c2 9B68     		ldr	r3, [r3, #8]
 5459 00c4 23F40051 		bic	r1, r3, #8192
 5460 00c8 7B68     		ldr	r3, [r7, #4]
 5461 00ca DA6B     		ldr	r2, [r3, #60]
 5462 00cc 7B68     		ldr	r3, [r7, #4]
 5463 00ce 1B68     		ldr	r3, [r3]
 5464 00d0 0A43     		orrs	r2, r2, r1
 5465 00d2 9A60     		str	r2, [r3, #8]
 5466              	.L465:
 5467 00d4 7B68     		ldr	r3, [r7, #4]
 5468 00d6 5B6A     		ldr	r3, [r3, #36]
 5469 00d8 03F04003 		and	r3, r3, #64
 5470 00dc 002B     		cmp	r3, #0
 5471 00de 1AD0     		beq	.L466
 5472 00e0 7B68     		ldr	r3, [r7, #4]
 5473 00e2 1B68     		ldr	r3, [r3]
 5474 00e4 5B68     		ldr	r3, [r3, #4]
 5475 00e6 23F48011 		bic	r1, r3, #1048576
 5476 00ea 7B68     		ldr	r3, [r7, #4]
 5477 00ec 1A6C     		ldr	r2, [r3, #64]
 5478 00ee 7B68     		ldr	r3, [r7, #4]
 5479 00f0 1B68     		ldr	r3, [r3]
 5480 00f2 0A43     		orrs	r2, r2, r1
 5481 00f4 5A60     		str	r2, [r3, #4]
 5482 00f6 7B68     		ldr	r3, [r7, #4]
 5483 00f8 1B6C     		ldr	r3, [r3, #64]
 5484 00fa B3F5801F 		cmp	r3, #1048576
 5485 00fe 0AD1     		bne	.L466
 5486 0100 7B68     		ldr	r3, [r7, #4]
 5487 0102 1B68     		ldr	r3, [r3]
 5488 0104 5B68     		ldr	r3, [r3, #4]
 5489 0106 23F4C001 		bic	r1, r3, #6291456
 5490 010a 7B68     		ldr	r3, [r7, #4]
 5491 010c 5A6C     		ldr	r2, [r3, #68]
 5492 010e 7B68     		ldr	r3, [r7, #4]
 5493 0110 1B68     		ldr	r3, [r3]
 5494 0112 0A43     		orrs	r2, r2, r1
 5495 0114 5A60     		str	r2, [r3, #4]
 5496              	.L466:
 5497 0116 7B68     		ldr	r3, [r7, #4]
 5498 0118 5B6A     		ldr	r3, [r3, #36]
 5499 011a 03F08003 		and	r3, r3, #128
 5500 011e 002B     		cmp	r3, #0
 5501 0120 0AD0     		beq	.L468
 5502 0122 7B68     		ldr	r3, [r7, #4]
 5503 0124 1B68     		ldr	r3, [r3]
 5504 0126 5B68     		ldr	r3, [r3, #4]
ARM GAS  C:\msys64\tmp\ccXyuxUj.s 			page 96


 5505 0128 23F40021 		bic	r1, r3, #524288
 5506 012c 7B68     		ldr	r3, [r7, #4]
 5507 012e 9A6C     		ldr	r2, [r3, #72]
 5508 0130 7B68     		ldr	r3, [r7, #4]
 5509 0132 1B68     		ldr	r3, [r3]
 5510 0134 0A43     		orrs	r2, r2, r1
 5511 0136 5A60     		str	r2, [r3, #4]
 5512              	.L468:
 5513 0138 00BF     		nop
 5514 013a 0C37     		adds	r7, r7, #12
 5515 013c BD46     		mov	sp, r7
 5516              		@ sp needed
 5517 013e 5DF8047B 		ldr	r7, [sp], #4
 5518 0142 7047     		bx	lr
 5520              		.section	.text.UART_CheckIdleState,"ax",%progbits
 5521              		.align	1
 5522              		.global	UART_CheckIdleState
 5523              		.syntax unified
 5524              		.thumb
 5525              		.thumb_func
 5527              	UART_CheckIdleState:
 5528              		@ args = 0, pretend = 0, frame = 40
 5529              		@ frame_needed = 1, uses_anonymous_args = 0
 5530 0000 80B5     		push	{r7, lr}
 5531 0002 8CB0     		sub	sp, sp, #48
 5532 0004 02AF     		add	r7, sp, #8
 5533 0006 7860     		str	r0, [r7, #4]
 5534 0008 7B68     		ldr	r3, [r7, #4]
 5535 000a 0022     		movs	r2, #0
 5536 000c C3F88420 		str	r2, [r3, #132]
 5537 0010 FFF7FEFF 		bl	HAL_GetTick
 5538 0014 7862     		str	r0, [r7, #36]
 5539 0016 7B68     		ldr	r3, [r7, #4]
 5540 0018 1B68     		ldr	r3, [r3]
 5541 001a 1B68     		ldr	r3, [r3]
 5542 001c 03F00803 		and	r3, r3, #8
 5543 0020 082B     		cmp	r3, #8
 5544 0022 2ED1     		bne	.L470
 5545 0024 6FF07E43 		mvn	r3, #-33554432
 5546 0028 0093     		str	r3, [sp]
 5547 002a 7B6A     		ldr	r3, [r7, #36]
 5548 002c 0022     		movs	r2, #0
 5549 002e 4FF40011 		mov	r1, #2097152
 5550 0032 7868     		ldr	r0, [r7, #4]
 5551 0034 FFF7FEFF 		bl	UART_WaitOnFlagUntilTimeout
 5552 0038 0346     		mov	r3, r0
 5553 003a 002B     		cmp	r3, #0
 5554 003c 21D0     		beq	.L470
 5555              	.L473:
 5556 003e 7B68     		ldr	r3, [r7, #4]
 5557 0040 1B68     		ldr	r3, [r3]
 5558 0042 3B61     		str	r3, [r7, #16]
 5559 0044 3B69     		ldr	r3, [r7, #16]
 5560              		.syntax unified
 5561              	@ 1072 "cmsis/core/cmsis_gcc.h" 1
 5562 0046 53E8003F 		ldrex r3, [r3]
 5563              	@ 0 "" 2
ARM GAS  C:\msys64\tmp\ccXyuxUj.s 			page 97


 5564              		.thumb
 5565              		.syntax unified
 5566 004a FB60     		str	r3, [r7, #12]
 5567 004c FB68     		ldr	r3, [r7, #12]
 5568 004e 23F08003 		bic	r3, r3, #128
 5569 0052 3B62     		str	r3, [r7, #32]
 5570 0054 7B68     		ldr	r3, [r7, #4]
 5571 0056 1B68     		ldr	r3, [r3]
 5572 0058 1A46     		mov	r2, r3
 5573 005a 3B6A     		ldr	r3, [r7, #32]
 5574 005c FB61     		str	r3, [r7, #28]
 5575 005e BA61     		str	r2, [r7, #24]
 5576 0060 B969     		ldr	r1, [r7, #24]
 5577 0062 FA69     		ldr	r2, [r7, #28]
 5578              		.syntax unified
 5579              	@ 1123 "cmsis/core/cmsis_gcc.h" 1
 5580 0064 41E80023 		strex r3, r2, [r1]
 5581              	@ 0 "" 2
 5582              		.thumb
 5583              		.syntax unified
 5584 0068 7B61     		str	r3, [r7, #20]
 5585 006a 7B69     		ldr	r3, [r7, #20]
 5586 006c 002B     		cmp	r3, #0
 5587 006e E6D1     		bne	.L473
 5588 0070 7B68     		ldr	r3, [r7, #4]
 5589 0072 2022     		movs	r2, #32
 5590 0074 DA67     		str	r2, [r3, #124]
 5591 0076 7B68     		ldr	r3, [r7, #4]
 5592 0078 0022     		movs	r2, #0
 5593 007a 83F87820 		strb	r2, [r3, #120]
 5594 007e 0323     		movs	r3, #3
 5595 0080 11E0     		b	.L474
 5596              	.L470:
 5597 0082 7B68     		ldr	r3, [r7, #4]
 5598 0084 2022     		movs	r2, #32
 5599 0086 DA67     		str	r2, [r3, #124]
 5600 0088 7B68     		ldr	r3, [r7, #4]
 5601 008a 2022     		movs	r2, #32
 5602 008c C3F88020 		str	r2, [r3, #128]
 5603 0090 7B68     		ldr	r3, [r7, #4]
 5604 0092 0022     		movs	r2, #0
 5605 0094 1A66     		str	r2, [r3, #96]
 5606 0096 7B68     		ldr	r3, [r7, #4]
 5607 0098 0022     		movs	r2, #0
 5608 009a 5A66     		str	r2, [r3, #100]
 5609 009c 7B68     		ldr	r3, [r7, #4]
 5610 009e 0022     		movs	r2, #0
 5611 00a0 83F87820 		strb	r2, [r3, #120]
 5612 00a4 0023     		movs	r3, #0
 5613              	.L474:
 5614 00a6 1846     		mov	r0, r3
 5615 00a8 2837     		adds	r7, r7, #40
 5616 00aa BD46     		mov	sp, r7
 5617              		@ sp needed
 5618 00ac 80BD     		pop	{r7, pc}
 5620              		.section	.text.UART_WaitOnFlagUntilTimeout,"ax",%progbits
 5621              		.align	1
ARM GAS  C:\msys64\tmp\ccXyuxUj.s 			page 98


 5622              		.global	UART_WaitOnFlagUntilTimeout
 5623              		.syntax unified
 5624              		.thumb
 5625              		.thumb_func
 5627              	UART_WaitOnFlagUntilTimeout:
 5628              		@ args = 4, pretend = 0, frame = 16
 5629              		@ frame_needed = 1, uses_anonymous_args = 0
 5630 0000 80B5     		push	{r7, lr}
 5631 0002 84B0     		sub	sp, sp, #16
 5632 0004 00AF     		add	r7, sp, #0
 5633 0006 F860     		str	r0, [r7, #12]
 5634 0008 B960     		str	r1, [r7, #8]
 5635 000a 3B60     		str	r3, [r7]
 5636 000c 1346     		mov	r3, r2
 5637 000e FB71     		strb	r3, [r7, #7]
 5638 0010 4FE0     		b	.L477
 5639              	.L483:
 5640 0012 BB69     		ldr	r3, [r7, #24]
 5641 0014 B3F1FF3F 		cmp	r3, #-1
 5642 0018 4BD0     		beq	.L477
 5643 001a FFF7FEFF 		bl	HAL_GetTick
 5644 001e 0246     		mov	r2, r0
 5645 0020 3B68     		ldr	r3, [r7]
 5646 0022 D31A     		subs	r3, r2, r3
 5647 0024 BA69     		ldr	r2, [r7, #24]
 5648 0026 9A42     		cmp	r2, r3
 5649 0028 02D3     		bcc	.L478
 5650 002a BB69     		ldr	r3, [r7, #24]
 5651 002c 002B     		cmp	r3, #0
 5652 002e 01D1     		bne	.L479
 5653              	.L478:
 5654 0030 0323     		movs	r3, #3
 5655 0032 4EE0     		b	.L480
 5656              	.L479:
 5657 0034 FB68     		ldr	r3, [r7, #12]
 5658 0036 1B68     		ldr	r3, [r3]
 5659 0038 1B68     		ldr	r3, [r3]
 5660 003a 03F00403 		and	r3, r3, #4
 5661 003e 002B     		cmp	r3, #0
 5662 0040 37D0     		beq	.L477
 5663 0042 BB68     		ldr	r3, [r7, #8]
 5664 0044 802B     		cmp	r3, #128
 5665 0046 34D0     		beq	.L477
 5666 0048 BB68     		ldr	r3, [r7, #8]
 5667 004a 402B     		cmp	r3, #64
 5668 004c 31D0     		beq	.L477
 5669 004e FB68     		ldr	r3, [r7, #12]
 5670 0050 1B68     		ldr	r3, [r3]
 5671 0052 DB69     		ldr	r3, [r3, #28]
 5672 0054 03F00803 		and	r3, r3, #8
 5673 0058 082B     		cmp	r3, #8
 5674 005a 10D1     		bne	.L482
 5675 005c FB68     		ldr	r3, [r7, #12]
 5676 005e 1B68     		ldr	r3, [r3]
 5677 0060 0822     		movs	r2, #8
 5678 0062 1A62     		str	r2, [r3, #32]
 5679 0064 F868     		ldr	r0, [r7, #12]
ARM GAS  C:\msys64\tmp\ccXyuxUj.s 			page 99


 5680 0066 FFF7FEFF 		bl	UART_EndRxTransfer
 5681 006a FB68     		ldr	r3, [r7, #12]
 5682 006c 0822     		movs	r2, #8
 5683 006e C3F88420 		str	r2, [r3, #132]
 5684 0072 FB68     		ldr	r3, [r7, #12]
 5685 0074 0022     		movs	r2, #0
 5686 0076 83F87820 		strb	r2, [r3, #120]
 5687 007a 0123     		movs	r3, #1
 5688 007c 29E0     		b	.L480
 5689              	.L482:
 5690 007e FB68     		ldr	r3, [r7, #12]
 5691 0080 1B68     		ldr	r3, [r3]
 5692 0082 DB69     		ldr	r3, [r3, #28]
 5693 0084 03F40063 		and	r3, r3, #2048
 5694 0088 B3F5006F 		cmp	r3, #2048
 5695 008c 11D1     		bne	.L477
 5696 008e FB68     		ldr	r3, [r7, #12]
 5697 0090 1B68     		ldr	r3, [r3]
 5698 0092 4FF40062 		mov	r2, #2048
 5699 0096 1A62     		str	r2, [r3, #32]
 5700 0098 F868     		ldr	r0, [r7, #12]
 5701 009a FFF7FEFF 		bl	UART_EndRxTransfer
 5702 009e FB68     		ldr	r3, [r7, #12]
 5703 00a0 2022     		movs	r2, #32
 5704 00a2 C3F88420 		str	r2, [r3, #132]
 5705 00a6 FB68     		ldr	r3, [r7, #12]
 5706 00a8 0022     		movs	r2, #0
 5707 00aa 83F87820 		strb	r2, [r3, #120]
 5708 00ae 0323     		movs	r3, #3
 5709 00b0 0FE0     		b	.L480
 5710              	.L477:
 5711 00b2 FB68     		ldr	r3, [r7, #12]
 5712 00b4 1B68     		ldr	r3, [r3]
 5713 00b6 DA69     		ldr	r2, [r3, #28]
 5714 00b8 BB68     		ldr	r3, [r7, #8]
 5715 00ba 1340     		ands	r3, r3, r2
 5716 00bc BA68     		ldr	r2, [r7, #8]
 5717 00be 9A42     		cmp	r2, r3
 5718 00c0 0CBF     		ite	eq
 5719 00c2 0123     		moveq	r3, #1
 5720 00c4 0023     		movne	r3, #0
 5721 00c6 DBB2     		uxtb	r3, r3
 5722 00c8 1A46     		mov	r2, r3
 5723 00ca FB79     		ldrb	r3, [r7, #7]	@ zero_extendqisi2
 5724 00cc 9A42     		cmp	r2, r3
 5725 00ce A0D0     		beq	.L483
 5726 00d0 0023     		movs	r3, #0
 5727              	.L480:
 5728 00d2 1846     		mov	r0, r3
 5729 00d4 1037     		adds	r7, r7, #16
 5730 00d6 BD46     		mov	sp, r7
 5731              		@ sp needed
 5732 00d8 80BD     		pop	{r7, pc}
 5734              		.section	.text.UART_Start_Receive_IT,"ax",%progbits
 5735              		.align	1
 5736              		.global	UART_Start_Receive_IT
 5737              		.syntax unified
ARM GAS  C:\msys64\tmp\ccXyuxUj.s 			page 100


 5738              		.thumb
 5739              		.thumb_func
 5741              	UART_Start_Receive_IT:
 5742              		@ args = 0, pretend = 0, frame = 88
 5743              		@ frame_needed = 1, uses_anonymous_args = 0
 5744              		@ link register save eliminated.
 5745 0000 80B4     		push	{r7}
 5746 0002 97B0     		sub	sp, sp, #92
 5747 0004 00AF     		add	r7, sp, #0
 5748 0006 F860     		str	r0, [r7, #12]
 5749 0008 B960     		str	r1, [r7, #8]
 5750 000a 1346     		mov	r3, r2
 5751 000c FB80     		strh	r3, [r7, #6]	@ movhi
 5752 000e FB68     		ldr	r3, [r7, #12]
 5753 0010 BA68     		ldr	r2, [r7, #8]
 5754 0012 5A65     		str	r2, [r3, #84]
 5755 0014 FB68     		ldr	r3, [r7, #12]
 5756 0016 FA88     		ldrh	r2, [r7, #6]	@ movhi
 5757 0018 A3F85820 		strh	r2, [r3, #88]	@ movhi
 5758 001c FB68     		ldr	r3, [r7, #12]
 5759 001e FA88     		ldrh	r2, [r7, #6]	@ movhi
 5760 0020 A3F85A20 		strh	r2, [r3, #90]	@ movhi
 5761 0024 FB68     		ldr	r3, [r7, #12]
 5762 0026 0022     		movs	r2, #0
 5763 0028 9A66     		str	r2, [r3, #104]
 5764 002a FB68     		ldr	r3, [r7, #12]
 5765 002c 9B68     		ldr	r3, [r3, #8]
 5766 002e B3F5805F 		cmp	r3, #4096
 5767 0032 0ED1     		bne	.L485
 5768 0034 FB68     		ldr	r3, [r7, #12]
 5769 0036 1B69     		ldr	r3, [r3, #16]
 5770 0038 002B     		cmp	r3, #0
 5771 003a 05D1     		bne	.L486
 5772 003c FB68     		ldr	r3, [r7, #12]
 5773 003e 40F2FF12 		movw	r2, #511
 5774 0042 A3F85C20 		strh	r2, [r3, #92]	@ movhi
 5775 0046 2DE0     		b	.L487
 5776              	.L486:
 5777 0048 FB68     		ldr	r3, [r7, #12]
 5778 004a FF22     		movs	r2, #255
 5779 004c A3F85C20 		strh	r2, [r3, #92]	@ movhi
 5780 0050 28E0     		b	.L487
 5781              	.L485:
 5782 0052 FB68     		ldr	r3, [r7, #12]
 5783 0054 9B68     		ldr	r3, [r3, #8]
 5784 0056 002B     		cmp	r3, #0
 5785 0058 0DD1     		bne	.L488
 5786 005a FB68     		ldr	r3, [r7, #12]
 5787 005c 1B69     		ldr	r3, [r3, #16]
 5788 005e 002B     		cmp	r3, #0
 5789 0060 04D1     		bne	.L489
 5790 0062 FB68     		ldr	r3, [r7, #12]
 5791 0064 FF22     		movs	r2, #255
 5792 0066 A3F85C20 		strh	r2, [r3, #92]	@ movhi
 5793 006a 1BE0     		b	.L487
 5794              	.L489:
 5795 006c FB68     		ldr	r3, [r7, #12]
ARM GAS  C:\msys64\tmp\ccXyuxUj.s 			page 101


 5796 006e 7F22     		movs	r2, #127
 5797 0070 A3F85C20 		strh	r2, [r3, #92]	@ movhi
 5798 0074 16E0     		b	.L487
 5799              	.L488:
 5800 0076 FB68     		ldr	r3, [r7, #12]
 5801 0078 9B68     		ldr	r3, [r3, #8]
 5802 007a B3F1805F 		cmp	r3, #268435456
 5803 007e 0DD1     		bne	.L490
 5804 0080 FB68     		ldr	r3, [r7, #12]
 5805 0082 1B69     		ldr	r3, [r3, #16]
 5806 0084 002B     		cmp	r3, #0
 5807 0086 04D1     		bne	.L491
 5808 0088 FB68     		ldr	r3, [r7, #12]
 5809 008a 7F22     		movs	r2, #127
 5810 008c A3F85C20 		strh	r2, [r3, #92]	@ movhi
 5811 0090 08E0     		b	.L487
 5812              	.L491:
 5813 0092 FB68     		ldr	r3, [r7, #12]
 5814 0094 3F22     		movs	r2, #63
 5815 0096 A3F85C20 		strh	r2, [r3, #92]	@ movhi
 5816 009a 03E0     		b	.L487
 5817              	.L490:
 5818 009c FB68     		ldr	r3, [r7, #12]
 5819 009e 0022     		movs	r2, #0
 5820 00a0 A3F85C20 		strh	r2, [r3, #92]	@ movhi
 5821              	.L487:
 5822 00a4 FB68     		ldr	r3, [r7, #12]
 5823 00a6 0022     		movs	r2, #0
 5824 00a8 C3F88420 		str	r2, [r3, #132]
 5825 00ac FB68     		ldr	r3, [r7, #12]
 5826 00ae 2222     		movs	r2, #34
 5827 00b0 C3F88020 		str	r2, [r3, #128]
 5828              	.L494:
 5829 00b4 FB68     		ldr	r3, [r7, #12]
 5830 00b6 1B68     		ldr	r3, [r3]
 5831 00b8 0833     		adds	r3, r3, #8
 5832 00ba FB63     		str	r3, [r7, #60]
 5833 00bc FB6B     		ldr	r3, [r7, #60]
 5834              		.syntax unified
 5835              	@ 1072 "cmsis/core/cmsis_gcc.h" 1
 5836 00be 53E8003F 		ldrex r3, [r3]
 5837              	@ 0 "" 2
 5838              		.thumb
 5839              		.syntax unified
 5840 00c2 BB63     		str	r3, [r7, #56]
 5841 00c4 BB6B     		ldr	r3, [r7, #56]
 5842 00c6 43F00103 		orr	r3, r3, #1
 5843 00ca 7B65     		str	r3, [r7, #84]
 5844 00cc FB68     		ldr	r3, [r7, #12]
 5845 00ce 1B68     		ldr	r3, [r3]
 5846 00d0 0833     		adds	r3, r3, #8
 5847 00d2 7A6D     		ldr	r2, [r7, #84]
 5848 00d4 BA64     		str	r2, [r7, #72]
 5849 00d6 7B64     		str	r3, [r7, #68]
 5850 00d8 796C     		ldr	r1, [r7, #68]
 5851 00da BA6C     		ldr	r2, [r7, #72]
 5852              		.syntax unified
ARM GAS  C:\msys64\tmp\ccXyuxUj.s 			page 102


 5853              	@ 1123 "cmsis/core/cmsis_gcc.h" 1
 5854 00dc 41E80023 		strex r3, r2, [r1]
 5855              	@ 0 "" 2
 5856              		.thumb
 5857              		.syntax unified
 5858 00e0 3B64     		str	r3, [r7, #64]
 5859 00e2 3B6C     		ldr	r3, [r7, #64]
 5860 00e4 002B     		cmp	r3, #0
 5861 00e6 E5D1     		bne	.L494
 5862 00e8 FB68     		ldr	r3, [r7, #12]
 5863 00ea 9B68     		ldr	r3, [r3, #8]
 5864 00ec B3F5805F 		cmp	r3, #4096
 5865 00f0 07D1     		bne	.L495
 5866 00f2 FB68     		ldr	r3, [r7, #12]
 5867 00f4 1B69     		ldr	r3, [r3, #16]
 5868 00f6 002B     		cmp	r3, #0
 5869 00f8 03D1     		bne	.L495
 5870 00fa FB68     		ldr	r3, [r7, #12]
 5871 00fc 214A     		ldr	r2, .L505
 5872 00fe 9A66     		str	r2, [r3, #104]
 5873 0100 02E0     		b	.L496
 5874              	.L495:
 5875 0102 FB68     		ldr	r3, [r7, #12]
 5876 0104 204A     		ldr	r2, .L505+4
 5877 0106 9A66     		str	r2, [r3, #104]
 5878              	.L496:
 5879 0108 FB68     		ldr	r3, [r7, #12]
 5880 010a 1B69     		ldr	r3, [r3, #16]
 5881 010c 002B     		cmp	r3, #0
 5882 010e 19D0     		beq	.L497
 5883              	.L500:
 5884 0110 FB68     		ldr	r3, [r7, #12]
 5885 0112 1B68     		ldr	r3, [r3]
 5886 0114 BB62     		str	r3, [r7, #40]
 5887 0116 BB6A     		ldr	r3, [r7, #40]
 5888              		.syntax unified
 5889              	@ 1072 "cmsis/core/cmsis_gcc.h" 1
 5890 0118 53E8003F 		ldrex r3, [r3]
 5891              	@ 0 "" 2
 5892              		.thumb
 5893              		.syntax unified
 5894 011c 7B62     		str	r3, [r7, #36]
 5895 011e 7B6A     		ldr	r3, [r7, #36]
 5896 0120 43F49073 		orr	r3, r3, #288
 5897 0124 FB64     		str	r3, [r7, #76]
 5898 0126 FB68     		ldr	r3, [r7, #12]
 5899 0128 1B68     		ldr	r3, [r3]
 5900 012a 1A46     		mov	r2, r3
 5901 012c FB6C     		ldr	r3, [r7, #76]
 5902 012e 7B63     		str	r3, [r7, #52]
 5903 0130 3A63     		str	r2, [r7, #48]
 5904 0132 396B     		ldr	r1, [r7, #48]
 5905 0134 7A6B     		ldr	r2, [r7, #52]
 5906              		.syntax unified
 5907              	@ 1123 "cmsis/core/cmsis_gcc.h" 1
 5908 0136 41E80023 		strex r3, r2, [r1]
 5909              	@ 0 "" 2
ARM GAS  C:\msys64\tmp\ccXyuxUj.s 			page 103


 5910              		.thumb
 5911              		.syntax unified
 5912 013a FB62     		str	r3, [r7, #44]
 5913 013c FB6A     		ldr	r3, [r7, #44]
 5914 013e 002B     		cmp	r3, #0
 5915 0140 E6D1     		bne	.L500
 5916 0142 18E0     		b	.L501
 5917              	.L497:
 5918 0144 FB68     		ldr	r3, [r7, #12]
 5919 0146 1B68     		ldr	r3, [r3]
 5920 0148 7B61     		str	r3, [r7, #20]
 5921 014a 7B69     		ldr	r3, [r7, #20]
 5922              		.syntax unified
 5923              	@ 1072 "cmsis/core/cmsis_gcc.h" 1
 5924 014c 53E8003F 		ldrex r3, [r3]
 5925              	@ 0 "" 2
 5926              		.thumb
 5927              		.syntax unified
 5928 0150 3B61     		str	r3, [r7, #16]
 5929 0152 3B69     		ldr	r3, [r7, #16]
 5930 0154 43F02003 		orr	r3, r3, #32
 5931 0158 3B65     		str	r3, [r7, #80]
 5932 015a FB68     		ldr	r3, [r7, #12]
 5933 015c 1B68     		ldr	r3, [r3]
 5934 015e 1A46     		mov	r2, r3
 5935 0160 3B6D     		ldr	r3, [r7, #80]
 5936 0162 3B62     		str	r3, [r7, #32]
 5937 0164 FA61     		str	r2, [r7, #28]
 5938 0166 F969     		ldr	r1, [r7, #28]
 5939 0168 3A6A     		ldr	r2, [r7, #32]
 5940              		.syntax unified
 5941              	@ 1123 "cmsis/core/cmsis_gcc.h" 1
 5942 016a 41E80023 		strex r3, r2, [r1]
 5943              	@ 0 "" 2
 5944              		.thumb
 5945              		.syntax unified
 5946 016e BB61     		str	r3, [r7, #24]
 5947 0170 BB69     		ldr	r3, [r7, #24]
 5948 0172 002B     		cmp	r3, #0
 5949 0174 E6D1     		bne	.L497
 5950              	.L501:
 5951 0176 0023     		movs	r3, #0
 5952 0178 1846     		mov	r0, r3
 5953 017a 5C37     		adds	r7, r7, #92
 5954 017c BD46     		mov	sp, r7
 5955              		@ sp needed
 5956 017e 5DF8047B 		ldr	r7, [sp], #4
 5957 0182 7047     		bx	lr
 5958              	.L506:
 5959              		.align	2
 5960              	.L505:
 5961 0184 00000000 		.word	UART_RxISR_16BIT
 5962 0188 00000000 		.word	UART_RxISR_8BIT
 5964              		.section	.text.UART_Start_Receive_DMA,"ax",%progbits
 5965              		.align	1
 5966              		.global	UART_Start_Receive_DMA
 5967              		.syntax unified
ARM GAS  C:\msys64\tmp\ccXyuxUj.s 			page 104


 5968              		.thumb
 5969              		.thumb_func
 5971              	UART_Start_Receive_DMA:
 5972              		@ args = 0, pretend = 0, frame = 88
 5973              		@ frame_needed = 1, uses_anonymous_args = 0
 5974 0000 80B5     		push	{r7, lr}
 5975 0002 96B0     		sub	sp, sp, #88
 5976 0004 00AF     		add	r7, sp, #0
 5977 0006 F860     		str	r0, [r7, #12]
 5978 0008 B960     		str	r1, [r7, #8]
 5979 000a 1346     		mov	r3, r2
 5980 000c FB80     		strh	r3, [r7, #6]	@ movhi
 5981 000e FB68     		ldr	r3, [r7, #12]
 5982 0010 BA68     		ldr	r2, [r7, #8]
 5983 0012 5A65     		str	r2, [r3, #84]
 5984 0014 FB68     		ldr	r3, [r7, #12]
 5985 0016 FA88     		ldrh	r2, [r7, #6]	@ movhi
 5986 0018 A3F85820 		strh	r2, [r3, #88]	@ movhi
 5987 001c FB68     		ldr	r3, [r7, #12]
 5988 001e 0022     		movs	r2, #0
 5989 0020 C3F88420 		str	r2, [r3, #132]
 5990 0024 FB68     		ldr	r3, [r7, #12]
 5991 0026 2222     		movs	r2, #34
 5992 0028 C3F88020 		str	r2, [r3, #128]
 5993 002c FB68     		ldr	r3, [r7, #12]
 5994 002e 5B6F     		ldr	r3, [r3, #116]
 5995 0030 002B     		cmp	r3, #0
 5996 0032 28D0     		beq	.L508
 5997 0034 FB68     		ldr	r3, [r7, #12]
 5998 0036 5B6F     		ldr	r3, [r3, #116]
 5999 0038 3E4A     		ldr	r2, .L520
 6000 003a DA63     		str	r2, [r3, #60]
 6001 003c FB68     		ldr	r3, [r7, #12]
 6002 003e 5B6F     		ldr	r3, [r3, #116]
 6003 0040 3D4A     		ldr	r2, .L520+4
 6004 0042 1A64     		str	r2, [r3, #64]
 6005 0044 FB68     		ldr	r3, [r7, #12]
 6006 0046 5B6F     		ldr	r3, [r3, #116]
 6007 0048 3C4A     		ldr	r2, .L520+8
 6008 004a DA64     		str	r2, [r3, #76]
 6009 004c FB68     		ldr	r3, [r7, #12]
 6010 004e 5B6F     		ldr	r3, [r3, #116]
 6011 0050 0022     		movs	r2, #0
 6012 0052 1A65     		str	r2, [r3, #80]
 6013 0054 FB68     		ldr	r3, [r7, #12]
 6014 0056 586F     		ldr	r0, [r3, #116]
 6015 0058 FB68     		ldr	r3, [r7, #12]
 6016 005a 1B68     		ldr	r3, [r3]
 6017 005c 2433     		adds	r3, r3, #36
 6018 005e 1946     		mov	r1, r3
 6019 0060 FB68     		ldr	r3, [r7, #12]
 6020 0062 5B6D     		ldr	r3, [r3, #84]
 6021 0064 1A46     		mov	r2, r3
 6022 0066 FB88     		ldrh	r3, [r7, #6]
 6023 0068 FFF7FEFF 		bl	HAL_DMA_Start_IT
 6024 006c 0346     		mov	r3, r0
 6025 006e 002B     		cmp	r3, #0
ARM GAS  C:\msys64\tmp\ccXyuxUj.s 			page 105


 6026 0070 09D0     		beq	.L508
 6027 0072 FB68     		ldr	r3, [r7, #12]
 6028 0074 1022     		movs	r2, #16
 6029 0076 C3F88420 		str	r2, [r3, #132]
 6030 007a FB68     		ldr	r3, [r7, #12]
 6031 007c 2022     		movs	r2, #32
 6032 007e C3F88020 		str	r2, [r3, #128]
 6033 0082 0123     		movs	r3, #1
 6034 0084 51E0     		b	.L509
 6035              	.L508:
 6036 0086 FB68     		ldr	r3, [r7, #12]
 6037 0088 1B69     		ldr	r3, [r3, #16]
 6038 008a 002B     		cmp	r3, #0
 6039 008c 18D0     		beq	.L516
 6040              	.L513:
 6041 008e FB68     		ldr	r3, [r7, #12]
 6042 0090 1B68     		ldr	r3, [r3]
 6043 0092 FB63     		str	r3, [r7, #60]
 6044 0094 FB6B     		ldr	r3, [r7, #60]
 6045              		.syntax unified
 6046              	@ 1072 "cmsis/core/cmsis_gcc.h" 1
 6047 0096 53E8003F 		ldrex r3, [r3]
 6048              	@ 0 "" 2
 6049              		.thumb
 6050              		.syntax unified
 6051 009a BB63     		str	r3, [r7, #56]
 6052 009c BB6B     		ldr	r3, [r7, #56]
 6053 009e 43F48073 		orr	r3, r3, #256
 6054 00a2 7B65     		str	r3, [r7, #84]
 6055 00a4 FB68     		ldr	r3, [r7, #12]
 6056 00a6 1B68     		ldr	r3, [r3]
 6057 00a8 1A46     		mov	r2, r3
 6058 00aa 7B6D     		ldr	r3, [r7, #84]
 6059 00ac BB64     		str	r3, [r7, #72]
 6060 00ae 7A64     		str	r2, [r7, #68]
 6061 00b0 796C     		ldr	r1, [r7, #68]
 6062 00b2 BA6C     		ldr	r2, [r7, #72]
 6063              		.syntax unified
 6064              	@ 1123 "cmsis/core/cmsis_gcc.h" 1
 6065 00b4 41E80023 		strex r3, r2, [r1]
 6066              	@ 0 "" 2
 6067              		.thumb
 6068              		.syntax unified
 6069 00b8 3B64     		str	r3, [r7, #64]
 6070 00ba 3B6C     		ldr	r3, [r7, #64]
 6071 00bc 002B     		cmp	r3, #0
 6072 00be E6D1     		bne	.L513
 6073              	.L516:
 6074 00c0 FB68     		ldr	r3, [r7, #12]
 6075 00c2 1B68     		ldr	r3, [r3]
 6076 00c4 0833     		adds	r3, r3, #8
 6077 00c6 BB62     		str	r3, [r7, #40]
 6078 00c8 BB6A     		ldr	r3, [r7, #40]
 6079              		.syntax unified
 6080              	@ 1072 "cmsis/core/cmsis_gcc.h" 1
 6081 00ca 53E8003F 		ldrex r3, [r3]
 6082              	@ 0 "" 2
ARM GAS  C:\msys64\tmp\ccXyuxUj.s 			page 106


 6083              		.thumb
 6084              		.syntax unified
 6085 00ce 7B62     		str	r3, [r7, #36]
 6086 00d0 7B6A     		ldr	r3, [r7, #36]
 6087 00d2 43F00103 		orr	r3, r3, #1
 6088 00d6 3B65     		str	r3, [r7, #80]
 6089 00d8 FB68     		ldr	r3, [r7, #12]
 6090 00da 1B68     		ldr	r3, [r3]
 6091 00dc 0833     		adds	r3, r3, #8
 6092 00de 3A6D     		ldr	r2, [r7, #80]
 6093 00e0 7A63     		str	r2, [r7, #52]
 6094 00e2 3B63     		str	r3, [r7, #48]
 6095 00e4 396B     		ldr	r1, [r7, #48]
 6096 00e6 7A6B     		ldr	r2, [r7, #52]
 6097              		.syntax unified
 6098              	@ 1123 "cmsis/core/cmsis_gcc.h" 1
 6099 00e8 41E80023 		strex r3, r2, [r1]
 6100              	@ 0 "" 2
 6101              		.thumb
 6102              		.syntax unified
 6103 00ec FB62     		str	r3, [r7, #44]
 6104 00ee FB6A     		ldr	r3, [r7, #44]
 6105 00f0 002B     		cmp	r3, #0
 6106 00f2 E5D1     		bne	.L516
 6107              	.L519:
 6108 00f4 FB68     		ldr	r3, [r7, #12]
 6109 00f6 1B68     		ldr	r3, [r3]
 6110 00f8 0833     		adds	r3, r3, #8
 6111 00fa 7B61     		str	r3, [r7, #20]
 6112 00fc 7B69     		ldr	r3, [r7, #20]
 6113              		.syntax unified
 6114              	@ 1072 "cmsis/core/cmsis_gcc.h" 1
 6115 00fe 53E8003F 		ldrex r3, [r3]
 6116              	@ 0 "" 2
 6117              		.thumb
 6118              		.syntax unified
 6119 0102 3B61     		str	r3, [r7, #16]
 6120 0104 3B69     		ldr	r3, [r7, #16]
 6121 0106 43F04003 		orr	r3, r3, #64
 6122 010a FB64     		str	r3, [r7, #76]
 6123 010c FB68     		ldr	r3, [r7, #12]
 6124 010e 1B68     		ldr	r3, [r3]
 6125 0110 0833     		adds	r3, r3, #8
 6126 0112 FA6C     		ldr	r2, [r7, #76]
 6127 0114 3A62     		str	r2, [r7, #32]
 6128 0116 FB61     		str	r3, [r7, #28]
 6129 0118 F969     		ldr	r1, [r7, #28]
 6130 011a 3A6A     		ldr	r2, [r7, #32]
 6131              		.syntax unified
 6132              	@ 1123 "cmsis/core/cmsis_gcc.h" 1
 6133 011c 41E80023 		strex r3, r2, [r1]
 6134              	@ 0 "" 2
 6135              		.thumb
 6136              		.syntax unified
 6137 0120 BB61     		str	r3, [r7, #24]
 6138 0122 BB69     		ldr	r3, [r7, #24]
 6139 0124 002B     		cmp	r3, #0
ARM GAS  C:\msys64\tmp\ccXyuxUj.s 			page 107


 6140 0126 E5D1     		bne	.L519
 6141 0128 0023     		movs	r3, #0
 6142              	.L509:
 6143 012a 1846     		mov	r0, r3
 6144 012c 5837     		adds	r7, r7, #88
 6145 012e BD46     		mov	sp, r7
 6146              		@ sp needed
 6147 0130 80BD     		pop	{r7, pc}
 6148              	.L521:
 6149 0132 00BF     		.align	2
 6150              	.L520:
 6151 0134 00000000 		.word	UART_DMAReceiveCplt
 6152 0138 00000000 		.word	UART_DMARxHalfCplt
 6153 013c 00000000 		.word	UART_DMAError
 6155              		.section	.text.UART_EndTxTransfer,"ax",%progbits
 6156              		.align	1
 6157              		.syntax unified
 6158              		.thumb
 6159              		.thumb_func
 6161              	UART_EndTxTransfer:
 6162              		@ args = 0, pretend = 0, frame = 32
 6163              		@ frame_needed = 1, uses_anonymous_args = 0
 6164              		@ link register save eliminated.
 6165 0000 80B4     		push	{r7}
 6166 0002 89B0     		sub	sp, sp, #36
 6167 0004 00AF     		add	r7, sp, #0
 6168 0006 7860     		str	r0, [r7, #4]
 6169              	.L525:
 6170 0008 7B68     		ldr	r3, [r7, #4]
 6171 000a 1B68     		ldr	r3, [r3]
 6172 000c FB60     		str	r3, [r7, #12]
 6173 000e FB68     		ldr	r3, [r7, #12]
 6174              		.syntax unified
 6175              	@ 1072 "cmsis/core/cmsis_gcc.h" 1
 6176 0010 53E8003F 		ldrex r3, [r3]
 6177              	@ 0 "" 2
 6178              		.thumb
 6179              		.syntax unified
 6180 0014 BB60     		str	r3, [r7, #8]
 6181 0016 BB68     		ldr	r3, [r7, #8]
 6182 0018 23F0C003 		bic	r3, r3, #192
 6183 001c FB61     		str	r3, [r7, #28]
 6184 001e 7B68     		ldr	r3, [r7, #4]
 6185 0020 1B68     		ldr	r3, [r3]
 6186 0022 1A46     		mov	r2, r3
 6187 0024 FB69     		ldr	r3, [r7, #28]
 6188 0026 BB61     		str	r3, [r7, #24]
 6189 0028 7A61     		str	r2, [r7, #20]
 6190 002a 7969     		ldr	r1, [r7, #20]
 6191 002c BA69     		ldr	r2, [r7, #24]
 6192              		.syntax unified
 6193              	@ 1123 "cmsis/core/cmsis_gcc.h" 1
 6194 002e 41E80023 		strex r3, r2, [r1]
 6195              	@ 0 "" 2
 6196              		.thumb
 6197              		.syntax unified
 6198 0032 3B61     		str	r3, [r7, #16]
ARM GAS  C:\msys64\tmp\ccXyuxUj.s 			page 108


 6199 0034 3B69     		ldr	r3, [r7, #16]
 6200 0036 002B     		cmp	r3, #0
 6201 0038 E6D1     		bne	.L525
 6202 003a 7B68     		ldr	r3, [r7, #4]
 6203 003c 2022     		movs	r2, #32
 6204 003e DA67     		str	r2, [r3, #124]
 6205 0040 00BF     		nop
 6206 0042 2437     		adds	r7, r7, #36
 6207 0044 BD46     		mov	sp, r7
 6208              		@ sp needed
 6209 0046 5DF8047B 		ldr	r7, [sp], #4
 6210 004a 7047     		bx	lr
 6212              		.section	.text.UART_EndRxTransfer,"ax",%progbits
 6213              		.align	1
 6214              		.syntax unified
 6215              		.thumb
 6216              		.thumb_func
 6218              	UART_EndRxTransfer:
 6219              		@ args = 0, pretend = 0, frame = 80
 6220              		@ frame_needed = 1, uses_anonymous_args = 0
 6221              		@ link register save eliminated.
 6222 0000 80B4     		push	{r7}
 6223 0002 95B0     		sub	sp, sp, #84
 6224 0004 00AF     		add	r7, sp, #0
 6225 0006 7860     		str	r0, [r7, #4]
 6226              	.L529:
 6227 0008 7B68     		ldr	r3, [r7, #4]
 6228 000a 1B68     		ldr	r3, [r3]
 6229 000c 7B63     		str	r3, [r7, #52]
 6230 000e 7B6B     		ldr	r3, [r7, #52]
 6231              		.syntax unified
 6232              	@ 1072 "cmsis/core/cmsis_gcc.h" 1
 6233 0010 53E8003F 		ldrex r3, [r3]
 6234              	@ 0 "" 2
 6235              		.thumb
 6236              		.syntax unified
 6237 0014 3B63     		str	r3, [r7, #48]
 6238 0016 3B6B     		ldr	r3, [r7, #48]
 6239 0018 23F49073 		bic	r3, r3, #288
 6240 001c FB64     		str	r3, [r7, #76]
 6241 001e 7B68     		ldr	r3, [r7, #4]
 6242 0020 1B68     		ldr	r3, [r3]
 6243 0022 1A46     		mov	r2, r3
 6244 0024 FB6C     		ldr	r3, [r7, #76]
 6245 0026 3B64     		str	r3, [r7, #64]
 6246 0028 FA63     		str	r2, [r7, #60]
 6247 002a F96B     		ldr	r1, [r7, #60]
 6248 002c 3A6C     		ldr	r2, [r7, #64]
 6249              		.syntax unified
 6250              	@ 1123 "cmsis/core/cmsis_gcc.h" 1
 6251 002e 41E80023 		strex r3, r2, [r1]
 6252              	@ 0 "" 2
 6253              		.thumb
 6254              		.syntax unified
 6255 0032 BB63     		str	r3, [r7, #56]
 6256 0034 BB6B     		ldr	r3, [r7, #56]
 6257 0036 002B     		cmp	r3, #0
ARM GAS  C:\msys64\tmp\ccXyuxUj.s 			page 109


 6258 0038 E6D1     		bne	.L529
 6259              	.L532:
 6260 003a 7B68     		ldr	r3, [r7, #4]
 6261 003c 1B68     		ldr	r3, [r3]
 6262 003e 0833     		adds	r3, r3, #8
 6263 0040 3B62     		str	r3, [r7, #32]
 6264 0042 3B6A     		ldr	r3, [r7, #32]
 6265              		.syntax unified
 6266              	@ 1072 "cmsis/core/cmsis_gcc.h" 1
 6267 0044 53E8003F 		ldrex r3, [r3]
 6268              	@ 0 "" 2
 6269              		.thumb
 6270              		.syntax unified
 6271 0048 FB61     		str	r3, [r7, #28]
 6272 004a FB69     		ldr	r3, [r7, #28]
 6273 004c 23F00103 		bic	r3, r3, #1
 6274 0050 BB64     		str	r3, [r7, #72]
 6275 0052 7B68     		ldr	r3, [r7, #4]
 6276 0054 1B68     		ldr	r3, [r3]
 6277 0056 0833     		adds	r3, r3, #8
 6278 0058 BA6C     		ldr	r2, [r7, #72]
 6279 005a FA62     		str	r2, [r7, #44]
 6280 005c BB62     		str	r3, [r7, #40]
 6281 005e B96A     		ldr	r1, [r7, #40]
 6282 0060 FA6A     		ldr	r2, [r7, #44]
 6283              		.syntax unified
 6284              	@ 1123 "cmsis/core/cmsis_gcc.h" 1
 6285 0062 41E80023 		strex r3, r2, [r1]
 6286              	@ 0 "" 2
 6287              		.thumb
 6288              		.syntax unified
 6289 0066 7B62     		str	r3, [r7, #36]
 6290 0068 7B6A     		ldr	r3, [r7, #36]
 6291 006a 002B     		cmp	r3, #0
 6292 006c E5D1     		bne	.L532
 6293 006e 7B68     		ldr	r3, [r7, #4]
 6294 0070 1B6E     		ldr	r3, [r3, #96]
 6295 0072 012B     		cmp	r3, #1
 6296 0074 18D1     		bne	.L533
 6297              	.L536:
 6298 0076 7B68     		ldr	r3, [r7, #4]
 6299 0078 1B68     		ldr	r3, [r3]
 6300 007a FB60     		str	r3, [r7, #12]
 6301 007c FB68     		ldr	r3, [r7, #12]
 6302              		.syntax unified
 6303              	@ 1072 "cmsis/core/cmsis_gcc.h" 1
 6304 007e 53E8003F 		ldrex r3, [r3]
 6305              	@ 0 "" 2
 6306              		.thumb
 6307              		.syntax unified
 6308 0082 BB60     		str	r3, [r7, #8]
 6309 0084 BB68     		ldr	r3, [r7, #8]
 6310 0086 23F01003 		bic	r3, r3, #16
 6311 008a 7B64     		str	r3, [r7, #68]
 6312 008c 7B68     		ldr	r3, [r7, #4]
 6313 008e 1B68     		ldr	r3, [r3]
 6314 0090 1A46     		mov	r2, r3
ARM GAS  C:\msys64\tmp\ccXyuxUj.s 			page 110


 6315 0092 7B6C     		ldr	r3, [r7, #68]
 6316 0094 BB61     		str	r3, [r7, #24]
 6317 0096 7A61     		str	r2, [r7, #20]
 6318 0098 7969     		ldr	r1, [r7, #20]
 6319 009a BA69     		ldr	r2, [r7, #24]
 6320              		.syntax unified
 6321              	@ 1123 "cmsis/core/cmsis_gcc.h" 1
 6322 009c 41E80023 		strex r3, r2, [r1]
 6323              	@ 0 "" 2
 6324              		.thumb
 6325              		.syntax unified
 6326 00a0 3B61     		str	r3, [r7, #16]
 6327 00a2 3B69     		ldr	r3, [r7, #16]
 6328 00a4 002B     		cmp	r3, #0
 6329 00a6 E6D1     		bne	.L536
 6330              	.L533:
 6331 00a8 7B68     		ldr	r3, [r7, #4]
 6332 00aa 2022     		movs	r2, #32
 6333 00ac C3F88020 		str	r2, [r3, #128]
 6334 00b0 7B68     		ldr	r3, [r7, #4]
 6335 00b2 0022     		movs	r2, #0
 6336 00b4 1A66     		str	r2, [r3, #96]
 6337 00b6 7B68     		ldr	r3, [r7, #4]
 6338 00b8 0022     		movs	r2, #0
 6339 00ba 9A66     		str	r2, [r3, #104]
 6340 00bc 00BF     		nop
 6341 00be 5437     		adds	r7, r7, #84
 6342 00c0 BD46     		mov	sp, r7
 6343              		@ sp needed
 6344 00c2 5DF8047B 		ldr	r7, [sp], #4
 6345 00c6 7047     		bx	lr
 6347              		.section	.text.UART_DMATransmitCplt,"ax",%progbits
 6348              		.align	1
 6349              		.syntax unified
 6350              		.thumb
 6351              		.thumb_func
 6353              	UART_DMATransmitCplt:
 6354              		@ args = 0, pretend = 0, frame = 64
 6355              		@ frame_needed = 1, uses_anonymous_args = 0
 6356 0000 80B5     		push	{r7, lr}
 6357 0002 90B0     		sub	sp, sp, #64
 6358 0004 00AF     		add	r7, sp, #0
 6359 0006 7860     		str	r0, [r7, #4]
 6360 0008 7B68     		ldr	r3, [r7, #4]
 6361 000a 9B6B     		ldr	r3, [r3, #56]
 6362 000c FB63     		str	r3, [r7, #60]
 6363 000e 7B68     		ldr	r3, [r7, #4]
 6364 0010 DB69     		ldr	r3, [r3, #28]
 6365 0012 B3F5807F 		cmp	r3, #256
 6366 0016 37D0     		beq	.L538
 6367 0018 FB6B     		ldr	r3, [r7, #60]
 6368 001a 0022     		movs	r2, #0
 6369 001c A3F85220 		strh	r2, [r3, #82]	@ movhi
 6370              	.L541:
 6371 0020 FB6B     		ldr	r3, [r7, #60]
 6372 0022 1B68     		ldr	r3, [r3]
 6373 0024 0833     		adds	r3, r3, #8
ARM GAS  C:\msys64\tmp\ccXyuxUj.s 			page 111


 6374 0026 7B62     		str	r3, [r7, #36]
 6375 0028 7B6A     		ldr	r3, [r7, #36]
 6376              		.syntax unified
 6377              	@ 1072 "cmsis/core/cmsis_gcc.h" 1
 6378 002a 53E8003F 		ldrex r3, [r3]
 6379              	@ 0 "" 2
 6380              		.thumb
 6381              		.syntax unified
 6382 002e 3B62     		str	r3, [r7, #32]
 6383 0030 3B6A     		ldr	r3, [r7, #32]
 6384 0032 23F08003 		bic	r3, r3, #128
 6385 0036 BB63     		str	r3, [r7, #56]
 6386 0038 FB6B     		ldr	r3, [r7, #60]
 6387 003a 1B68     		ldr	r3, [r3]
 6388 003c 0833     		adds	r3, r3, #8
 6389 003e BA6B     		ldr	r2, [r7, #56]
 6390 0040 3A63     		str	r2, [r7, #48]
 6391 0042 FB62     		str	r3, [r7, #44]
 6392 0044 F96A     		ldr	r1, [r7, #44]
 6393 0046 3A6B     		ldr	r2, [r7, #48]
 6394              		.syntax unified
 6395              	@ 1123 "cmsis/core/cmsis_gcc.h" 1
 6396 0048 41E80023 		strex r3, r2, [r1]
 6397              	@ 0 "" 2
 6398              		.thumb
 6399              		.syntax unified
 6400 004c BB62     		str	r3, [r7, #40]
 6401 004e BB6A     		ldr	r3, [r7, #40]
 6402 0050 002B     		cmp	r3, #0
 6403 0052 E5D1     		bne	.L541
 6404              	.L544:
 6405 0054 FB6B     		ldr	r3, [r7, #60]
 6406 0056 1B68     		ldr	r3, [r3]
 6407 0058 3B61     		str	r3, [r7, #16]
 6408 005a 3B69     		ldr	r3, [r7, #16]
 6409              		.syntax unified
 6410              	@ 1072 "cmsis/core/cmsis_gcc.h" 1
 6411 005c 53E8003F 		ldrex r3, [r3]
 6412              	@ 0 "" 2
 6413              		.thumb
 6414              		.syntax unified
 6415 0060 FB60     		str	r3, [r7, #12]
 6416 0062 FB68     		ldr	r3, [r7, #12]
 6417 0064 43F04003 		orr	r3, r3, #64
 6418 0068 7B63     		str	r3, [r7, #52]
 6419 006a FB6B     		ldr	r3, [r7, #60]
 6420 006c 1B68     		ldr	r3, [r3]
 6421 006e 1A46     		mov	r2, r3
 6422 0070 7B6B     		ldr	r3, [r7, #52]
 6423 0072 FB61     		str	r3, [r7, #28]
 6424 0074 BA61     		str	r2, [r7, #24]
 6425 0076 B969     		ldr	r1, [r7, #24]
 6426 0078 FA69     		ldr	r2, [r7, #28]
 6427              		.syntax unified
 6428              	@ 1123 "cmsis/core/cmsis_gcc.h" 1
 6429 007a 41E80023 		strex r3, r2, [r1]
 6430              	@ 0 "" 2
ARM GAS  C:\msys64\tmp\ccXyuxUj.s 			page 112


 6431              		.thumb
 6432              		.syntax unified
 6433 007e 7B61     		str	r3, [r7, #20]
 6434 0080 7B69     		ldr	r3, [r7, #20]
 6435 0082 002B     		cmp	r3, #0
 6436 0084 E6D1     		bne	.L544
 6437 0086 02E0     		b	.L546
 6438              	.L538:
 6439 0088 F86B     		ldr	r0, [r7, #60]
 6440 008a FFF7FEFF 		bl	HAL_UART_TxCpltCallback
 6441              	.L546:
 6442 008e 00BF     		nop
 6443 0090 4037     		adds	r7, r7, #64
 6444 0092 BD46     		mov	sp, r7
 6445              		@ sp needed
 6446 0094 80BD     		pop	{r7, pc}
 6448              		.section	.text.UART_DMATxHalfCplt,"ax",%progbits
 6449              		.align	1
 6450              		.syntax unified
 6451              		.thumb
 6452              		.thumb_func
 6454              	UART_DMATxHalfCplt:
 6455              		@ args = 0, pretend = 0, frame = 16
 6456              		@ frame_needed = 1, uses_anonymous_args = 0
 6457 0000 80B5     		push	{r7, lr}
 6458 0002 84B0     		sub	sp, sp, #16
 6459 0004 00AF     		add	r7, sp, #0
 6460 0006 7860     		str	r0, [r7, #4]
 6461 0008 7B68     		ldr	r3, [r7, #4]
 6462 000a 9B6B     		ldr	r3, [r3, #56]
 6463 000c FB60     		str	r3, [r7, #12]
 6464 000e F868     		ldr	r0, [r7, #12]
 6465 0010 FFF7FEFF 		bl	HAL_UART_TxHalfCpltCallback
 6466 0014 00BF     		nop
 6467 0016 1037     		adds	r7, r7, #16
 6468 0018 BD46     		mov	sp, r7
 6469              		@ sp needed
 6470 001a 80BD     		pop	{r7, pc}
 6472              		.section	.text.UART_DMAReceiveCplt,"ax",%progbits
 6473              		.align	1
 6474              		.syntax unified
 6475              		.thumb
 6476              		.thumb_func
 6478              	UART_DMAReceiveCplt:
 6479              		@ args = 0, pretend = 0, frame = 112
 6480              		@ frame_needed = 1, uses_anonymous_args = 0
 6481 0000 80B5     		push	{r7, lr}
 6482 0002 9CB0     		sub	sp, sp, #112
 6483 0004 00AF     		add	r7, sp, #0
 6484 0006 7860     		str	r0, [r7, #4]
 6485 0008 7B68     		ldr	r3, [r7, #4]
 6486 000a 9B6B     		ldr	r3, [r3, #56]
 6487 000c FB66     		str	r3, [r7, #108]
 6488 000e 7B68     		ldr	r3, [r7, #4]
 6489 0010 DB69     		ldr	r3, [r3, #28]
 6490 0012 B3F5807F 		cmp	r3, #256
 6491 0016 71D0     		beq	.L549
ARM GAS  C:\msys64\tmp\ccXyuxUj.s 			page 113


 6492 0018 FB6E     		ldr	r3, [r7, #108]
 6493 001a 0022     		movs	r2, #0
 6494 001c A3F85A20 		strh	r2, [r3, #90]	@ movhi
 6495              	.L552:
 6496 0020 FB6E     		ldr	r3, [r7, #108]
 6497 0022 1B68     		ldr	r3, [r3]
 6498 0024 BB64     		str	r3, [r7, #72]
 6499 0026 BB6C     		ldr	r3, [r7, #72]
 6500              		.syntax unified
 6501              	@ 1072 "cmsis/core/cmsis_gcc.h" 1
 6502 0028 53E8003F 		ldrex r3, [r3]
 6503              	@ 0 "" 2
 6504              		.thumb
 6505              		.syntax unified
 6506 002c 7B64     		str	r3, [r7, #68]
 6507 002e 7B6C     		ldr	r3, [r7, #68]
 6508 0030 23F48073 		bic	r3, r3, #256
 6509 0034 BB66     		str	r3, [r7, #104]
 6510 0036 FB6E     		ldr	r3, [r7, #108]
 6511 0038 1B68     		ldr	r3, [r3]
 6512 003a 1A46     		mov	r2, r3
 6513 003c BB6E     		ldr	r3, [r7, #104]
 6514 003e 7B65     		str	r3, [r7, #84]
 6515 0040 3A65     		str	r2, [r7, #80]
 6516 0042 396D     		ldr	r1, [r7, #80]
 6517 0044 7A6D     		ldr	r2, [r7, #84]
 6518              		.syntax unified
 6519              	@ 1123 "cmsis/core/cmsis_gcc.h" 1
 6520 0046 41E80023 		strex r3, r2, [r1]
 6521              	@ 0 "" 2
 6522              		.thumb
 6523              		.syntax unified
 6524 004a FB64     		str	r3, [r7, #76]
 6525 004c FB6C     		ldr	r3, [r7, #76]
 6526 004e 002B     		cmp	r3, #0
 6527 0050 E6D1     		bne	.L552
 6528              	.L555:
 6529 0052 FB6E     		ldr	r3, [r7, #108]
 6530 0054 1B68     		ldr	r3, [r3]
 6531 0056 0833     		adds	r3, r3, #8
 6532 0058 7B63     		str	r3, [r7, #52]
 6533 005a 7B6B     		ldr	r3, [r7, #52]
 6534              		.syntax unified
 6535              	@ 1072 "cmsis/core/cmsis_gcc.h" 1
 6536 005c 53E8003F 		ldrex r3, [r3]
 6537              	@ 0 "" 2
 6538              		.thumb
 6539              		.syntax unified
 6540 0060 3B63     		str	r3, [r7, #48]
 6541 0062 3B6B     		ldr	r3, [r7, #48]
 6542 0064 23F00103 		bic	r3, r3, #1
 6543 0068 7B66     		str	r3, [r7, #100]
 6544 006a FB6E     		ldr	r3, [r7, #108]
 6545 006c 1B68     		ldr	r3, [r3]
 6546 006e 0833     		adds	r3, r3, #8
 6547 0070 7A6E     		ldr	r2, [r7, #100]
 6548 0072 3A64     		str	r2, [r7, #64]
ARM GAS  C:\msys64\tmp\ccXyuxUj.s 			page 114


 6549 0074 FB63     		str	r3, [r7, #60]
 6550 0076 F96B     		ldr	r1, [r7, #60]
 6551 0078 3A6C     		ldr	r2, [r7, #64]
 6552              		.syntax unified
 6553              	@ 1123 "cmsis/core/cmsis_gcc.h" 1
 6554 007a 41E80023 		strex r3, r2, [r1]
 6555              	@ 0 "" 2
 6556              		.thumb
 6557              		.syntax unified
 6558 007e BB63     		str	r3, [r7, #56]
 6559 0080 BB6B     		ldr	r3, [r7, #56]
 6560 0082 002B     		cmp	r3, #0
 6561 0084 E5D1     		bne	.L555
 6562              	.L558:
 6563 0086 FB6E     		ldr	r3, [r7, #108]
 6564 0088 1B68     		ldr	r3, [r3]
 6565 008a 0833     		adds	r3, r3, #8
 6566 008c 3B62     		str	r3, [r7, #32]
 6567 008e 3B6A     		ldr	r3, [r7, #32]
 6568              		.syntax unified
 6569              	@ 1072 "cmsis/core/cmsis_gcc.h" 1
 6570 0090 53E8003F 		ldrex r3, [r3]
 6571              	@ 0 "" 2
 6572              		.thumb
 6573              		.syntax unified
 6574 0094 FB61     		str	r3, [r7, #28]
 6575 0096 FB69     		ldr	r3, [r7, #28]
 6576 0098 23F04003 		bic	r3, r3, #64
 6577 009c 3B66     		str	r3, [r7, #96]
 6578 009e FB6E     		ldr	r3, [r7, #108]
 6579 00a0 1B68     		ldr	r3, [r3]
 6580 00a2 0833     		adds	r3, r3, #8
 6581 00a4 3A6E     		ldr	r2, [r7, #96]
 6582 00a6 FA62     		str	r2, [r7, #44]
 6583 00a8 BB62     		str	r3, [r7, #40]
 6584 00aa B96A     		ldr	r1, [r7, #40]
 6585 00ac FA6A     		ldr	r2, [r7, #44]
 6586              		.syntax unified
 6587              	@ 1123 "cmsis/core/cmsis_gcc.h" 1
 6588 00ae 41E80023 		strex r3, r2, [r1]
 6589              	@ 0 "" 2
 6590              		.thumb
 6591              		.syntax unified
 6592 00b2 7B62     		str	r3, [r7, #36]
 6593 00b4 7B6A     		ldr	r3, [r7, #36]
 6594 00b6 002B     		cmp	r3, #0
 6595 00b8 E5D1     		bne	.L558
 6596 00ba FB6E     		ldr	r3, [r7, #108]
 6597 00bc 2022     		movs	r2, #32
 6598 00be C3F88020 		str	r2, [r3, #128]
 6599 00c2 FB6E     		ldr	r3, [r7, #108]
 6600 00c4 1B6E     		ldr	r3, [r3, #96]
 6601 00c6 012B     		cmp	r3, #1
 6602 00c8 18D1     		bne	.L549
 6603              	.L561:
 6604 00ca FB6E     		ldr	r3, [r7, #108]
 6605 00cc 1B68     		ldr	r3, [r3]
ARM GAS  C:\msys64\tmp\ccXyuxUj.s 			page 115


 6606 00ce FB60     		str	r3, [r7, #12]
 6607 00d0 FB68     		ldr	r3, [r7, #12]
 6608              		.syntax unified
 6609              	@ 1072 "cmsis/core/cmsis_gcc.h" 1
 6610 00d2 53E8003F 		ldrex r3, [r3]
 6611              	@ 0 "" 2
 6612              		.thumb
 6613              		.syntax unified
 6614 00d6 BB60     		str	r3, [r7, #8]
 6615 00d8 BB68     		ldr	r3, [r7, #8]
 6616 00da 23F01003 		bic	r3, r3, #16
 6617 00de FB65     		str	r3, [r7, #92]
 6618 00e0 FB6E     		ldr	r3, [r7, #108]
 6619 00e2 1B68     		ldr	r3, [r3]
 6620 00e4 1A46     		mov	r2, r3
 6621 00e6 FB6D     		ldr	r3, [r7, #92]
 6622 00e8 BB61     		str	r3, [r7, #24]
 6623 00ea 7A61     		str	r2, [r7, #20]
 6624 00ec 7969     		ldr	r1, [r7, #20]
 6625 00ee BA69     		ldr	r2, [r7, #24]
 6626              		.syntax unified
 6627              	@ 1123 "cmsis/core/cmsis_gcc.h" 1
 6628 00f0 41E80023 		strex r3, r2, [r1]
 6629              	@ 0 "" 2
 6630              		.thumb
 6631              		.syntax unified
 6632 00f4 3B61     		str	r3, [r7, #16]
 6633 00f6 3B69     		ldr	r3, [r7, #16]
 6634 00f8 002B     		cmp	r3, #0
 6635 00fa E6D1     		bne	.L561
 6636              	.L549:
 6637 00fc FB6E     		ldr	r3, [r7, #108]
 6638 00fe 0022     		movs	r2, #0
 6639 0100 5A66     		str	r2, [r3, #100]
 6640 0102 FB6E     		ldr	r3, [r7, #108]
 6641 0104 1B6E     		ldr	r3, [r3, #96]
 6642 0106 012B     		cmp	r3, #1
