ARM GAS  C:\msys64\tmp\ccdVMvSz.s 			page 1


   1              		.cpu cortex-m7
   2              		.arch armv7e-m
   3              		.fpu fpv5-sp-d16
   4              		.eabi_attribute 27, 1
   5              		.eabi_attribute 28, 1
   6              		.eabi_attribute 20, 1
   7              		.eabi_attribute 21, 1
   8              		.eabi_attribute 23, 3
   9              		.eabi_attribute 24, 1
  10              		.eabi_attribute 25, 1
  11              		.eabi_attribute 26, 1
  12              		.eabi_attribute 30, 6
  13              		.eabi_attribute 34, 1
  14              		.eabi_attribute 18, 4
  15              		.file	"ethernetif.c"
  16              		.text
  17              		.section	.text.SCB_InvalidateDCache_by_Addr,"ax",%progbits
  18              		.align	1
  19              		.syntax unified
  20              		.thumb
  21              		.thumb_func
  23              	SCB_InvalidateDCache_by_Addr:
  24              		@ args = 0, pretend = 0, frame = 24
  25              		@ frame_needed = 1, uses_anonymous_args = 0
  26              		@ link register save eliminated.
  27 0000 80B4     		push	{r7}
  28 0002 87B0     		sub	sp, sp, #28
  29 0004 00AF     		add	r7, sp, #0
  30 0006 7860     		str	r0, [r7, #4]
  31 0008 3960     		str	r1, [r7]
  32 000a 3B68     		ldr	r3, [r7]
  33 000c 7B61     		str	r3, [r7, #20]
  34 000e 7B68     		ldr	r3, [r7, #4]
  35 0010 3B61     		str	r3, [r7, #16]
  36 0012 2023     		movs	r3, #32
  37 0014 FB60     		str	r3, [r7, #12]
  38              		.syntax unified
  39              	@ 879 "cmsis/core/cmsis_gcc.h" 1
  40 0016 BFF34F8F 		dsb 0xF
  41              	@ 0 "" 2
  42              		.thumb
  43              		.syntax unified
  44 001a 00BF     		nop
  45 001c 0BE0     		b	.L2
  46              	.L3:
  47 001e 0D4A     		ldr	r2, .L4
  48 0020 3B69     		ldr	r3, [r7, #16]
  49 0022 C2F85C32 		str	r3, [r2, #604]
  50 0026 FB68     		ldr	r3, [r7, #12]
  51 0028 3A69     		ldr	r2, [r7, #16]
  52 002a 1344     		add	r3, r3, r2
  53 002c 3B61     		str	r3, [r7, #16]
  54 002e 7A69     		ldr	r2, [r7, #20]
  55 0030 FB68     		ldr	r3, [r7, #12]
  56 0032 D31A     		subs	r3, r2, r3
  57 0034 7B61     		str	r3, [r7, #20]
  58              	.L2:
ARM GAS  C:\msys64\tmp\ccdVMvSz.s 			page 2


  59 0036 7B69     		ldr	r3, [r7, #20]
  60 0038 002B     		cmp	r3, #0
  61 003a F0DC     		bgt	.L3
  62              		.syntax unified
  63              	@ 879 "cmsis/core/cmsis_gcc.h" 1
  64 003c BFF34F8F 		dsb 0xF
  65              	@ 0 "" 2
  66              		.thumb
  67              		.syntax unified
  68 0040 00BF     		nop
  69              		.syntax unified
  70              	@ 868 "cmsis/core/cmsis_gcc.h" 1
  71 0042 BFF36F8F 		isb 0xF
  72              	@ 0 "" 2
  73              		.thumb
  74              		.syntax unified
  75 0046 00BF     		nop
  76 0048 00BF     		nop
  77 004a 1C37     		adds	r7, r7, #28
  78 004c BD46     		mov	sp, r7
  79              		@ sp needed
  80 004e 5DF8047B 		ldr	r7, [sp], #4
  81 0052 7047     		bx	lr
  82              	.L5:
  83              		.align	2
  84              	.L4:
  85 0054 00ED00E0 		.word	-536810240
  87              		.global	memp_memory_RX_POOL_base
  88              		.section	.bss.memp_memory_RX_POOL_base,"aw",%nobits
  89              		.align	2
  92              	memp_memory_RX_POOL_base:
  93 0000 00000000 		.space	18819
  93      00000000 
  93      00000000 
  93      00000000 
  93      00000000 
  94              		.section	.bss.memp_tab_RX_POOL,"aw",%nobits
  95              		.align	2
  98              	memp_tab_RX_POOL:
  99 0000 00000000 		.space	4
 100              		.global	memp_RX_POOL
 101              		.section	.rodata.memp_RX_POOL,"a"
 102              		.align	2
 105              	memp_RX_POOL:
 106 0000 2006     		.short	1568
 107 0002 0C00     		.short	12
 108 0004 00000000 		.word	memp_memory_RX_POOL_base
 109 0008 00000000 		.word	memp_tab_RX_POOL
 110              		.section	.bss.RxAllocStatus,"aw",%nobits
 113              	RxAllocStatus:
 114 0000 00       		.space	1
 115              		.global	DMARxDscrTab
 116              		.section	.RxDecripSection,"aw"
 117              		.align	2
 120              	DMARxDscrTab:
 121 0000 00000000 		.space	160
 121      00000000 
ARM GAS  C:\msys64\tmp\ccdVMvSz.s 			page 3


 121      00000000 
 121      00000000 
 121      00000000 
 122              		.global	DMATxDscrTab
 123              		.section	.TxDecripSection,"aw"
 124              		.align	2
 127              	DMATxDscrTab:
 128 0000 00000000 		.space	160
 128      00000000 
 128      00000000 
 128      00000000 
 128      00000000 
 129              		.global	heth
 130              		.section	.bss.heth,"aw",%nobits
 131              		.align	2
 134              	heth:
 135 0000 00000000 		.space	176
 135      00000000 
 135      00000000 
 135      00000000 
 135      00000000 
 136              		.global	TxConfig
 137              		.section	.bss.TxConfig,"aw",%nobits
 138              		.align	2
 141              	TxConfig:
 142 0000 00000000 		.space	56
 142      00000000 
 142      00000000 
 142      00000000 
 142      00000000 
 143              		.global	LAN8742
 144              		.section	.bss.LAN8742,"aw",%nobits
 145              		.align	2
 148              	LAN8742:
 149 0000 00000000 		.space	32
 149      00000000 
 149      00000000 
 149      00000000 
 149      00000000 
 150              		.global	LAN8742_IOCtx
 151              		.section	.data.LAN8742_IOCtx,"aw"
 152              		.align	2
 155              	LAN8742_IOCtx:
 156 0000 00000000 		.word	ETH_PHY_IO_Init
 157 0004 00000000 		.word	ETH_PHY_IO_DeInit
 158 0008 00000000 		.word	ETH_PHY_IO_WriteReg
 159 000c 00000000 		.word	ETH_PHY_IO_ReadReg
 160 0010 00000000 		.word	ETH_PHY_IO_GetTick
 161              		.section	.text.low_level_init,"ax",%progbits
 162              		.align	1
 163              		.syntax unified
 164              		.thumb
 165              		.thumb_func
 167              	low_level_init:
 168              		@ args = 0, pretend = 0, frame = 16
 169              		@ frame_needed = 1, uses_anonymous_args = 0
 170 0000 80B5     		push	{r7, lr}
ARM GAS  C:\msys64\tmp\ccdVMvSz.s 			page 4


 171 0002 84B0     		sub	sp, sp, #16
 172 0004 00AF     		add	r7, sp, #0
 173 0006 7860     		str	r0, [r7, #4]
 174 0008 0023     		movs	r3, #0
 175 000a FB73     		strb	r3, [r7, #15]
 176 000c 444B     		ldr	r3, .L11
 177 000e 454A     		ldr	r2, .L11+4
 178 0010 1A60     		str	r2, [r3]
 179 0012 0023     		movs	r3, #0
 180 0014 3B72     		strb	r3, [r7, #8]
 181 0016 8023     		movs	r3, #128
 182 0018 7B72     		strb	r3, [r7, #9]
 183 001a E123     		movs	r3, #225
 184 001c BB72     		strb	r3, [r7, #10]
 185 001e 0023     		movs	r3, #0
 186 0020 FB72     		strb	r3, [r7, #11]
 187 0022 0023     		movs	r3, #0
 188 0024 3B73     		strb	r3, [r7, #12]
 189 0026 0023     		movs	r3, #0
 190 0028 7B73     		strb	r3, [r7, #13]
 191 002a 3D4A     		ldr	r2, .L11
 192 002c 07F10803 		add	r3, r7, #8
 193 0030 5360     		str	r3, [r2, #4]
 194 0032 3B4B     		ldr	r3, .L11
 195 0034 4FF40002 		mov	r2, #8388608
 196 0038 9A60     		str	r2, [r3, #8]
 197 003a 394B     		ldr	r3, .L11
 198 003c 3A4A     		ldr	r2, .L11+8
 199 003e DA60     		str	r2, [r3, #12]
 200 0040 374B     		ldr	r3, .L11
 201 0042 3A4A     		ldr	r2, .L11+12
 202 0044 1A61     		str	r2, [r3, #16]
 203 0046 364B     		ldr	r3, .L11
 204 0048 4FF4C062 		mov	r2, #1536
 205 004c 5A61     		str	r2, [r3, #20]
 206 004e 3448     		ldr	r0, .L11
 207 0050 FFF7FEFF 		bl	HAL_ETH_Init
 208 0054 0346     		mov	r3, r0
 209 0056 FB73     		strb	r3, [r7, #15]
 210 0058 3822     		movs	r2, #56
 211 005a 0021     		movs	r1, #0
 212 005c 3448     		ldr	r0, .L11+16
 213 005e FFF7FEFF 		bl	memset
 214 0062 334B     		ldr	r3, .L11+16
 215 0064 2122     		movs	r2, #33
 216 0066 1A60     		str	r2, [r3]
 217 0068 314B     		ldr	r3, .L11+16
 218 006a 4FF44002 		mov	r2, #12582912
 219 006e 5A61     		str	r2, [r3, #20]
 220 0070 2F4B     		ldr	r3, .L11+16
 221 0072 0022     		movs	r2, #0
 222 0074 1A61     		str	r2, [r3, #16]
 223 0076 2F48     		ldr	r0, .L11+20
 224 0078 FFF7FEFF 		bl	memp_init_pool
 225 007c 7B68     		ldr	r3, [r7, #4]
 226 007e 0622     		movs	r2, #6
 227 0080 83F82C20 		strb	r2, [r3, #44]
ARM GAS  C:\msys64\tmp\ccdVMvSz.s 			page 5


 228 0084 264B     		ldr	r3, .L11
 229 0086 5B68     		ldr	r3, [r3, #4]
 230 0088 1A78     		ldrb	r2, [r3]	@ zero_extendqisi2
 231 008a 7B68     		ldr	r3, [r7, #4]
 232 008c 83F82620 		strb	r2, [r3, #38]
 233 0090 234B     		ldr	r3, .L11
 234 0092 5B68     		ldr	r3, [r3, #4]
 235 0094 5A78     		ldrb	r2, [r3, #1]	@ zero_extendqisi2
 236 0096 7B68     		ldr	r3, [r7, #4]
 237 0098 83F82720 		strb	r2, [r3, #39]
 238 009c 204B     		ldr	r3, .L11
 239 009e 5B68     		ldr	r3, [r3, #4]
 240 00a0 9A78     		ldrb	r2, [r3, #2]	@ zero_extendqisi2
 241 00a2 7B68     		ldr	r3, [r7, #4]
 242 00a4 83F82820 		strb	r2, [r3, #40]
 243 00a8 1D4B     		ldr	r3, .L11
 244 00aa 5B68     		ldr	r3, [r3, #4]
 245 00ac DA78     		ldrb	r2, [r3, #3]	@ zero_extendqisi2
 246 00ae 7B68     		ldr	r3, [r7, #4]
 247 00b0 83F82920 		strb	r2, [r3, #41]
 248 00b4 1A4B     		ldr	r3, .L11
 249 00b6 5B68     		ldr	r3, [r3, #4]
 250 00b8 1A79     		ldrb	r2, [r3, #4]	@ zero_extendqisi2
 251 00ba 7B68     		ldr	r3, [r7, #4]
 252 00bc 83F82A20 		strb	r2, [r3, #42]
 253 00c0 174B     		ldr	r3, .L11
 254 00c2 5B68     		ldr	r3, [r3, #4]
 255 00c4 5A79     		ldrb	r2, [r3, #5]	@ zero_extendqisi2
 256 00c6 7B68     		ldr	r3, [r7, #4]
 257 00c8 83F82B20 		strb	r2, [r3, #43]
 258 00cc 7B68     		ldr	r3, [r7, #4]
 259 00ce 40F2DC52 		movw	r2, #1500
 260 00d2 9A84     		strh	r2, [r3, #36]	@ movhi
 261 00d4 7B68     		ldr	r3, [r7, #4]
 262 00d6 93F82D30 		ldrb	r3, [r3, #45]	@ zero_extendqisi2
 263 00da 43F00A03 		orr	r3, r3, #10
 264 00de DAB2     		uxtb	r2, r3
 265 00e0 7B68     		ldr	r3, [r7, #4]
 266 00e2 83F82D20 		strb	r2, [r3, #45]
 267 00e6 1449     		ldr	r1, .L11+24
 268 00e8 1448     		ldr	r0, .L11+28
 269 00ea FFF7FEFF 		bl	LAN8742_RegisterBusIO
 270 00ee 1348     		ldr	r0, .L11+28
 271 00f0 FFF7FEFF 		bl	LAN8742_Init
 272 00f4 0346     		mov	r3, r0
 273 00f6 002B     		cmp	r3, #0
 274 00f8 06D0     		beq	.L7
 275 00fa 7868     		ldr	r0, [r7, #4]
 276 00fc FFF7FEFF 		bl	netif_set_link_down
 277 0100 7868     		ldr	r0, [r7, #4]
 278 0102 FFF7FEFF 		bl	netif_set_down
 279 0106 08E0     		b	.L6
 280              	.L7:
 281 0108 FB7B     		ldrb	r3, [r7, #15]	@ zero_extendqisi2
 282 010a 002B     		cmp	r3, #0
 283 010c 03D1     		bne	.L9
 284 010e 7868     		ldr	r0, [r7, #4]
ARM GAS  C:\msys64\tmp\ccdVMvSz.s 			page 6


 285 0110 FFF7FEFF 		bl	ethernet_link_check_state
 286 0114 01E0     		b	.L6
 287              	.L9:
 288 0116 FFF7FEFF 		bl	Error_Handler
 289              	.L6:
 290 011a 1037     		adds	r7, r7, #16
 291 011c BD46     		mov	sp, r7
 292              		@ sp needed
 293 011e 80BD     		pop	{r7, pc}
 294              	.L12:
 295              		.align	2
 296              	.L11:
 297 0120 00000000 		.word	heth
 298 0124 00800240 		.word	1073905664
 299 0128 00000000 		.word	DMATxDscrTab
 300 012c 00000000 		.word	DMARxDscrTab
 301 0130 00000000 		.word	TxConfig
 302 0134 00000000 		.word	memp_RX_POOL
 303 0138 00000000 		.word	LAN8742_IOCtx
 304 013c 00000000 		.word	LAN8742
 306              		.section	.text.low_level_output,"ax",%progbits
 307              		.align	1
 308              		.syntax unified
 309              		.thumb
 310              		.thumb_func
 312              	low_level_output:
 313              		@ args = 0, pretend = 0, frame = 72
 314              		@ frame_needed = 1, uses_anonymous_args = 0
 315 0000 80B5     		push	{r7, lr}
 316 0002 92B0     		sub	sp, sp, #72
 317 0004 00AF     		add	r7, sp, #0
 318 0006 7860     		str	r0, [r7, #4]
 319 0008 3960     		str	r1, [r7]
 320 000a 0023     		movs	r3, #0
 321 000c 7B64     		str	r3, [r7, #68]
 322 000e 0023     		movs	r3, #0
 323 0010 3B64     		str	r3, [r7, #64]
 324 0012 0023     		movs	r3, #0
 325 0014 87F83F30 		strb	r3, [r7, #63]
 326 0018 07F10C03 		add	r3, r7, #12
 327 001c 3022     		movs	r2, #48
 328 001e 0021     		movs	r1, #0
 329 0020 1846     		mov	r0, r3
 330 0022 FFF7FEFF 		bl	memset
 331 0026 07F10C03 		add	r3, r7, #12
 332 002a 3022     		movs	r2, #48
 333 002c 0021     		movs	r1, #0
 334 002e 1846     		mov	r0, r3
 335 0030 FFF7FEFF 		bl	memset
 336 0034 3B68     		ldr	r3, [r7]
 337 0036 3B64     		str	r3, [r7, #64]
 338 0038 45E0     		b	.L14
 339              	.L19:
 340 003a 7B6C     		ldr	r3, [r7, #68]
 341 003c 032B     		cmp	r3, #3
 342 003e 02D9     		bls	.L15
 343 0040 6FF00B03 		mvn	r3, #11
ARM GAS  C:\msys64\tmp\ccdVMvSz.s 			page 7


 344 0044 55E0     		b	.L20
 345              	.L15:
 346 0046 3B6C     		ldr	r3, [r7, #64]
 347 0048 5968     		ldr	r1, [r3, #4]
 348 004a 7A6C     		ldr	r2, [r7, #68]
 349 004c 1346     		mov	r3, r2
 350 004e 5B00     		lsls	r3, r3, #1
 351 0050 1344     		add	r3, r3, r2
 352 0052 9B00     		lsls	r3, r3, #2
 353 0054 4833     		adds	r3, r3, #72
 354 0056 3B44     		add	r3, r3, r7
 355 0058 3C3B     		subs	r3, r3, #60
 356 005a 1960     		str	r1, [r3]
 357 005c 3B6C     		ldr	r3, [r7, #64]
 358 005e 5B89     		ldrh	r3, [r3, #10]
 359 0060 1946     		mov	r1, r3
 360 0062 7A6C     		ldr	r2, [r7, #68]
 361 0064 1346     		mov	r3, r2
 362 0066 5B00     		lsls	r3, r3, #1
 363 0068 1344     		add	r3, r3, r2
 364 006a 9B00     		lsls	r3, r3, #2
 365 006c 4833     		adds	r3, r3, #72
 366 006e 3B44     		add	r3, r3, r7
 367 0070 383B     		subs	r3, r3, #56
 368 0072 1960     		str	r1, [r3]
 369 0074 7B6C     		ldr	r3, [r7, #68]
 370 0076 002B     		cmp	r3, #0
 371 0078 11D0     		beq	.L17
 372 007a 7B6C     		ldr	r3, [r7, #68]
 373 007c 5A1E     		subs	r2, r3, #1
 374 007e 07F10C00 		add	r0, r7, #12
 375 0082 796C     		ldr	r1, [r7, #68]
 376 0084 0B46     		mov	r3, r1
 377 0086 5B00     		lsls	r3, r3, #1
 378 0088 0B44     		add	r3, r3, r1
 379 008a 9B00     		lsls	r3, r3, #2
 380 008c C118     		adds	r1, r0, r3
 381 008e 1346     		mov	r3, r2
 382 0090 5B00     		lsls	r3, r3, #1
 383 0092 1344     		add	r3, r3, r2
 384 0094 9B00     		lsls	r3, r3, #2
 385 0096 4833     		adds	r3, r3, #72
 386 0098 3B44     		add	r3, r3, r7
 387 009a 343B     		subs	r3, r3, #52
 388 009c 1960     		str	r1, [r3]
 389              	.L17:
 390 009e 3B6C     		ldr	r3, [r7, #64]
 391 00a0 1B68     		ldr	r3, [r3]
 392 00a2 002B     		cmp	r3, #0
 393 00a4 09D1     		bne	.L18
 394 00a6 7A6C     		ldr	r2, [r7, #68]
 395 00a8 1346     		mov	r3, r2
 396 00aa 5B00     		lsls	r3, r3, #1
 397 00ac 1344     		add	r3, r3, r2
 398 00ae 9B00     		lsls	r3, r3, #2
 399 00b0 4833     		adds	r3, r3, #72
 400 00b2 3B44     		add	r3, r3, r7
ARM GAS  C:\msys64\tmp\ccdVMvSz.s 			page 8


 401 00b4 343B     		subs	r3, r3, #52
 402 00b6 0022     		movs	r2, #0
 403 00b8 1A60     		str	r2, [r3]
 404              	.L18:
 405 00ba 7B6C     		ldr	r3, [r7, #68]
 406 00bc 0133     		adds	r3, r3, #1
 407 00be 7B64     		str	r3, [r7, #68]
 408 00c0 3B6C     		ldr	r3, [r7, #64]
 409 00c2 1B68     		ldr	r3, [r3]
 410 00c4 3B64     		str	r3, [r7, #64]
 411              	.L14:
 412 00c6 3B6C     		ldr	r3, [r7, #64]
 413 00c8 002B     		cmp	r3, #0
 414 00ca B6D1     		bne	.L19
 415 00cc 3B68     		ldr	r3, [r7]
 416 00ce 1B89     		ldrh	r3, [r3, #8]
 417 00d0 1A46     		mov	r2, r3
 418 00d2 0A4B     		ldr	r3, .L21
 419 00d4 5A60     		str	r2, [r3, #4]
 420 00d6 094A     		ldr	r2, .L21
 421 00d8 07F10C03 		add	r3, r7, #12
 422 00dc 9360     		str	r3, [r2, #8]
 423 00de 074A     		ldr	r2, .L21
 424 00e0 3B68     		ldr	r3, [r7]
 425 00e2 5363     		str	r3, [r2, #52]
 426 00e4 1422     		movs	r2, #20
 427 00e6 0549     		ldr	r1, .L21
 428 00e8 0548     		ldr	r0, .L21+4
 429 00ea FFF7FEFF 		bl	HAL_ETH_Transmit
 430 00ee 97F93F30 		ldrsb	r3, [r7, #63]
 431              	.L20:
 432 00f2 1846     		mov	r0, r3
 433 00f4 4837     		adds	r7, r7, #72
 434 00f6 BD46     		mov	sp, r7
 435              		@ sp needed
 436 00f8 80BD     		pop	{r7, pc}
 437              	.L22:
 438 00fa 00BF     		.align	2
 439              	.L21:
 440 00fc 00000000 		.word	TxConfig
 441 0100 00000000 		.word	heth
 443              		.section	.text.low_level_input,"ax",%progbits
 444              		.align	1
 445              		.syntax unified
 446              		.thumb
 447              		.thumb_func
 449              	low_level_input:
 450              		@ args = 0, pretend = 0, frame = 16
 451              		@ frame_needed = 1, uses_anonymous_args = 0
 452 0000 80B5     		push	{r7, lr}
 453 0002 84B0     		sub	sp, sp, #16
 454 0004 00AF     		add	r7, sp, #0
 455 0006 7860     		str	r0, [r7, #4]
 456 0008 0023     		movs	r3, #0
 457 000a FB60     		str	r3, [r7, #12]
 458 000c 074B     		ldr	r3, .L26
 459 000e 1B78     		ldrb	r3, [r3]	@ zero_extendqisi2
ARM GAS  C:\msys64\tmp\ccdVMvSz.s 			page 9


 460 0010 002B     		cmp	r3, #0
 461 0012 05D1     		bne	.L24
 462 0014 07F10C03 		add	r3, r7, #12
 463 0018 1946     		mov	r1, r3
 464 001a 0548     		ldr	r0, .L26+4
 465 001c FFF7FEFF 		bl	HAL_ETH_ReadData
 466              	.L24:
 467 0020 FB68     		ldr	r3, [r7, #12]
 468 0022 1846     		mov	r0, r3
 469 0024 1037     		adds	r7, r7, #16
 470 0026 BD46     		mov	sp, r7
 471              		@ sp needed
 472 0028 80BD     		pop	{r7, pc}
 473              	.L27:
 474 002a 00BF     		.align	2
 475              	.L26:
 476 002c 00000000 		.word	RxAllocStatus
 477 0030 00000000 		.word	heth
 479              		.section	.text.ethernetif_input,"ax",%progbits
 480              		.align	1
 481              		.global	ethernetif_input
 482              		.syntax unified
 483              		.thumb
 484              		.thumb_func
 486              	ethernetif_input:
 487              		@ args = 0, pretend = 0, frame = 16
 488              		@ frame_needed = 1, uses_anonymous_args = 0
 489 0000 80B5     		push	{r7, lr}
 490 0002 84B0     		sub	sp, sp, #16
 491 0004 00AF     		add	r7, sp, #0
 492 0006 7860     		str	r0, [r7, #4]
 493 0008 0023     		movs	r3, #0
 494 000a FB60     		str	r3, [r7, #12]
 495              	.L30:
 496 000c 7868     		ldr	r0, [r7, #4]
 497 000e FFF7FEFF 		bl	low_level_input
 498 0012 F860     		str	r0, [r7, #12]
 499 0014 FB68     		ldr	r3, [r7, #12]
 500 0016 002B     		cmp	r3, #0
 501 0018 0AD0     		beq	.L29
 502 001a 7B68     		ldr	r3, [r7, #4]
 503 001c 1B69     		ldr	r3, [r3, #16]
 504 001e 7968     		ldr	r1, [r7, #4]
 505 0020 F868     		ldr	r0, [r7, #12]
 506 0022 9847     		blx	r3
 507 0024 0346     		mov	r3, r0
 508 0026 002B     		cmp	r3, #0
 509 0028 02D0     		beq	.L29
 510 002a F868     		ldr	r0, [r7, #12]
 511 002c FFF7FEFF 		bl	pbuf_free
 512              	.L29:
 513 0030 FB68     		ldr	r3, [r7, #12]
 514 0032 002B     		cmp	r3, #0
 515 0034 EAD1     		bne	.L30
 516 0036 00BF     		nop
 517 0038 00BF     		nop
 518 003a 1037     		adds	r7, r7, #16
ARM GAS  C:\msys64\tmp\ccdVMvSz.s 			page 10


 519 003c BD46     		mov	sp, r7
 520              		@ sp needed
 521 003e 80BD     		pop	{r7, pc}
 523              		.section	.rodata
 524              		.align	2
 525              	.LC0:
 526 0000 4D696464 		.ascii	"Middlewares/stm32f746_lwip_withos_porting/LWIP/Targ"
 526      6C657761 
 526      7265732F 
 526      73746D33 
 526      32663734 
 527 0033 65742F65 		.ascii	"et/ethernetif.c\000"
 527      74686572 
 527      6E657469 
 527      662E6300 
 528 0043 00       		.align	2
 529              	.LC1:
 530 0044 6E657469 		.ascii	"netif != NULL\000"
 530      6620213D 
 530      204E554C 
 530      4C00
 531 0052 0000     		.align	2
 532              	.LC2:
 533 0054 41737365 		.ascii	"Assertion \"%s\" failed at line %d in %s\012\000"
 533      7274696F 
 533      6E202225 
 533      73222066 
 533      61696C65 
 534              		.section	.text.ethernetif_init,"ax",%progbits
 535              		.align	1
 536              		.global	ethernetif_init
 537              		.syntax unified
 538              		.thumb
 539              		.thumb_func
 541              	ethernetif_init:
 542              		@ args = 0, pretend = 0, frame = 8
 543              		@ frame_needed = 1, uses_anonymous_args = 0
 544 0000 80B5     		push	{r7, lr}
 545 0002 82B0     		sub	sp, sp, #8
 546 0004 00AF     		add	r7, sp, #0
 547 0006 7860     		str	r0, [r7, #4]
 548 0008 7B68     		ldr	r3, [r7, #4]
 549 000a 002B     		cmp	r3, #0
 550 000c 06D1     		bne	.L32
 551 000e 0E4B     		ldr	r3, .L34
 552 0010 4FF4C072 		mov	r2, #384
 553 0014 0D49     		ldr	r1, .L34+4
 554 0016 0E48     		ldr	r0, .L34+8
 555 0018 FFF7FEFF 		bl	printf
 556              	.L32:
 557 001c 7B68     		ldr	r3, [r7, #4]
 558 001e 7322     		movs	r2, #115
 559 0020 83F82E20 		strb	r2, [r3, #46]
 560 0024 7B68     		ldr	r3, [r7, #4]
 561 0026 7422     		movs	r2, #116
 562 0028 83F82F20 		strb	r2, [r3, #47]
 563 002c 7B68     		ldr	r3, [r7, #4]
ARM GAS  C:\msys64\tmp\ccdVMvSz.s 			page 11


 564 002e 094A     		ldr	r2, .L34+12
 565 0030 5A61     		str	r2, [r3, #20]
 566 0032 7B68     		ldr	r3, [r7, #4]
 567 0034 084A     		ldr	r2, .L34+16
 568 0036 9A61     		str	r2, [r3, #24]
 569 0038 7868     		ldr	r0, [r7, #4]
 570 003a FFF7FEFF 		bl	low_level_init
 571 003e 0023     		movs	r3, #0
 572 0040 1846     		mov	r0, r3
 573 0042 0837     		adds	r7, r7, #8
 574 0044 BD46     		mov	sp, r7
 575              		@ sp needed
 576 0046 80BD     		pop	{r7, pc}
 577              	.L35:
 578              		.align	2
 579              	.L34:
 580 0048 00000000 		.word	.LC0
 581 004c 44000000 		.word	.LC1
 582 0050 54000000 		.word	.LC2
 583 0054 00000000 		.word	etharp_output
 584 0058 00000000 		.word	low_level_output
 586              		.section	.text.pbuf_free_custom,"ax",%progbits
 587              		.align	1
 588              		.global	pbuf_free_custom
 589              		.syntax unified
 590              		.thumb
 591              		.thumb_func
 593              	pbuf_free_custom:
 594              		@ args = 0, pretend = 0, frame = 16
 595              		@ frame_needed = 1, uses_anonymous_args = 0
 596 0000 80B5     		push	{r7, lr}
 597 0002 84B0     		sub	sp, sp, #16
 598 0004 00AF     		add	r7, sp, #0
 599 0006 7860     		str	r0, [r7, #4]
 600 0008 7B68     		ldr	r3, [r7, #4]
 601 000a FB60     		str	r3, [r7, #12]
 602 000c F968     		ldr	r1, [r7, #12]
 603 000e 0748     		ldr	r0, .L39
 604 0010 FFF7FEFF 		bl	memp_free_pool
 605 0014 064B     		ldr	r3, .L39+4
 606 0016 1B78     		ldrb	r3, [r3]	@ zero_extendqisi2
 607 0018 012B     		cmp	r3, #1
 608 001a 02D1     		bne	.L38
 609 001c 044B     		ldr	r3, .L39+4
 610 001e 0022     		movs	r2, #0
 611 0020 1A70     		strb	r2, [r3]
 612              	.L38:
 613 0022 00BF     		nop
 614 0024 1037     		adds	r7, r7, #16
 615 0026 BD46     		mov	sp, r7
 616              		@ sp needed
 617 0028 80BD     		pop	{r7, pc}
 618              	.L40:
 619 002a 00BF     		.align	2
 620              	.L39:
 621 002c 00000000 		.word	memp_RX_POOL
 622 0030 00000000 		.word	RxAllocStatus
ARM GAS  C:\msys64\tmp\ccdVMvSz.s 			page 12


 624              		.section	.text.sys_now,"ax",%progbits
 625              		.align	1
 626              		.global	sys_now
 627              		.syntax unified
 628              		.thumb
 629              		.thumb_func
 631              	sys_now:
 632              		@ args = 0, pretend = 0, frame = 0
 633              		@ frame_needed = 1, uses_anonymous_args = 0
 634 0000 80B5     		push	{r7, lr}
 635 0002 00AF     		add	r7, sp, #0
 636 0004 FFF7FEFF 		bl	HAL_GetTick
 637 0008 0346     		mov	r3, r0
 638 000a 1846     		mov	r0, r3
 639 000c 80BD     		pop	{r7, pc}
 641              		.section	.text.HAL_ETH_MspInit,"ax",%progbits
 642              		.align	1
 643              		.global	HAL_ETH_MspInit
 644              		.syntax unified
 645              		.thumb
 646              		.thumb_func
 648              	HAL_ETH_MspInit:
 649              		@ args = 0, pretend = 0, frame = 56
 650              		@ frame_needed = 1, uses_anonymous_args = 0
 651 0000 80B5     		push	{r7, lr}
 652 0002 8EB0     		sub	sp, sp, #56
 653 0004 00AF     		add	r7, sp, #0
 654 0006 7860     		str	r0, [r7, #4]
 655 0008 07F12403 		add	r3, r7, #36
 656 000c 0022     		movs	r2, #0
 657 000e 1A60     		str	r2, [r3]
 658 0010 5A60     		str	r2, [r3, #4]
 659 0012 9A60     		str	r2, [r3, #8]
 660 0014 DA60     		str	r2, [r3, #12]
 661 0016 1A61     		str	r2, [r3, #16]
 662 0018 7B68     		ldr	r3, [r7, #4]
 663 001a 1B68     		ldr	r3, [r3]
 664 001c 3F4A     		ldr	r2, .L46
 665 001e 9342     		cmp	r3, r2
 666 0020 78D1     		bne	.L45
 667 0022 3F4B     		ldr	r3, .L46+4
 668 0024 1B6B     		ldr	r3, [r3, #48]
 669 0026 3E4A     		ldr	r2, .L46+4
 670 0028 43F00073 		orr	r3, r3, #33554432
 671 002c 1363     		str	r3, [r2, #48]
 672 002e 3C4B     		ldr	r3, .L46+4
 673 0030 1B6B     		ldr	r3, [r3, #48]
 674 0032 03F00073 		and	r3, r3, #33554432
 675 0036 3B62     		str	r3, [r7, #32]
 676 0038 3B6A     		ldr	r3, [r7, #32]
 677 003a 394B     		ldr	r3, .L46+4
 678 003c 1B6B     		ldr	r3, [r3, #48]
 679 003e 384A     		ldr	r2, .L46+4
 680 0040 43F08063 		orr	r3, r3, #67108864
 681 0044 1363     		str	r3, [r2, #48]
 682 0046 364B     		ldr	r3, .L46+4
 683 0048 1B6B     		ldr	r3, [r3, #48]
ARM GAS  C:\msys64\tmp\ccdVMvSz.s 			page 13


 684 004a 03F08063 		and	r3, r3, #67108864
 685 004e FB61     		str	r3, [r7, #28]
 686 0050 FB69     		ldr	r3, [r7, #28]
 687 0052 334B     		ldr	r3, .L46+4
 688 0054 1B6B     		ldr	r3, [r3, #48]
 689 0056 324A     		ldr	r2, .L46+4
 690 0058 43F00063 		orr	r3, r3, #134217728
 691 005c 1363     		str	r3, [r2, #48]
 692 005e 304B     		ldr	r3, .L46+4
 693 0060 1B6B     		ldr	r3, [r3, #48]
 694 0062 03F00063 		and	r3, r3, #134217728
 695 0066 BB61     		str	r3, [r7, #24]
 696 0068 BB69     		ldr	r3, [r7, #24]
 697 006a 2D4B     		ldr	r3, .L46+4
 698 006c 1B6B     		ldr	r3, [r3, #48]
 699 006e 2C4A     		ldr	r2, .L46+4
 700 0070 43F04003 		orr	r3, r3, #64
 701 0074 1363     		str	r3, [r2, #48]
 702 0076 2A4B     		ldr	r3, .L46+4
 703 0078 1B6B     		ldr	r3, [r3, #48]
 704 007a 03F04003 		and	r3, r3, #64
 705 007e 7B61     		str	r3, [r7, #20]
 706 0080 7B69     		ldr	r3, [r7, #20]
 707 0082 274B     		ldr	r3, .L46+4
 708 0084 1B6B     		ldr	r3, [r3, #48]
 709 0086 264A     		ldr	r2, .L46+4
 710 0088 43F00403 		orr	r3, r3, #4
 711 008c 1363     		str	r3, [r2, #48]
 712 008e 244B     		ldr	r3, .L46+4
 713 0090 1B6B     		ldr	r3, [r3, #48]
 714 0092 03F00403 		and	r3, r3, #4
 715 0096 3B61     		str	r3, [r7, #16]
 716 0098 3B69     		ldr	r3, [r7, #16]
 717 009a 214B     		ldr	r3, .L46+4
 718 009c 1B6B     		ldr	r3, [r3, #48]
 719 009e 204A     		ldr	r2, .L46+4
 720 00a0 43F00103 		orr	r3, r3, #1
 721 00a4 1363     		str	r3, [r2, #48]
 722 00a6 1E4B     		ldr	r3, .L46+4
 723 00a8 1B6B     		ldr	r3, [r3, #48]
 724 00aa 03F00103 		and	r3, r3, #1
 725 00ae FB60     		str	r3, [r7, #12]
 726 00b0 FB68     		ldr	r3, [r7, #12]
 727 00b2 4FF4D043 		mov	r3, #26624
 728 00b6 7B62     		str	r3, [r7, #36]
 729 00b8 0223     		movs	r3, #2
 730 00ba BB62     		str	r3, [r7, #40]
 731 00bc 0023     		movs	r3, #0
 732 00be FB62     		str	r3, [r7, #44]
 733 00c0 0323     		movs	r3, #3
 734 00c2 3B63     		str	r3, [r7, #48]
 735 00c4 0B23     		movs	r3, #11
 736 00c6 7B63     		str	r3, [r7, #52]
 737 00c8 07F12403 		add	r3, r7, #36
 738 00cc 1946     		mov	r1, r3
 739 00ce 1548     		ldr	r0, .L46+8
 740 00d0 FFF7FEFF 		bl	HAL_GPIO_Init
ARM GAS  C:\msys64\tmp\ccdVMvSz.s 			page 14


 741 00d4 3223     		movs	r3, #50
 742 00d6 7B62     		str	r3, [r7, #36]
 743 00d8 0223     		movs	r3, #2
 744 00da BB62     		str	r3, [r7, #40]
 745 00dc 0023     		movs	r3, #0
 746 00de FB62     		str	r3, [r7, #44]
 747 00e0 0323     		movs	r3, #3
 748 00e2 3B63     		str	r3, [r7, #48]
 749 00e4 0B23     		movs	r3, #11
 750 00e6 7B63     		str	r3, [r7, #52]
 751 00e8 07F12403 		add	r3, r7, #36
 752 00ec 1946     		mov	r1, r3
 753 00ee 0E48     		ldr	r0, .L46+12
 754 00f0 FFF7FEFF 		bl	HAL_GPIO_Init
 755 00f4 8623     		movs	r3, #134
 756 00f6 7B62     		str	r3, [r7, #36]
 757 00f8 0223     		movs	r3, #2
 758 00fa BB62     		str	r3, [r7, #40]
 759 00fc 0023     		movs	r3, #0
 760 00fe FB62     		str	r3, [r7, #44]
 761 0100 0323     		movs	r3, #3
 762 0102 3B63     		str	r3, [r7, #48]
 763 0104 0B23     		movs	r3, #11
 764 0106 7B63     		str	r3, [r7, #52]
 765 0108 07F12403 		add	r3, r7, #36
 766 010c 1946     		mov	r1, r3
 767 010e 0748     		ldr	r0, .L46+16
 768 0110 FFF7FEFF 		bl	HAL_GPIO_Init
 769              	.L45:
 770 0114 00BF     		nop
 771 0116 3837     		adds	r7, r7, #56
 772 0118 BD46     		mov	sp, r7
 773              		@ sp needed
 774 011a 80BD     		pop	{r7, pc}
 775              	.L47:
 776              		.align	2
 777              	.L46:
 778 011c 00800240 		.word	1073905664
 779 0120 00380240 		.word	1073887232
 780 0124 00180240 		.word	1073879040
 781 0128 00080240 		.word	1073874944
 782 012c 00000240 		.word	1073872896
 784              		.section	.text.HAL_ETH_MspDeInit,"ax",%progbits
 785              		.align	1
 786              		.global	HAL_ETH_MspDeInit
 787              		.syntax unified
 788              		.thumb
 789              		.thumb_func
 791              	HAL_ETH_MspDeInit:
 792              		@ args = 0, pretend = 0, frame = 8
 793              		@ frame_needed = 1, uses_anonymous_args = 0
 794 0000 80B5     		push	{r7, lr}
 795 0002 82B0     		sub	sp, sp, #8
 796 0004 00AF     		add	r7, sp, #0
 797 0006 7860     		str	r0, [r7, #4]
 798 0008 7B68     		ldr	r3, [r7, #4]
 799 000a 1B68     		ldr	r3, [r3]
ARM GAS  C:\msys64\tmp\ccdVMvSz.s 			page 15


 800 000c 124A     		ldr	r2, .L51
 801 000e 9342     		cmp	r3, r2
 802 0010 1ED1     		bne	.L50
 803 0012 124B     		ldr	r3, .L51+4
 804 0014 1B6B     		ldr	r3, [r3, #48]
 805 0016 114A     		ldr	r2, .L51+4
 806 0018 23F08063 		bic	r3, r3, #67108864
 807 001c 1363     		str	r3, [r2, #48]
 808 001e 0F4B     		ldr	r3, .L51+4
 809 0020 1B6B     		ldr	r3, [r3, #48]
 810 0022 0E4A     		ldr	r2, .L51+4
 811 0024 23F00063 		bic	r3, r3, #134217728
 812 0028 1363     		str	r3, [r2, #48]
 813 002a 0C4B     		ldr	r3, .L51+4
 814 002c 1B6B     		ldr	r3, [r3, #48]
 815 002e 0B4A     		ldr	r2, .L51+4
 816 0030 23F00073 		bic	r3, r3, #33554432
 817 0034 1363     		str	r3, [r2, #48]
 818 0036 4FF4D041 		mov	r1, #26624
 819 003a 0948     		ldr	r0, .L51+8
 820 003c FFF7FEFF 		bl	HAL_GPIO_DeInit
 821 0040 3221     		movs	r1, #50
 822 0042 0848     		ldr	r0, .L51+12
 823 0044 FFF7FEFF 		bl	HAL_GPIO_DeInit
 824 0048 8621     		movs	r1, #134
 825 004a 0748     		ldr	r0, .L51+16
 826 004c FFF7FEFF 		bl	HAL_GPIO_DeInit
 827              	.L50:
 828 0050 00BF     		nop
 829 0052 0837     		adds	r7, r7, #8
 830 0054 BD46     		mov	sp, r7
 831              		@ sp needed
 832 0056 80BD     		pop	{r7, pc}
 833              	.L52:
 834              		.align	2
 835              	.L51:
 836 0058 00800240 		.word	1073905664
 837 005c 00380240 		.word	1073887232
 838 0060 00180240 		.word	1073879040
 839 0064 00080240 		.word	1073874944
 840 0068 00000240 		.word	1073872896
 842              		.section	.text.ETH_PHY_IO_Init,"ax",%progbits
 843              		.align	1
 844              		.global	ETH_PHY_IO_Init
 845              		.syntax unified
 846              		.thumb
 847              		.thumb_func
 849              	ETH_PHY_IO_Init:
 850              		@ args = 0, pretend = 0, frame = 0
 851              		@ frame_needed = 1, uses_anonymous_args = 0
 852 0000 80B5     		push	{r7, lr}
 853 0002 00AF     		add	r7, sp, #0
 854 0004 0248     		ldr	r0, .L55
 855 0006 FFF7FEFF 		bl	HAL_ETH_SetMDIOClockRange
 856 000a 0023     		movs	r3, #0
 857 000c 1846     		mov	r0, r3
 858 000e 80BD     		pop	{r7, pc}
ARM GAS  C:\msys64\tmp\ccdVMvSz.s 			page 16


 859              	.L56:
 860              		.align	2
 861              	.L55:
 862 0010 00000000 		.word	heth
 864              		.section	.text.ETH_PHY_IO_DeInit,"ax",%progbits
 865              		.align	1
 866              		.global	ETH_PHY_IO_DeInit
 867              		.syntax unified
 868              		.thumb
 869              		.thumb_func
 871              	ETH_PHY_IO_DeInit:
 872              		@ args = 0, pretend = 0, frame = 0
 873              		@ frame_needed = 1, uses_anonymous_args = 0
 874              		@ link register save eliminated.
 875 0000 80B4     		push	{r7}
 876 0002 00AF     		add	r7, sp, #0
 877 0004 0023     		movs	r3, #0
 878 0006 1846     		mov	r0, r3
 879 0008 BD46     		mov	sp, r7
 880              		@ sp needed
 881 000a 5DF8047B 		ldr	r7, [sp], #4
 882 000e 7047     		bx	lr
 884              		.section	.text.ETH_PHY_IO_ReadReg,"ax",%progbits
 885              		.align	1
 886              		.global	ETH_PHY_IO_ReadReg
 887              		.syntax unified
 888              		.thumb
 889              		.thumb_func
 891              	ETH_PHY_IO_ReadReg:
 892              		@ args = 0, pretend = 0, frame = 16
 893              		@ frame_needed = 1, uses_anonymous_args = 0
 894 0000 80B5     		push	{r7, lr}
 895 0002 84B0     		sub	sp, sp, #16
 896 0004 00AF     		add	r7, sp, #0
 897 0006 F860     		str	r0, [r7, #12]
 898 0008 B960     		str	r1, [r7, #8]
 899 000a 7A60     		str	r2, [r7, #4]
 900 000c 7B68     		ldr	r3, [r7, #4]
 901 000e BA68     		ldr	r2, [r7, #8]
 902 0010 F968     		ldr	r1, [r7, #12]
 903 0012 0748     		ldr	r0, .L62
 904 0014 FFF7FEFF 		bl	HAL_ETH_ReadPHYRegister
 905 0018 0346     		mov	r3, r0
 906 001a 002B     		cmp	r3, #0
 907 001c 02D0     		beq	.L60
 908 001e 4FF0FF33 		mov	r3, #-1
 909 0022 00E0     		b	.L61
 910              	.L60:
 911 0024 0023     		movs	r3, #0
 912              	.L61:
 913 0026 1846     		mov	r0, r3
 914 0028 1037     		adds	r7, r7, #16
 915 002a BD46     		mov	sp, r7
 916              		@ sp needed
 917 002c 80BD     		pop	{r7, pc}
 918              	.L63:
 919 002e 00BF     		.align	2
ARM GAS  C:\msys64\tmp\ccdVMvSz.s 			page 17


 920              	.L62:
 921 0030 00000000 		.word	heth
 923              		.section	.text.ETH_PHY_IO_WriteReg,"ax",%progbits
 924              		.align	1
 925              		.global	ETH_PHY_IO_WriteReg
 926              		.syntax unified
 927              		.thumb
 928              		.thumb_func
 930              	ETH_PHY_IO_WriteReg:
 931              		@ args = 0, pretend = 0, frame = 16
 932              		@ frame_needed = 1, uses_anonymous_args = 0
 933 0000 80B5     		push	{r7, lr}
 934 0002 84B0     		sub	sp, sp, #16
 935 0004 00AF     		add	r7, sp, #0
 936 0006 F860     		str	r0, [r7, #12]
 937 0008 B960     		str	r1, [r7, #8]
 938 000a 7A60     		str	r2, [r7, #4]
 939 000c 7B68     		ldr	r3, [r7, #4]
 940 000e BA68     		ldr	r2, [r7, #8]
 941 0010 F968     		ldr	r1, [r7, #12]
 942 0012 0748     		ldr	r0, .L67
 943 0014 FFF7FEFF 		bl	HAL_ETH_WritePHYRegister
 944 0018 0346     		mov	r3, r0
 945 001a 002B     		cmp	r3, #0
 946 001c 02D0     		beq	.L65
 947 001e 4FF0FF33 		mov	r3, #-1
 948 0022 00E0     		b	.L66
 949              	.L65:
 950 0024 0023     		movs	r3, #0
 951              	.L66:
 952 0026 1846     		mov	r0, r3
 953 0028 1037     		adds	r7, r7, #16
 954 002a BD46     		mov	sp, r7
 955              		@ sp needed
 956 002c 80BD     		pop	{r7, pc}
 957              	.L68:
 958 002e 00BF     		.align	2
 959              	.L67:
 960 0030 00000000 		.word	heth
 962              		.section	.text.ETH_PHY_IO_GetTick,"ax",%progbits
 963              		.align	1
 964              		.global	ETH_PHY_IO_GetTick
 965              		.syntax unified
 966              		.thumb
 967              		.thumb_func
 969              	ETH_PHY_IO_GetTick:
 970              		@ args = 0, pretend = 0, frame = 0
 971              		@ frame_needed = 1, uses_anonymous_args = 0
 972 0000 80B5     		push	{r7, lr}
 973 0002 00AF     		add	r7, sp, #0
 974 0004 FFF7FEFF 		bl	HAL_GetTick
 975 0008 0346     		mov	r3, r0
 976 000a 1846     		mov	r0, r3
 977 000c 80BD     		pop	{r7, pc}
 979              		.section	.text.ethernet_link_check_state,"ax",%progbits
 980              		.align	1
 981              		.global	ethernet_link_check_state
ARM GAS  C:\msys64\tmp\ccdVMvSz.s 			page 18


 982              		.syntax unified
 983              		.thumb
 984              		.thumb_func
 986              	ethernet_link_check_state:
 987              		@ args = 0, pretend = 0, frame = 128
 988              		@ frame_needed = 1, uses_anonymous_args = 0
 989 0000 80B5     		push	{r7, lr}
 990 0002 A0B0     		sub	sp, sp, #128
 991 0004 00AF     		add	r7, sp, #0
 992 0006 7860     		str	r0, [r7, #4]
 993 0008 07F10C03 		add	r3, r7, #12
 994 000c 6422     		movs	r2, #100
 995 000e 0021     		movs	r1, #0
 996 0010 1846     		mov	r0, r3
 997 0012 FFF7FEFF 		bl	memset
 998 0016 0023     		movs	r3, #0
 999 0018 3B67     		str	r3, [r7, #112]
 1000 001a 0023     		movs	r3, #0
 1001 001c FB67     		str	r3, [r7, #124]
 1002 001e 0023     		movs	r3, #0
 1003 0020 BB67     		str	r3, [r7, #120]
 1004 0022 0023     		movs	r3, #0
 1005 0024 7B67     		str	r3, [r7, #116]
 1006 0026 3A48     		ldr	r0, .L83
 1007 0028 FFF7FEFF 		bl	LAN8742_GetLinkState
 1008 002c 3867     		str	r0, [r7, #112]
 1009 002e 7B68     		ldr	r3, [r7, #4]
 1010 0030 93F82D30 		ldrb	r3, [r3, #45]	@ zero_extendqisi2
 1011 0034 9B08     		lsrs	r3, r3, #2
 1012 0036 03F00103 		and	r3, r3, #1
 1013 003a DBB2     		uxtb	r3, r3
 1014 003c 002B     		cmp	r3, #0
 1015 003e 0CD0     		beq	.L72
 1016 0040 3B6F     		ldr	r3, [r7, #112]
 1017 0042 012B     		cmp	r3, #1
 1018 0044 09DC     		bgt	.L72
 1019 0046 3348     		ldr	r0, .L83+4
 1020 0048 FFF7FEFF 		bl	HAL_ETH_Stop
 1021 004c 7868     		ldr	r0, [r7, #4]
 1022 004e FFF7FEFF 		bl	netif_set_down
 1023 0052 7868     		ldr	r0, [r7, #4]
 1024 0054 FFF7FEFF 		bl	netif_set_link_down
 1025 0058 55E0     		b	.L81
 1026              	.L72:
 1027 005a 7B68     		ldr	r3, [r7, #4]
 1028 005c 93F82D30 		ldrb	r3, [r3, #45]	@ zero_extendqisi2
 1029 0060 03F00403 		and	r3, r3, #4
 1030 0064 002B     		cmp	r3, #0
 1031 0066 4ED1     		bne	.L81
 1032 0068 3B6F     		ldr	r3, [r7, #112]
 1033 006a 012B     		cmp	r3, #1
 1034 006c 4BDD     		ble	.L81
 1035 006e 3B6F     		ldr	r3, [r7, #112]
 1036 0070 023B     		subs	r3, r3, #2
 1037 0072 032B     		cmp	r3, #3
 1038 0074 2AD8     		bhi	.L82
 1039 0076 01A2     		adr	r2, .L76
ARM GAS  C:\msys64\tmp\ccdVMvSz.s 			page 19


 1040 0078 52F823F0 		ldr	pc, [r2, r3, lsl #2]
 1041              		.p2align 2
 1042              	.L76:
 1043 007c 8D000000 		.word	.L79+1
 1044 0080 9F000000 		.word	.L78+1
 1045 0084 AF000000 		.word	.L77+1
 1046 0088 BF000000 		.word	.L75+1
 1047              		.p2align 1
 1048              	.L79:
 1049 008c 4FF40063 		mov	r3, #2048
 1050 0090 7B67     		str	r3, [r7, #116]
 1051 0092 4FF48043 		mov	r3, #16384
 1052 0096 BB67     		str	r3, [r7, #120]
 1053 0098 0123     		movs	r3, #1
 1054 009a FB67     		str	r3, [r7, #124]
 1055 009c 17E0     		b	.L80
 1056              	.L78:
 1057 009e 0023     		movs	r3, #0
 1058 00a0 7B67     		str	r3, [r7, #116]
 1059 00a2 4FF48043 		mov	r3, #16384
 1060 00a6 BB67     		str	r3, [r7, #120]
 1061 00a8 0123     		movs	r3, #1
 1062 00aa FB67     		str	r3, [r7, #124]
 1063 00ac 0FE0     		b	.L80
 1064              	.L77:
 1065 00ae 4FF40063 		mov	r3, #2048
 1066 00b2 7B67     		str	r3, [r7, #116]
 1067 00b4 0023     		movs	r3, #0
 1068 00b6 BB67     		str	r3, [r7, #120]
 1069 00b8 0123     		movs	r3, #1
 1070 00ba FB67     		str	r3, [r7, #124]
 1071 00bc 07E0     		b	.L80
 1072              	.L75:
 1073 00be 0023     		movs	r3, #0
 1074 00c0 7B67     		str	r3, [r7, #116]
 1075 00c2 0023     		movs	r3, #0
 1076 00c4 BB67     		str	r3, [r7, #120]
 1077 00c6 0123     		movs	r3, #1
 1078 00c8 FB67     		str	r3, [r7, #124]
 1079 00ca 00E0     		b	.L80
 1080              	.L82:
 1081 00cc 00BF     		nop
 1082              	.L80:
 1083 00ce FB6F     		ldr	r3, [r7, #124]
 1084 00d0 002B     		cmp	r3, #0
 1085 00d2 18D0     		beq	.L81
 1086 00d4 07F10C03 		add	r3, r7, #12
 1087 00d8 1946     		mov	r1, r3
 1088 00da 0E48     		ldr	r0, .L83+4
 1089 00dc FFF7FEFF 		bl	HAL_ETH_GetMACConfig
 1090 00e0 7B6F     		ldr	r3, [r7, #116]
 1091 00e2 7B62     		str	r3, [r7, #36]
 1092 00e4 BB6F     		ldr	r3, [r7, #120]
 1093 00e6 3B62     		str	r3, [r7, #32]
 1094 00e8 07F10C03 		add	r3, r7, #12
 1095 00ec 1946     		mov	r1, r3
 1096 00ee 0948     		ldr	r0, .L83+4
ARM GAS  C:\msys64\tmp\ccdVMvSz.s 			page 20


 1097 00f0 FFF7FEFF 		bl	HAL_ETH_SetMACConfig
 1098 00f4 0748     		ldr	r0, .L83+4
 1099 00f6 FFF7FEFF 		bl	HAL_ETH_Start
 1100 00fa 7868     		ldr	r0, [r7, #4]
 1101 00fc FFF7FEFF 		bl	netif_set_up
 1102 0100 7868     		ldr	r0, [r7, #4]
 1103 0102 FFF7FEFF 		bl	netif_set_link_up
 1104              	.L81:
 1105 0106 00BF     		nop
 1106 0108 8037     		adds	r7, r7, #128
 1107 010a BD46     		mov	sp, r7
 1108              		@ sp needed
 1109 010c 80BD     		pop	{r7, pc}
 1110              	.L84:
 1111 010e 00BF     		.align	2
 1112              	.L83:
 1113 0110 00000000 		.word	LAN8742
 1114 0114 00000000 		.word	heth
 1116              		.section	.text.HAL_ETH_RxAllocateCallback,"ax",%progbits
 1117              		.align	1
 1118              		.global	HAL_ETH_RxAllocateCallback
 1119              		.syntax unified
 1120              		.thumb
 1121              		.thumb_func
 1123              	HAL_ETH_RxAllocateCallback:
 1124              		@ args = 0, pretend = 0, frame = 16
 1125              		@ frame_needed = 1, uses_anonymous_args = 0
 1126 0000 80B5     		push	{r7, lr}
 1127 0002 86B0     		sub	sp, sp, #24
 1128 0004 02AF     		add	r7, sp, #8
 1129 0006 7860     		str	r0, [r7, #4]
 1130 0008 1248     		ldr	r0, .L89
 1131 000a FFF7FEFF 		bl	memp_malloc_pool
 1132 000e F860     		str	r0, [r7, #12]
 1133 0010 FB68     		ldr	r3, [r7, #12]
 1134 0012 002B     		cmp	r3, #0
 1135 0014 14D0     		beq	.L86
 1136 0016 FB68     		ldr	r3, [r7, #12]
 1137 0018 03F12002 		add	r2, r3, #32
 1138 001c 7B68     		ldr	r3, [r7, #4]
 1139 001e 1A60     		str	r2, [r3]
 1140 0020 FB68     		ldr	r3, [r7, #12]
 1141 0022 0D4A     		ldr	r2, .L89+4
 1142 0024 1A61     		str	r2, [r3, #16]
 1143 0026 7B68     		ldr	r3, [r7, #4]
 1144 0028 1B68     		ldr	r3, [r3]
 1145 002a 40F2F452 		movw	r2, #1524
 1146 002e 0192     		str	r2, [sp, #4]
 1147 0030 0093     		str	r3, [sp]
 1148 0032 FB68     		ldr	r3, [r7, #12]
 1149 0034 4122     		movs	r2, #65
 1150 0036 0021     		movs	r1, #0
 1151 0038 0020     		movs	r0, #0
 1152 003a FFF7FEFF 		bl	pbuf_alloced_custom
 1153 003e 05E0     		b	.L88
 1154              	.L86:
 1155 0040 064B     		ldr	r3, .L89+8
ARM GAS  C:\msys64\tmp\ccdVMvSz.s 			page 21


 1156 0042 0122     		movs	r2, #1
 1157 0044 1A70     		strb	r2, [r3]
 1158 0046 7B68     		ldr	r3, [r7, #4]
 1159 0048 0022     		movs	r2, #0
 1160 004a 1A60     		str	r2, [r3]
 1161              	.L88:
 1162 004c 00BF     		nop
 1163 004e 1037     		adds	r7, r7, #16
 1164 0050 BD46     		mov	sp, r7
 1165              		@ sp needed
 1166 0052 80BD     		pop	{r7, pc}
 1167              	.L90:
 1168              		.align	2
 1169              	.L89:
 1170 0054 00000000 		.word	memp_RX_POOL
 1171 0058 00000000 		.word	pbuf_free_custom
 1172 005c 00000000 		.word	RxAllocStatus
 1174              		.section	.text.HAL_ETH_RxLinkCallback,"ax",%progbits
 1175              		.align	1
 1176              		.global	HAL_ETH_RxLinkCallback
 1177              		.syntax unified
 1178              		.thumb
 1179              		.thumb_func
 1181              	HAL_ETH_RxLinkCallback:
 1182              		@ args = 0, pretend = 0, frame = 32
 1183              		@ frame_needed = 1, uses_anonymous_args = 0
 1184 0000 80B5     		push	{r7, lr}
 1185 0002 88B0     		sub	sp, sp, #32
 1186 0004 00AF     		add	r7, sp, #0
 1187 0006 F860     		str	r0, [r7, #12]
 1188 0008 B960     		str	r1, [r7, #8]
 1189 000a 7A60     		str	r2, [r7, #4]
 1190 000c 7B80     		strh	r3, [r7, #2]	@ movhi
 1191 000e FB68     		ldr	r3, [r7, #12]
 1192 0010 BB61     		str	r3, [r7, #24]
 1193 0012 BB68     		ldr	r3, [r7, #8]
 1194 0014 7B61     		str	r3, [r7, #20]
 1195 0016 0023     		movs	r3, #0
 1196 0018 FB61     		str	r3, [r7, #28]
 1197 001a 7B68     		ldr	r3, [r7, #4]
 1198 001c 203B     		subs	r3, r3, #32
 1199 001e FB61     		str	r3, [r7, #28]
 1200 0020 FB69     		ldr	r3, [r7, #28]
 1201 0022 0022     		movs	r2, #0
 1202 0024 1A60     		str	r2, [r3]
 1203 0026 FB69     		ldr	r3, [r7, #28]
 1204 0028 0022     		movs	r2, #0
 1205 002a 1A81     		strh	r2, [r3, #8]	@ movhi
 1206 002c FB69     		ldr	r3, [r7, #28]
 1207 002e 7A88     		ldrh	r2, [r7, #2]	@ movhi
 1208 0030 5A81     		strh	r2, [r3, #10]	@ movhi
 1209 0032 BB69     		ldr	r3, [r7, #24]
 1210 0034 1B68     		ldr	r3, [r3]
 1211 0036 002B     		cmp	r3, #0
 1212 0038 03D1     		bne	.L92
 1213 003a BB69     		ldr	r3, [r7, #24]
 1214 003c FA69     		ldr	r2, [r7, #28]
ARM GAS  C:\msys64\tmp\ccdVMvSz.s 			page 22


 1215 003e 1A60     		str	r2, [r3]
 1216 0040 03E0     		b	.L93
 1217              	.L92:
 1218 0042 7B69     		ldr	r3, [r7, #20]
 1219 0044 1B68     		ldr	r3, [r3]
 1220 0046 FA69     		ldr	r2, [r7, #28]
 1221 0048 1A60     		str	r2, [r3]
 1222              	.L93:
 1223 004a 7B69     		ldr	r3, [r7, #20]
 1224 004c FA69     		ldr	r2, [r7, #28]
 1225 004e 1A60     		str	r2, [r3]
 1226 0050 BB69     		ldr	r3, [r7, #24]
 1227 0052 1B68     		ldr	r3, [r3]
 1228 0054 FB61     		str	r3, [r7, #28]
 1229 0056 09E0     		b	.L94
 1230              	.L95:
 1231 0058 FB69     		ldr	r3, [r7, #28]
 1232 005a 1A89     		ldrh	r2, [r3, #8]
 1233 005c 7B88     		ldrh	r3, [r7, #2]	@ movhi
 1234 005e 1344     		add	r3, r3, r2
 1235 0060 9AB2     		uxth	r2, r3
 1236 0062 FB69     		ldr	r3, [r7, #28]
 1237 0064 1A81     		strh	r2, [r3, #8]	@ movhi
 1238 0066 FB69     		ldr	r3, [r7, #28]
 1239 0068 1B68     		ldr	r3, [r3]
 1240 006a FB61     		str	r3, [r7, #28]
 1241              	.L94:
 1242 006c FB69     		ldr	r3, [r7, #28]
 1243 006e 002B     		cmp	r3, #0
 1244 0070 F2D1     		bne	.L95
 1245 0072 7B88     		ldrh	r3, [r7, #2]
 1246 0074 1946     		mov	r1, r3
 1247 0076 7868     		ldr	r0, [r7, #4]
 1248 0078 FFF7FEFF 		bl	SCB_InvalidateDCache_by_Addr
 1249 007c 00BF     		nop
 1250 007e 2037     		adds	r7, r7, #32
 1251 0080 BD46     		mov	sp, r7
 1252              		@ sp needed
 1253 0082 80BD     		pop	{r7, pc}
 1255              		.section	.text.HAL_ETH_TxFreeCallback,"ax",%progbits
 1256              		.align	1
 1257              		.global	HAL_ETH_TxFreeCallback
 1258              		.syntax unified
 1259              		.thumb
 1260              		.thumb_func
 1262              	HAL_ETH_TxFreeCallback:
 1263              		@ args = 0, pretend = 0, frame = 8
 1264              		@ frame_needed = 1, uses_anonymous_args = 0
 1265 0000 80B5     		push	{r7, lr}
 1266 0002 82B0     		sub	sp, sp, #8
 1267 0004 00AF     		add	r7, sp, #0
 1268 0006 7860     		str	r0, [r7, #4]
 1269 0008 7868     		ldr	r0, [r7, #4]
 1270 000a FFF7FEFF 		bl	pbuf_free
 1271 000e 00BF     		nop
 1272 0010 0837     		adds	r7, r7, #8
 1273 0012 BD46     		mov	sp, r7
ARM GAS  C:\msys64\tmp\ccdVMvSz.s 			page 23


 1274              		@ sp needed
 1275 0014 80BD     		pop	{r7, pc}
 1277              		.section	.text.ethernet_link_thread,"ax",%progbits
 1278              		.align	1
 1279              		.global	ethernet_link_thread
 1280              		.syntax unified
 1281              		.thumb
 1282              		.thumb_func
 1284              	ethernet_link_thread:
 1285              		@ args = 0, pretend = 0, frame = 128
 1286              		@ frame_needed = 1, uses_anonymous_args = 0
 1287 0000 80B5     		push	{r7, lr}
 1288 0002 A0B0     		sub	sp, sp, #128
 1289 0004 00AF     		add	r7, sp, #0
 1290 0006 7860     		str	r0, [r7, #4]
 1291 0008 07F10803 		add	r3, r7, #8
 1292 000c 6422     		movs	r2, #100
 1293 000e 0021     		movs	r1, #0
 1294 0010 1846     		mov	r0, r3
 1295 0012 FFF7FEFF 		bl	memset
 1296 0016 0023     		movs	r3, #0
 1297 0018 3B67     		str	r3, [r7, #112]
 1298 001a 0023     		movs	r3, #0
 1299 001c FB67     		str	r3, [r7, #124]
 1300 001e 0023     		movs	r3, #0
 1301 0020 BB67     		str	r3, [r7, #120]
 1302 0022 0023     		movs	r3, #0
 1303 0024 7B67     		str	r3, [r7, #116]
 1304 0026 7B68     		ldr	r3, [r7, #4]
 1305 0028 FB66     		str	r3, [r7, #108]
 1306              	.L107:
 1307 002a 3A48     		ldr	r0, .L109
 1308 002c FFF7FEFF 		bl	LAN8742_GetLinkState
 1309 0030 3867     		str	r0, [r7, #112]
 1310 0032 FB6E     		ldr	r3, [r7, #108]
 1311 0034 93F82D30 		ldrb	r3, [r3, #45]	@ zero_extendqisi2
 1312 0038 9B08     		lsrs	r3, r3, #2
 1313 003a 03F00103 		and	r3, r3, #1
 1314 003e DBB2     		uxtb	r3, r3
 1315 0040 002B     		cmp	r3, #0
 1316 0042 0CD0     		beq	.L98
 1317 0044 3B6F     		ldr	r3, [r7, #112]
 1318 0046 012B     		cmp	r3, #1
 1319 0048 09DC     		bgt	.L98
 1320 004a 3348     		ldr	r0, .L109+4
 1321 004c FFF7FEFF 		bl	HAL_ETH_Stop_IT
 1322 0050 F86E     		ldr	r0, [r7, #108]
 1323 0052 FFF7FEFF 		bl	netif_set_down
 1324 0056 F86E     		ldr	r0, [r7, #108]
 1325 0058 FFF7FEFF 		bl	netif_set_link_down
 1326 005c 55E0     		b	.L99
 1327              	.L98:
 1328 005e FB6E     		ldr	r3, [r7, #108]
 1329 0060 93F82D30 		ldrb	r3, [r3, #45]	@ zero_extendqisi2
 1330 0064 03F00403 		and	r3, r3, #4
 1331 0068 002B     		cmp	r3, #0
 1332 006a 4ED1     		bne	.L99
ARM GAS  C:\msys64\tmp\ccdVMvSz.s 			page 24


 1333 006c 3B6F     		ldr	r3, [r7, #112]
 1334 006e 012B     		cmp	r3, #1
 1335 0070 4BDD     		ble	.L99
 1336 0072 3B6F     		ldr	r3, [r7, #112]
 1337 0074 023B     		subs	r3, r3, #2
 1338 0076 032B     		cmp	r3, #3
 1339 0078 2AD8     		bhi	.L108
 1340 007a 01A2     		adr	r2, .L102
 1341 007c 52F823F0 		ldr	pc, [r2, r3, lsl #2]
 1342              		.p2align 2
 1343              	.L102:
 1344 0080 91000000 		.word	.L105+1
 1345 0084 A3000000 		.word	.L104+1
 1346 0088 B3000000 		.word	.L103+1
 1347 008c C3000000 		.word	.L101+1
 1348              		.p2align 1
 1349              	.L105:
 1350 0090 4FF40063 		mov	r3, #2048
 1351 0094 7B67     		str	r3, [r7, #116]
 1352 0096 4FF48043 		mov	r3, #16384
 1353 009a BB67     		str	r3, [r7, #120]
 1354 009c 0123     		movs	r3, #1
 1355 009e FB67     		str	r3, [r7, #124]
 1356 00a0 17E0     		b	.L106
 1357              	.L104:
 1358 00a2 0023     		movs	r3, #0
 1359 00a4 7B67     		str	r3, [r7, #116]
 1360 00a6 4FF48043 		mov	r3, #16384
 1361 00aa BB67     		str	r3, [r7, #120]
 1362 00ac 0123     		movs	r3, #1
 1363 00ae FB67     		str	r3, [r7, #124]
 1364 00b0 0FE0     		b	.L106
 1365              	.L103:
 1366 00b2 4FF40063 		mov	r3, #2048
 1367 00b6 7B67     		str	r3, [r7, #116]
 1368 00b8 0023     		movs	r3, #0
 1369 00ba BB67     		str	r3, [r7, #120]
 1370 00bc 0123     		movs	r3, #1
 1371 00be FB67     		str	r3, [r7, #124]
 1372 00c0 07E0     		b	.L106
 1373              	.L101:
 1374 00c2 0023     		movs	r3, #0
 1375 00c4 7B67     		str	r3, [r7, #116]
 1376 00c6 0023     		movs	r3, #0
 1377 00c8 BB67     		str	r3, [r7, #120]
 1378 00ca 0123     		movs	r3, #1
 1379 00cc FB67     		str	r3, [r7, #124]
 1380 00ce 00E0     		b	.L106
 1381              	.L108:
 1382 00d0 00BF     		nop
 1383              	.L106:
 1384 00d2 FB6F     		ldr	r3, [r7, #124]
 1385 00d4 002B     		cmp	r3, #0
 1386 00d6 18D0     		beq	.L99
 1387 00d8 07F10803 		add	r3, r7, #8
 1388 00dc 1946     		mov	r1, r3
 1389 00de 0E48     		ldr	r0, .L109+4
ARM GAS  C:\msys64\tmp\ccdVMvSz.s 			page 25


 1390 00e0 FFF7FEFF 		bl	HAL_ETH_GetMACConfig
 1391 00e4 7B6F     		ldr	r3, [r7, #116]
 1392 00e6 3B62     		str	r3, [r7, #32]
 1393 00e8 BB6F     		ldr	r3, [r7, #120]
 1394 00ea FB61     		str	r3, [r7, #28]
 1395 00ec 07F10803 		add	r3, r7, #8
 1396 00f0 1946     		mov	r1, r3
 1397 00f2 0948     		ldr	r0, .L109+4
 1398 00f4 FFF7FEFF 		bl	HAL_ETH_SetMACConfig
 1399 00f8 0748     		ldr	r0, .L109+4
 1400 00fa FFF7FEFF 		bl	HAL_ETH_Start_IT
 1401 00fe F86E     		ldr	r0, [r7, #108]
 1402 0100 FFF7FEFF 		bl	netif_set_up
 1403 0104 F86E     		ldr	r0, [r7, #108]
 1404 0106 FFF7FEFF 		bl	netif_set_link_up
 1405              	.L99:
 1406 010a 6420     		movs	r0, #100
 1407 010c FFF7FEFF 		bl	vTaskDelay
 1408 0110 8BE7     		b	.L107
 1409              	.L110:
 1410 0112 00BF     		.align	2
 1411              	.L109:
 1412 0114 00000000 		.word	LAN8742
 1413 0118 00000000 		.word	heth
 1415              		.ident	"GCC: (GNU) 13.3.0"
ARM GAS  C:\msys64\tmp\ccdVMvSz.s 			page 26

