ARM GAS  C:\msys64\tmp\ccjQk5mT.s 			page 1


   1              		.cpu cortex-m7
   2              		.arch armv7e-m
   3              		.fpu fpv5-sp-d16
   4              		.eabi_attribute 27, 1
   5              		.eabi_attribute 28, 1
   6              		.eabi_attribute 20, 1
   7              		.eabi_attribute 21, 1
   8              		.eabi_attribute 23, 3
   9              		.eabi_attribute 24, 1
  10              		.eabi_attribute 25, 1
  11              		.eabi_attribute 26, 1
  12              		.eabi_attribute 30, 6
  13              		.eabi_attribute 34, 1
  14              		.eabi_attribute 18, 4
  15              		.file	"memp.c"
  16              		.text
  17              		.global	memp_memory_REASSDATA_base
  18              		.section	.bss.memp_memory_REASSDATA_base,"aw",%nobits
  19              		.align	2
  22              	memp_memory_REASSDATA_base:
  23 0000 00000000 		.space	163
  23      00000000 
  23      00000000 
  23      00000000 
  23      00000000 
  24              		.section	.bss.memp_tab_REASSDATA,"aw",%nobits
  25              		.align	2
  28              	memp_tab_REASSDATA:
  29 0000 00000000 		.space	4
  30              		.global	memp_REASSDATA
  31              		.section	.rodata.memp_REASSDATA,"a"
  32              		.align	2
  35              	memp_REASSDATA:
  36 0000 2000     		.short	32
  37 0002 0500     		.short	5
  38 0004 00000000 		.word	memp_memory_REASSDATA_base
  39 0008 00000000 		.word	memp_tab_REASSDATA
  40              		.global	memp_memory_FRAG_PBUF_base
  41              		.section	.bss.memp_memory_FRAG_PBUF_base,"aw",%nobits
  42              		.align	2
  45              	memp_memory_FRAG_PBUF_base:
  46 0000 00000000 		.space	363
  46      00000000 
  46      00000000 
  46      00000000 
  46      00000000 
  47              		.section	.bss.memp_tab_FRAG_PBUF,"aw",%nobits
  48              		.align	2
  51              	memp_tab_FRAG_PBUF:
  52 0000 00000000 		.space	4
  53              		.global	memp_FRAG_PBUF
  54              		.section	.rodata.memp_FRAG_PBUF,"a"
  55              		.align	2
  58              	memp_FRAG_PBUF:
  59 0000 1800     		.short	24
  60 0002 0F00     		.short	15
  61 0004 00000000 		.word	memp_memory_FRAG_PBUF_base
ARM GAS  C:\msys64\tmp\ccjQk5mT.s 			page 2


  62 0008 00000000 		.word	memp_tab_FRAG_PBUF
  63              		.global	memp_memory_TCPIP_MSG_API_base
  64              		.section	.bss.memp_memory_TCPIP_MSG_API_base,"aw",%nobits
  65              		.align	2
  68              	memp_memory_TCPIP_MSG_API_base:
  69 0000 00000000 		.space	131
  69      00000000 
  69      00000000 
  69      00000000 
  69      00000000 
  70              		.section	.bss.memp_tab_TCPIP_MSG_API,"aw",%nobits
  71              		.align	2
  74              	memp_tab_TCPIP_MSG_API:
  75 0000 00000000 		.space	4
  76              		.global	memp_TCPIP_MSG_API
  77              		.section	.rodata.memp_TCPIP_MSG_API,"a"
  78              		.align	2
  81              	memp_TCPIP_MSG_API:
  82 0000 1000     		.short	16
  83 0002 0800     		.short	8
  84 0004 00000000 		.word	memp_memory_TCPIP_MSG_API_base
  85 0008 00000000 		.word	memp_tab_TCPIP_MSG_API
  86              		.global	memp_memory_TCPIP_MSG_INPKT_base
  87              		.section	.bss.memp_memory_TCPIP_MSG_INPKT_base,"aw",%nobits
  88              		.align	2
  91              	memp_memory_TCPIP_MSG_INPKT_base:
  92 0000 00000000 		.space	131
  92      00000000 
  92      00000000 
  92      00000000 
  92      00000000 
  93              		.section	.bss.memp_tab_TCPIP_MSG_INPKT,"aw",%nobits
  94              		.align	2
  97              	memp_tab_TCPIP_MSG_INPKT:
  98 0000 00000000 		.space	4
  99              		.global	memp_TCPIP_MSG_INPKT
 100              		.section	.rodata.memp_TCPIP_MSG_INPKT,"a"
 101              		.align	2
 104              	memp_TCPIP_MSG_INPKT:
 105 0000 1000     		.short	16
 106 0002 0800     		.short	8
 107 0004 00000000 		.word	memp_memory_TCPIP_MSG_INPKT_base
 108 0008 00000000 		.word	memp_tab_TCPIP_MSG_INPKT
 109              		.global	memp_memory_SYS_TIMEOUT_base
 110              		.section	.bss.memp_memory_SYS_TIMEOUT_base,"aw",%nobits
 111              		.align	2
 114              	memp_memory_SYS_TIMEOUT_base:
 115 0000 00000000 		.space	35
 115      00000000 
 115      00000000 
 115      00000000 
 115      00000000 
 116              		.section	.bss.memp_tab_SYS_TIMEOUT,"aw",%nobits
 117              		.align	2
 120              	memp_tab_SYS_TIMEOUT:
 121 0000 00000000 		.space	4
 122              		.global	memp_SYS_TIMEOUT
ARM GAS  C:\msys64\tmp\ccjQk5mT.s 			page 3


 123              		.section	.rodata.memp_SYS_TIMEOUT,"a"
 124              		.align	2
 127              	memp_SYS_TIMEOUT:
 128 0000 1000     		.short	16
 129 0002 0200     		.short	2
 130 0004 00000000 		.word	memp_memory_SYS_TIMEOUT_base
 131 0008 00000000 		.word	memp_tab_SYS_TIMEOUT
 132              		.global	memp_memory_PBUF_base
 133              		.section	.bss.memp_memory_PBUF_base,"aw",%nobits
 134              		.align	2
 137              	memp_memory_PBUF_base:
 138 0000 00000000 		.space	259
 138      00000000 
 138      00000000 
 138      00000000 
 138      00000000 
 139              		.section	.bss.memp_tab_PBUF,"aw",%nobits
 140              		.align	2
 143              	memp_tab_PBUF:
 144 0000 00000000 		.space	4
 145              		.global	memp_PBUF
 146              		.section	.rodata.memp_PBUF,"a"
 147              		.align	2
 150              	memp_PBUF:
 151 0000 1000     		.short	16
 152 0002 1000     		.short	16
 153 0004 00000000 		.word	memp_memory_PBUF_base
 154 0008 00000000 		.word	memp_tab_PBUF
 155              		.global	memp_memory_PBUF_POOL_base
 156              		.section	.bss.memp_memory_PBUF_POOL_base,"aw",%nobits
 157              		.align	2
 160              	memp_memory_PBUF_POOL_base:
 161 0000 00000000 		.space	9731
 161      00000000 
 161      00000000 
 161      00000000 
 161      00000000 
 162              		.section	.bss.memp_tab_PBUF_POOL,"aw",%nobits
 163              		.align	2
 166              	memp_tab_PBUF_POOL:
 167 0000 00000000 		.space	4
 168              		.global	memp_PBUF_POOL
 169              		.section	.rodata.memp_PBUF_POOL,"a"
 170              		.align	2
 173              	memp_PBUF_POOL:
 174 0000 6002     		.short	608
 175 0002 1000     		.short	16
 176 0004 00000000 		.word	memp_memory_PBUF_POOL_base
 177 0008 00000000 		.word	memp_tab_PBUF_POOL
 178              		.global	memp_pools
 179              		.section	.rodata.memp_pools,"a"
 180              		.align	2
 183              	memp_pools:
 184 0000 00000000 		.word	memp_REASSDATA
 185 0004 00000000 		.word	memp_FRAG_PBUF
 186 0008 00000000 		.word	memp_TCPIP_MSG_API
 187 000c 00000000 		.word	memp_TCPIP_MSG_INPKT
ARM GAS  C:\msys64\tmp\ccjQk5mT.s 			page 4


 188 0010 00000000 		.word	memp_SYS_TIMEOUT
 189 0014 00000000 		.word	memp_PBUF
 190 0018 00000000 		.word	memp_PBUF_POOL
 191              		.section	.text.memp_init_pool,"ax",%progbits
 192              		.align	1
 193              		.global	memp_init_pool
 194              		.syntax unified
 195              		.thumb
 196              		.thumb_func
 198              	memp_init_pool:
 199              		@ args = 0, pretend = 0, frame = 16
 200              		@ frame_needed = 1, uses_anonymous_args = 0
 201              		@ link register save eliminated.
 202 0000 80B4     		push	{r7}
 203 0002 85B0     		sub	sp, sp, #20
 204 0004 00AF     		add	r7, sp, #0
 205 0006 7860     		str	r0, [r7, #4]
 206 0008 7B68     		ldr	r3, [r7, #4]
 207 000a 9B68     		ldr	r3, [r3, #8]
 208 000c 0022     		movs	r2, #0
 209 000e 1A60     		str	r2, [r3]
 210 0010 7B68     		ldr	r3, [r7, #4]
 211 0012 5B68     		ldr	r3, [r3, #4]
 212 0014 0333     		adds	r3, r3, #3
 213 0016 23F00303 		bic	r3, r3, #3
 214 001a BB60     		str	r3, [r7, #8]
 215 001c 0023     		movs	r3, #0
 216 001e FB60     		str	r3, [r7, #12]
 217 0020 11E0     		b	.L2
 218              	.L3:
 219 0022 7B68     		ldr	r3, [r7, #4]
 220 0024 9B68     		ldr	r3, [r3, #8]
 221 0026 1A68     		ldr	r2, [r3]
 222 0028 BB68     		ldr	r3, [r7, #8]
 223 002a 1A60     		str	r2, [r3]
 224 002c 7B68     		ldr	r3, [r7, #4]
 225 002e 9B68     		ldr	r3, [r3, #8]
 226 0030 BA68     		ldr	r2, [r7, #8]
 227 0032 1A60     		str	r2, [r3]
 228 0034 7B68     		ldr	r3, [r7, #4]
 229 0036 1B88     		ldrh	r3, [r3]
 230 0038 1A46     		mov	r2, r3
 231 003a BB68     		ldr	r3, [r7, #8]
 232 003c 1344     		add	r3, r3, r2
 233 003e BB60     		str	r3, [r7, #8]
 234 0040 FB68     		ldr	r3, [r7, #12]
 235 0042 0133     		adds	r3, r3, #1
 236 0044 FB60     		str	r3, [r7, #12]
 237              	.L2:
 238 0046 7B68     		ldr	r3, [r7, #4]
 239 0048 5B88     		ldrh	r3, [r3, #2]
 240 004a 1A46     		mov	r2, r3
 241 004c FB68     		ldr	r3, [r7, #12]
 242 004e 9342     		cmp	r3, r2
 243 0050 E7DB     		blt	.L3
 244 0052 00BF     		nop
 245 0054 00BF     		nop
ARM GAS  C:\msys64\tmp\ccjQk5mT.s 			page 5


 246 0056 1437     		adds	r7, r7, #20
 247 0058 BD46     		mov	sp, r7
 248              		@ sp needed
 249 005a 5DF8047B 		ldr	r7, [sp], #4
 250 005e 7047     		bx	lr
 252              		.section	.text.memp_init,"ax",%progbits
 253              		.align	1
 254              		.global	memp_init
 255              		.syntax unified
 256              		.thumb
 257              		.thumb_func
 259              	memp_init:
 260              		@ args = 0, pretend = 0, frame = 8
 261              		@ frame_needed = 1, uses_anonymous_args = 0
 262 0000 80B5     		push	{r7, lr}
 263 0002 82B0     		sub	sp, sp, #8
 264 0004 00AF     		add	r7, sp, #0
 265 0006 0023     		movs	r3, #0
 266 0008 FB80     		strh	r3, [r7, #6]	@ movhi
 267 000a 09E0     		b	.L5
 268              	.L6:
 269 000c FB88     		ldrh	r3, [r7, #6]
 270 000e 084A     		ldr	r2, .L7
 271 0010 52F82330 		ldr	r3, [r2, r3, lsl #2]
 272 0014 1846     		mov	r0, r3
 273 0016 FFF7FEFF 		bl	memp_init_pool
 274 001a FB88     		ldrh	r3, [r7, #6]
 275 001c 0133     		adds	r3, r3, #1
 276 001e FB80     		strh	r3, [r7, #6]	@ movhi
 277              	.L5:
 278 0020 FB88     		ldrh	r3, [r7, #6]
 279 0022 062B     		cmp	r3, #6
 280 0024 F2D9     		bls	.L6
 281 0026 00BF     		nop
 282 0028 00BF     		nop
 283 002a 0837     		adds	r7, r7, #8
 284 002c BD46     		mov	sp, r7
 285              		@ sp needed
 286 002e 80BD     		pop	{r7, pc}
 287              	.L8:
 288              		.align	2
 289              	.L7:
 290 0030 00000000 		.word	memp_pools
 292              		.section	.rodata
 293              		.align	2
 294              	.LC0:
 295 0000 4D696464 		.ascii	"Middlewares/stm32f746_lwip_withos_porting/LWIP/src/"
 295      6C657761 
 295      7265732F 
 295      73746D33 
 295      32663734 
 296 0033 636F7265 		.ascii	"core/memp.c\000"
 296      2F6D656D 
 296      702E6300 
 297 003f 00       		.align	2
 298              	.LC1:
 299 0040 6D656D70 		.ascii	"memp_malloc: memp properly aligned\000"
ARM GAS  C:\msys64\tmp\ccjQk5mT.s 			page 6


 299      5F6D616C 
 299      6C6F633A 
 299      206D656D 
 299      70207072 
 300 0063 00       		.align	2
 301              	.LC2:
 302 0064 41737365 		.ascii	"Assertion \"%s\" failed at line %d in %s\012\000"
 302      7274696F 
 302      6E202225 
 302      73222066 
 302      61696C65 
 303              		.section	.text.do_memp_malloc_pool,"ax",%progbits
 304              		.align	1
 305              		.syntax unified
 306              		.thumb
 307              		.thumb_func
 309              	do_memp_malloc_pool:
 310              		@ args = 0, pretend = 0, frame = 16
 311              		@ frame_needed = 1, uses_anonymous_args = 0
 312 0000 80B5     		push	{r7, lr}
 313 0002 84B0     		sub	sp, sp, #16
 314 0004 00AF     		add	r7, sp, #0
 315 0006 7860     		str	r0, [r7, #4]
 316 0008 FFF7FEFF 		bl	sys_arch_protect
 317 000c F860     		str	r0, [r7, #12]
 318 000e 7B68     		ldr	r3, [r7, #4]
 319 0010 9B68     		ldr	r3, [r3, #8]
 320 0012 1B68     		ldr	r3, [r3]
 321 0014 BB60     		str	r3, [r7, #8]
 322 0016 BB68     		ldr	r3, [r7, #8]
 323 0018 002B     		cmp	r3, #0
 324 001a 15D0     		beq	.L10
 325 001c 7B68     		ldr	r3, [r7, #4]
 326 001e 9B68     		ldr	r3, [r3, #8]
 327 0020 BA68     		ldr	r2, [r7, #8]
 328 0022 1268     		ldr	r2, [r2]
 329 0024 1A60     		str	r2, [r3]
 330 0026 BB68     		ldr	r3, [r7, #8]
 331 0028 03F00303 		and	r3, r3, #3
 332 002c 002B     		cmp	r3, #0
 333 002e 06D0     		beq	.L11
 334 0030 094B     		ldr	r3, .L13
 335 0032 4FF48C72 		mov	r2, #280
 336 0036 0949     		ldr	r1, .L13+4
 337 0038 0948     		ldr	r0, .L13+8
 338 003a FFF7FEFF 		bl	printf
 339              	.L11:
 340 003e F868     		ldr	r0, [r7, #12]
 341 0040 FFF7FEFF 		bl	sys_arch_unprotect
 342 0044 BB68     		ldr	r3, [r7, #8]
 343 0046 03E0     		b	.L12
 344              	.L10:
 345 0048 F868     		ldr	r0, [r7, #12]
 346 004a FFF7FEFF 		bl	sys_arch_unprotect
 347 004e 0023     		movs	r3, #0
 348              	.L12:
 349 0050 1846     		mov	r0, r3
ARM GAS  C:\msys64\tmp\ccjQk5mT.s 			page 7


 350 0052 1037     		adds	r7, r7, #16
 351 0054 BD46     		mov	sp, r7
 352              		@ sp needed
 353 0056 80BD     		pop	{r7, pc}
 354              	.L14:
 355              		.align	2
 356              	.L13:
 357 0058 00000000 		.word	.LC0
 358 005c 40000000 		.word	.LC1
 359 0060 64000000 		.word	.LC2
 361              		.section	.rodata
 362              		.align	2
 363              	.LC3:
 364 008c 696E7661 		.ascii	"invalid pool desc\000"
 364      6C696420 
 364      706F6F6C 
 364      20646573 
 364      6300
 365              		.section	.text.memp_malloc_pool,"ax",%progbits
 366              		.align	1
 367              		.global	memp_malloc_pool
 368              		.syntax unified
 369              		.thumb
 370              		.thumb_func
 372              	memp_malloc_pool:
 373              		@ args = 0, pretend = 0, frame = 8
 374              		@ frame_needed = 1, uses_anonymous_args = 0
 375 0000 80B5     		push	{r7, lr}
 376 0002 82B0     		sub	sp, sp, #8
 377 0004 00AF     		add	r7, sp, #0
 378 0006 7860     		str	r0, [r7, #4]
 379 0008 7B68     		ldr	r3, [r7, #4]
 380 000a 002B     		cmp	r3, #0
 381 000c 06D1     		bne	.L16
 382 000e 0A4B     		ldr	r3, .L19
 383 0010 4FF49E72 		mov	r2, #316
 384 0014 0949     		ldr	r1, .L19+4
 385 0016 0A48     		ldr	r0, .L19+8
 386 0018 FFF7FEFF 		bl	printf
 387              	.L16:
 388 001c 7B68     		ldr	r3, [r7, #4]
 389 001e 002B     		cmp	r3, #0
 390 0020 01D1     		bne	.L17
 391 0022 0023     		movs	r3, #0
 392 0024 03E0     		b	.L18
 393              	.L17:
 394 0026 7868     		ldr	r0, [r7, #4]
 395 0028 FFF7FEFF 		bl	do_memp_malloc_pool
 396 002c 0346     		mov	r3, r0
 397              	.L18:
 398 002e 1846     		mov	r0, r3
 399 0030 0837     		adds	r7, r7, #8
 400 0032 BD46     		mov	sp, r7
 401              		@ sp needed
 402 0034 80BD     		pop	{r7, pc}
 403              	.L20:
 404 0036 00BF     		.align	2
ARM GAS  C:\msys64\tmp\ccjQk5mT.s 			page 8


 405              	.L19:
 406 0038 00000000 		.word	.LC0
 407 003c 8C000000 		.word	.LC3
 408 0040 64000000 		.word	.LC2
 410              		.section	.rodata
 411 009e 0000     		.align	2
 412              	.LC4:
 413 00a0 6D656D70 		.ascii	"memp_malloc: type < MEMP_MAX\000"
 413      5F6D616C 
 413      6C6F633A 
 413      20747970 
 413      65203C20 
 414              		.section	.text.memp_malloc,"ax",%progbits
 415              		.align	1
 416              		.global	memp_malloc
 417              		.syntax unified
 418              		.thumb
 419              		.thumb_func
 421              	memp_malloc:
 422              		@ args = 0, pretend = 0, frame = 16
 423              		@ frame_needed = 1, uses_anonymous_args = 0
 424 0000 80B5     		push	{r7, lr}
 425 0002 84B0     		sub	sp, sp, #16
 426 0004 00AF     		add	r7, sp, #0
 427 0006 0346     		mov	r3, r0
 428 0008 FB71     		strb	r3, [r7, #7]
 429 000a FB79     		ldrb	r3, [r7, #7]	@ zero_extendqisi2
 430 000c 062B     		cmp	r3, #6
 431 000e 08D9     		bls	.L22
 432 0010 0A4B     		ldr	r3, .L24
 433 0012 40F25712 		movw	r2, #343
 434 0016 0A49     		ldr	r1, .L24+4
 435 0018 0A48     		ldr	r0, .L24+8
 436 001a FFF7FEFF 		bl	printf
 437 001e 0023     		movs	r3, #0
 438 0020 08E0     		b	.L23
 439              	.L22:
 440 0022 FB79     		ldrb	r3, [r7, #7]	@ zero_extendqisi2
 441 0024 084A     		ldr	r2, .L24+12
 442 0026 52F82330 		ldr	r3, [r2, r3, lsl #2]
 443 002a 1846     		mov	r0, r3
 444 002c FFF7FEFF 		bl	do_memp_malloc_pool
 445 0030 F860     		str	r0, [r7, #12]
 446 0032 FB68     		ldr	r3, [r7, #12]
 447              	.L23:
 448 0034 1846     		mov	r0, r3
 449 0036 1037     		adds	r7, r7, #16
 450 0038 BD46     		mov	sp, r7
 451              		@ sp needed
 452 003a 80BD     		pop	{r7, pc}
 453              	.L25:
 454              		.align	2
 455              	.L24:
 456 003c 00000000 		.word	.LC0
 457 0040 A0000000 		.word	.LC4
 458 0044 64000000 		.word	.LC2
 459 0048 00000000 		.word	memp_pools
ARM GAS  C:\msys64\tmp\ccjQk5mT.s 			page 9


 461              		.section	.rodata
 462 00bd 000000   		.align	2
 463              	.LC5:
 464 00c0 6D656D70 		.ascii	"memp_free: mem properly aligned\000"
 464      5F667265 
 464      653A206D 
 464      656D2070 
 464      726F7065 
 465              		.section	.text.do_memp_free_pool,"ax",%progbits
 466              		.align	1
 467              		.syntax unified
 468              		.thumb
 469              		.thumb_func
 471              	do_memp_free_pool:
 472              		@ args = 0, pretend = 0, frame = 16
 473              		@ frame_needed = 1, uses_anonymous_args = 0
 474 0000 80B5     		push	{r7, lr}
 475 0002 84B0     		sub	sp, sp, #16
 476 0004 00AF     		add	r7, sp, #0
 477 0006 7860     		str	r0, [r7, #4]
 478 0008 3960     		str	r1, [r7]
 479 000a 3B68     		ldr	r3, [r7]
 480 000c 03F00303 		and	r3, r3, #3
 481 0010 002B     		cmp	r3, #0
 482 0012 06D0     		beq	.L27
 483 0014 0D4B     		ldr	r3, .L28
 484 0016 4FF4B672 		mov	r2, #364
 485 001a 0D49     		ldr	r1, .L28+4
 486 001c 0D48     		ldr	r0, .L28+8
 487 001e FFF7FEFF 		bl	printf
 488              	.L27:
 489 0022 3B68     		ldr	r3, [r7]
 490 0024 FB60     		str	r3, [r7, #12]
 491 0026 FFF7FEFF 		bl	sys_arch_protect
 492 002a B860     		str	r0, [r7, #8]
 493 002c 7B68     		ldr	r3, [r7, #4]
 494 002e 9B68     		ldr	r3, [r3, #8]
 495 0030 1A68     		ldr	r2, [r3]
 496 0032 FB68     		ldr	r3, [r7, #12]
 497 0034 1A60     		str	r2, [r3]
 498 0036 7B68     		ldr	r3, [r7, #4]
 499 0038 9B68     		ldr	r3, [r3, #8]
 500 003a FA68     		ldr	r2, [r7, #12]
 501 003c 1A60     		str	r2, [r3]
 502 003e B868     		ldr	r0, [r7, #8]
 503 0040 FFF7FEFF 		bl	sys_arch_unprotect
 504 0044 00BF     		nop
 505 0046 1037     		adds	r7, r7, #16
 506 0048 BD46     		mov	sp, r7
 507              		@ sp needed
 508 004a 80BD     		pop	{r7, pc}
 509              	.L29:
 510              		.align	2
 511              	.L28:
 512 004c 00000000 		.word	.LC0
 513 0050 C0000000 		.word	.LC5
 514 0054 64000000 		.word	.LC2
ARM GAS  C:\msys64\tmp\ccjQk5mT.s 			page 10


 516              		.section	.text.memp_free_pool,"ax",%progbits
 517              		.align	1
 518              		.global	memp_free_pool
 519              		.syntax unified
 520              		.thumb
 521              		.thumb_func
 523              	memp_free_pool:
 524              		@ args = 0, pretend = 0, frame = 8
 525              		@ frame_needed = 1, uses_anonymous_args = 0
 526 0000 80B5     		push	{r7, lr}
 527 0002 82B0     		sub	sp, sp, #8
 528 0004 00AF     		add	r7, sp, #0
 529 0006 7860     		str	r0, [r7, #4]
 530 0008 3960     		str	r1, [r7]
 531 000a 7B68     		ldr	r3, [r7, #4]
 532 000c 002B     		cmp	r3, #0
 533 000e 06D1     		bne	.L31
 534 0010 0A4B     		ldr	r3, .L36
 535 0012 40F29512 		movw	r2, #405
 536 0016 0A49     		ldr	r1, .L36+4
 537 0018 0A48     		ldr	r0, .L36+8
 538 001a FFF7FEFF 		bl	printf
 539              	.L31:
 540 001e 7B68     		ldr	r3, [r7, #4]
 541 0020 002B     		cmp	r3, #0
 542 0022 07D0     		beq	.L35
 543 0024 3B68     		ldr	r3, [r7]
 544 0026 002B     		cmp	r3, #0
 545 0028 04D0     		beq	.L35
 546 002a 3968     		ldr	r1, [r7]
 547 002c 7868     		ldr	r0, [r7, #4]
 548 002e FFF7FEFF 		bl	do_memp_free_pool
 549 0032 00E0     		b	.L30
 550              	.L35:
 551 0034 00BF     		nop
 552              	.L30:
 553 0036 0837     		adds	r7, r7, #8
 554 0038 BD46     		mov	sp, r7
 555              		@ sp needed
 556 003a 80BD     		pop	{r7, pc}
 557              	.L37:
 558              		.align	2
 559              	.L36:
 560 003c 00000000 		.word	.LC0
 561 0040 8C000000 		.word	.LC3
 562 0044 64000000 		.word	.LC2
 564              		.section	.rodata
 565              		.align	2
 566              	.LC6:
 567 00e0 6D656D70 		.ascii	"memp_free: type < MEMP_MAX\000"
 567      5F667265 
 567      653A2074 
 567      79706520 
 567      3C204D45 
 568              		.section	.text.memp_free,"ax",%progbits
 569              		.align	1
 570              		.global	memp_free
ARM GAS  C:\msys64\tmp\ccjQk5mT.s 			page 11


 571              		.syntax unified
 572              		.thumb
 573              		.thumb_func
 575              	memp_free:
 576              		@ args = 0, pretend = 0, frame = 8
 577              		@ frame_needed = 1, uses_anonymous_args = 0
 578 0000 80B5     		push	{r7, lr}
 579 0002 82B0     		sub	sp, sp, #8
 580 0004 00AF     		add	r7, sp, #0
 581 0006 0346     		mov	r3, r0
 582 0008 3960     		str	r1, [r7]
 583 000a FB71     		strb	r3, [r7, #7]
 584 000c FB79     		ldrb	r3, [r7, #7]	@ zero_extendqisi2
 585 000e 062B     		cmp	r3, #6
 586 0010 07D9     		bls	.L39
 587 0012 0C4B     		ldr	r3, .L43
 588 0014 4FF4D572 		mov	r2, #426
 589 0018 0B49     		ldr	r1, .L43+4
 590 001a 0C48     		ldr	r0, .L43+8
 591 001c FFF7FEFF 		bl	printf
 592 0020 0CE0     		b	.L38
 593              	.L39:
 594 0022 3B68     		ldr	r3, [r7]
 595 0024 002B     		cmp	r3, #0
 596 0026 08D0     		beq	.L42
 597 0028 FB79     		ldrb	r3, [r7, #7]	@ zero_extendqisi2
 598 002a 094A     		ldr	r2, .L43+12
 599 002c 52F82330 		ldr	r3, [r2, r3, lsl #2]
 600 0030 3968     		ldr	r1, [r7]
 601 0032 1846     		mov	r0, r3
 602 0034 FFF7FEFF 		bl	do_memp_free_pool
 603 0038 00E0     		b	.L38
 604              	.L42:
 605 003a 00BF     		nop
 606              	.L38:
 607 003c 0837     		adds	r7, r7, #8
 608 003e BD46     		mov	sp, r7
 609              		@ sp needed
 610 0040 80BD     		pop	{r7, pc}
 611              	.L44:
 612 0042 00BF     		.align	2
 613              	.L43:
 614 0044 00000000 		.word	.LC0
 615 0048 E0000000 		.word	.LC6
 616 004c 64000000 		.word	.LC2
 617 0050 00000000 		.word	memp_pools
 619              		.ident	"GCC: (GNU) 13.3.0"
ARM GAS  C:\msys64\tmp\ccjQk5mT.s 			page 12

