ARM GAS  C:\msys64\tmp\ccKDjoLs.s 			page 1


   1              		.cpu cortex-m7
   2              		.arch armv7e-m
   3              		.fpu fpv5-sp-d16
   4              		.eabi_attribute 27, 1
   5              		.eabi_attribute 28, 1
   6              		.eabi_attribute 20, 1
   7              		.eabi_attribute 21, 1
   8              		.eabi_attribute 23, 3
   9              		.eabi_attribute 24, 1
  10              		.eabi_attribute 25, 1
  11              		.eabi_attribute 26, 1
  12              		.eabi_attribute 30, 6
  13              		.eabi_attribute 34, 1
  14              		.eabi_attribute 18, 4
  15              		.file	"heap_4.c"
  16              		.text
  17              		.section	.bss.ucHeap,"aw",%nobits
  18              		.align	2
  21              	ucHeap:
  22 0000 00000000 		.space	32768
  22      00000000 
  22      00000000 
  22      00000000 
  22      00000000 
  23              		.section	.rodata.xHeapStructSize,"a"
  24              		.align	2
  27              	xHeapStructSize:
  28 0000 08000000 		.word	8
  29              		.section	.bss.xStart,"aw",%nobits
  30              		.align	2
  33              	xStart:
  34 0000 00000000 		.space	8
  34      00000000 
  35              		.section	.bss.pxEnd,"aw",%nobits
  36              		.align	2
  39              	pxEnd:
  40 0000 00000000 		.space	4
  41              		.section	.bss.xFreeBytesRemaining,"aw",%nobits
  42              		.align	2
  45              	xFreeBytesRemaining:
  46 0000 00000000 		.space	4
  47              		.section	.bss.xMinimumEverFreeBytesRemaining,"aw",%nobits
  48              		.align	2
  51              	xMinimumEverFreeBytesRemaining:
  52 0000 00000000 		.space	4
  53              		.section	.bss.xNumberOfSuccessfulAllocations,"aw",%nobits
  54              		.align	2
  57              	xNumberOfSuccessfulAllocations:
  58 0000 00000000 		.space	4
  59              		.section	.bss.xNumberOfSuccessfulFrees,"aw",%nobits
  60              		.align	2
  63              	xNumberOfSuccessfulFrees:
  64 0000 00000000 		.space	4
  65              		.section	.text.pvPortMalloc,"ax",%progbits
  66              		.align	1
  67              		.global	pvPortMalloc
  68              		.syntax unified
ARM GAS  C:\msys64\tmp\ccKDjoLs.s 			page 2


  69              		.thumb
  70              		.thumb_func
  72              	pvPortMalloc:
  73              		@ args = 0, pretend = 0, frame = 56
  74              		@ frame_needed = 1, uses_anonymous_args = 0
  75 0000 80B5     		push	{r7, lr}
  76 0002 8EB0     		sub	sp, sp, #56
  77 0004 00AF     		add	r7, sp, #0
  78 0006 7860     		str	r0, [r7, #4]
  79 0008 0023     		movs	r3, #0
  80 000a FB62     		str	r3, [r7, #44]
  81 000c 0023     		movs	r3, #0
  82 000e BB62     		str	r3, [r7, #40]
  83 0010 7B68     		ldr	r3, [r7, #4]
  84 0012 002B     		cmp	r3, #0
  85 0014 22D0     		beq	.L2
  86 0016 0823     		movs	r3, #8
  87 0018 DB43     		mvns	r3, r3
  88 001a 7A68     		ldr	r2, [r7, #4]
  89 001c 9A42     		cmp	r2, r3
  90 001e 1BD8     		bhi	.L3
  91 0020 0822     		movs	r2, #8
  92 0022 7B68     		ldr	r3, [r7, #4]
  93 0024 1344     		add	r3, r3, r2
  94 0026 7B60     		str	r3, [r7, #4]
  95 0028 7B68     		ldr	r3, [r7, #4]
  96 002a 03F00703 		and	r3, r3, #7
  97 002e 002B     		cmp	r3, #0
  98 0030 14D0     		beq	.L2
  99 0032 7B68     		ldr	r3, [r7, #4]
 100 0034 03F00703 		and	r3, r3, #7
 101 0038 C3F10803 		rsb	r3, r3, #8
 102 003c 7B62     		str	r3, [r7, #36]
 103 003e 7B6A     		ldr	r3, [r7, #36]
 104 0040 DB43     		mvns	r3, r3
 105 0042 7A68     		ldr	r2, [r7, #4]
 106 0044 9A42     		cmp	r2, r3
 107 0046 04D8     		bhi	.L4
 108 0048 7A68     		ldr	r2, [r7, #4]
 109 004a 7B6A     		ldr	r3, [r7, #36]
 110 004c 1344     		add	r3, r3, r2
 111 004e 7B60     		str	r3, [r7, #4]
 112 0050 04E0     		b	.L2
 113              	.L4:
 114 0052 0023     		movs	r3, #0
 115 0054 7B60     		str	r3, [r7, #4]
 116 0056 01E0     		b	.L2
 117              	.L3:
 118 0058 0023     		movs	r3, #0
 119 005a 7B60     		str	r3, [r7, #4]
 120              	.L2:
 121 005c FFF7FEFF 		bl	vTaskSuspendAll
 122 0060 824B     		ldr	r3, .L30
 123 0062 1B68     		ldr	r3, [r3]
 124 0064 002B     		cmp	r3, #0
 125 0066 01D1     		bne	.L5
 126 0068 FFF7FEFF 		bl	prvHeapInit
ARM GAS  C:\msys64\tmp\ccKDjoLs.s 			page 3


 127              	.L5:
 128 006c 7B68     		ldr	r3, [r7, #4]
 129 006e 002B     		cmp	r3, #0
 130 0070 C0F2E180 		blt	.L6
 131 0074 7B68     		ldr	r3, [r7, #4]
 132 0076 002B     		cmp	r3, #0
 133 0078 00F0DD80 		beq	.L6
 134 007c 7C4B     		ldr	r3, .L30+4
 135 007e 1B68     		ldr	r3, [r3]
 136 0080 7A68     		ldr	r2, [r7, #4]
 137 0082 9A42     		cmp	r2, r3
 138 0084 00F2D780 		bhi	.L6
 139 0088 7A4B     		ldr	r3, .L30+8
 140 008a 3B63     		str	r3, [r7, #48]
 141 008c 794B     		ldr	r3, .L30+8
 142 008e 1B68     		ldr	r3, [r3]
 143 0090 7B63     		str	r3, [r7, #52]
 144 0092 7B6B     		ldr	r3, [r7, #52]
 145 0094 784A     		ldr	r2, .L30+12
 146 0096 9342     		cmp	r3, r2
 147 0098 05D3     		bcc	.L7
 148 009a 7B6B     		ldr	r3, [r7, #52]
 149 009c 774A     		ldr	r2, .L30+16
 150 009e 9342     		cmp	r3, r2
 151 00a0 01D8     		bhi	.L7
 152 00a2 0123     		movs	r3, #1
 153 00a4 00E0     		b	.L8
 154              	.L7:
 155 00a6 0023     		movs	r3, #0
 156              	.L8:
 157 00a8 002B     		cmp	r3, #0
 158 00aa 2DD1     		bne	.L11
 159              		.syntax unified
 160              	@ 214 "Middlewares/stm32f746_lwip_withos_porting/FreeRTOS/portable/GCC/ARM_CM7/r0p1/portmacro.h" 1
 161 00ac 4FF05003 		   mov r3, #80                                              
 162 00b0 72B6     	   cpsid i                                                 
 163 00b2 83F31188 	   msr basepri, r3                                         
 164 00b6 BFF36F8F 	   isb                                                     
 165 00ba BFF34F8F 	   dsb                                                     
 166 00be 62B6     	   cpsie i                                                 
 167              	
 168              	@ 0 "" 2
 169              		.thumb
 170              		.syntax unified
 171 00c0 FB61     		str	r3, [r7, #28]
 172 00c2 00BF     		nop
 173              	.L10:
 174 00c4 00BF     		nop
 175 00c6 FDE7     		b	.L10
 176              	.L16:
 177 00c8 7B6B     		ldr	r3, [r7, #52]
 178 00ca 3B63     		str	r3, [r7, #48]
 179 00cc 7B6B     		ldr	r3, [r7, #52]
 180 00ce 1B68     		ldr	r3, [r3]
 181 00d0 7B63     		str	r3, [r7, #52]
 182 00d2 7B6B     		ldr	r3, [r7, #52]
 183 00d4 684A     		ldr	r2, .L30+12
ARM GAS  C:\msys64\tmp\ccKDjoLs.s 			page 4


 184 00d6 9342     		cmp	r3, r2
 185 00d8 05D3     		bcc	.L12
 186 00da 7B6B     		ldr	r3, [r7, #52]
 187 00dc 674A     		ldr	r2, .L30+16
 188 00de 9342     		cmp	r3, r2
 189 00e0 01D8     		bhi	.L12
 190 00e2 0123     		movs	r3, #1
 191 00e4 00E0     		b	.L13
 192              	.L12:
 193 00e6 0023     		movs	r3, #0
 194              	.L13:
 195 00e8 002B     		cmp	r3, #0
 196 00ea 0DD1     		bne	.L11
 197              		.syntax unified
 198              	@ 214 "Middlewares/stm32f746_lwip_withos_porting/FreeRTOS/portable/GCC/ARM_CM7/r0p1/portmacro.h" 1
 199 00ec 4FF05003 		   mov r3, #80                                              
 200 00f0 72B6     	   cpsid i                                                 
 201 00f2 83F31188 	   msr basepri, r3                                         
 202 00f6 BFF36F8F 	   isb                                                     
 203 00fa BFF34F8F 	   dsb                                                     
 204 00fe 62B6     	   cpsie i                                                 
 205              	
 206              	@ 0 "" 2
 207              		.thumb
 208              		.syntax unified
 209 0100 BB61     		str	r3, [r7, #24]
 210 0102 00BF     		nop
 211              	.L14:
 212 0104 00BF     		nop
 213 0106 FDE7     		b	.L14
 214              	.L11:
 215 0108 7B6B     		ldr	r3, [r7, #52]
 216 010a 5B68     		ldr	r3, [r3, #4]
 217 010c 7A68     		ldr	r2, [r7, #4]
 218 010e 9A42     		cmp	r2, r3
 219 0110 03D9     		bls	.L15
 220 0112 7B6B     		ldr	r3, [r7, #52]
 221 0114 1B68     		ldr	r3, [r3]
 222 0116 002B     		cmp	r3, #0
 223 0118 D6D1     		bne	.L16
 224              	.L15:
 225 011a 544B     		ldr	r3, .L30
 226 011c 1B68     		ldr	r3, [r3]
 227 011e 7A6B     		ldr	r2, [r7, #52]
 228 0120 9A42     		cmp	r2, r3
 229 0122 00F08880 		beq	.L6
 230 0126 3B6B     		ldr	r3, [r7, #48]
 231 0128 1B68     		ldr	r3, [r3]
 232 012a 0822     		movs	r2, #8
 233 012c 1344     		add	r3, r3, r2
 234 012e FB62     		str	r3, [r7, #44]
 235 0130 FB6A     		ldr	r3, [r7, #44]
 236 0132 514A     		ldr	r2, .L30+12
 237 0134 9342     		cmp	r3, r2
 238 0136 05D3     		bcc	.L17
 239 0138 FB6A     		ldr	r3, [r7, #44]
 240 013a 504A     		ldr	r2, .L30+16
ARM GAS  C:\msys64\tmp\ccKDjoLs.s 			page 5


 241 013c 9342     		cmp	r3, r2
 242 013e 01D8     		bhi	.L17
 243 0140 0123     		movs	r3, #1
 244 0142 00E0     		b	.L18
 245              	.L17:
 246 0144 0023     		movs	r3, #0
 247              	.L18:
 248 0146 002B     		cmp	r3, #0
 249 0148 0DD1     		bne	.L19
 250              		.syntax unified
 251              	@ 214 "Middlewares/stm32f746_lwip_withos_porting/FreeRTOS/portable/GCC/ARM_CM7/r0p1/portmacro.h" 1
 252 014a 4FF05003 		   mov r3, #80                                              
 253 014e 72B6     	   cpsid i                                                 
 254 0150 83F31188 	   msr basepri, r3                                         
 255 0154 BFF36F8F 	   isb                                                     
 256 0158 BFF34F8F 	   dsb                                                     
 257 015c 62B6     	   cpsie i                                                 
 258              	
 259              	@ 0 "" 2
 260              		.thumb
 261              		.syntax unified
 262 015e 7B61     		str	r3, [r7, #20]
 263 0160 00BF     		nop
 264              	.L20:
 265 0162 00BF     		nop
 266 0164 FDE7     		b	.L20
 267              	.L19:
 268 0166 7B6B     		ldr	r3, [r7, #52]
 269 0168 1A68     		ldr	r2, [r3]
 270 016a 3B6B     		ldr	r3, [r7, #48]
 271 016c 1A60     		str	r2, [r3]
 272 016e 7B6B     		ldr	r3, [r7, #52]
 273 0170 5B68     		ldr	r3, [r3, #4]
 274 0172 7A68     		ldr	r2, [r7, #4]
 275 0174 9A42     		cmp	r2, r3
 276 0176 0DD9     		bls	.L21
 277              		.syntax unified
 278              	@ 214 "Middlewares/stm32f746_lwip_withos_porting/FreeRTOS/portable/GCC/ARM_CM7/r0p1/portmacro.h" 1
 279 0178 4FF05003 		   mov r3, #80                                              
 280 017c 72B6     	   cpsid i                                                 
 281 017e 83F31188 	   msr basepri, r3                                         
 282 0182 BFF36F8F 	   isb                                                     
 283 0186 BFF34F8F 	   dsb                                                     
 284 018a 62B6     	   cpsie i                                                 
 285              	
 286              	@ 0 "" 2
 287              		.thumb
 288              		.syntax unified
 289 018c 3B61     		str	r3, [r7, #16]
 290 018e 00BF     		nop
 291              	.L22:
 292 0190 00BF     		nop
 293 0192 FDE7     		b	.L22
 294              	.L21:
 295 0194 7B6B     		ldr	r3, [r7, #52]
 296 0196 5A68     		ldr	r2, [r3, #4]
 297 0198 7B68     		ldr	r3, [r7, #4]
ARM GAS  C:\msys64\tmp\ccKDjoLs.s 			page 6


 298 019a D21A     		subs	r2, r2, r3
 299 019c 0823     		movs	r3, #8
 300 019e 5B00     		lsls	r3, r3, #1
 301 01a0 9A42     		cmp	r2, r3
 302 01a2 26D9     		bls	.L23
 303 01a4 7A6B     		ldr	r2, [r7, #52]
 304 01a6 7B68     		ldr	r3, [r7, #4]
 305 01a8 1344     		add	r3, r3, r2
 306 01aa 3B62     		str	r3, [r7, #32]
 307 01ac 3B6A     		ldr	r3, [r7, #32]
 308 01ae 03F00703 		and	r3, r3, #7
 309 01b2 002B     		cmp	r3, #0
 310 01b4 0DD0     		beq	.L24
 311              		.syntax unified
 312              	@ 214 "Middlewares/stm32f746_lwip_withos_porting/FreeRTOS/portable/GCC/ARM_CM7/r0p1/portmacro.h" 1
 313 01b6 4FF05003 		   mov r3, #80                                              
 314 01ba 72B6     	   cpsid i                                                 
 315 01bc 83F31188 	   msr basepri, r3                                         
 316 01c0 BFF36F8F 	   isb                                                     
 317 01c4 BFF34F8F 	   dsb                                                     
 318 01c8 62B6     	   cpsie i                                                 
 319              	
 320              	@ 0 "" 2
 321              		.thumb
 322              		.syntax unified
 323 01ca FB60     		str	r3, [r7, #12]
 324 01cc 00BF     		nop
 325              	.L25:
 326 01ce 00BF     		nop
 327 01d0 FDE7     		b	.L25
 328              	.L24:
 329 01d2 7B6B     		ldr	r3, [r7, #52]
 330 01d4 5A68     		ldr	r2, [r3, #4]
 331 01d6 7B68     		ldr	r3, [r7, #4]
 332 01d8 D21A     		subs	r2, r2, r3
 333 01da 3B6A     		ldr	r3, [r7, #32]
 334 01dc 5A60     		str	r2, [r3, #4]
 335 01de 7B6B     		ldr	r3, [r7, #52]
 336 01e0 7A68     		ldr	r2, [r7, #4]
 337 01e2 5A60     		str	r2, [r3, #4]
 338 01e4 3B6B     		ldr	r3, [r7, #48]
 339 01e6 1A68     		ldr	r2, [r3]
 340 01e8 3B6A     		ldr	r3, [r7, #32]
 341 01ea 1A60     		str	r2, [r3]
 342 01ec 3B6B     		ldr	r3, [r7, #48]
 343 01ee 3A6A     		ldr	r2, [r7, #32]
 344 01f0 1A60     		str	r2, [r3]
 345              	.L23:
 346 01f2 1F4B     		ldr	r3, .L30+4
 347 01f4 1A68     		ldr	r2, [r3]
 348 01f6 7B6B     		ldr	r3, [r7, #52]
 349 01f8 5B68     		ldr	r3, [r3, #4]
 350 01fa D31A     		subs	r3, r2, r3
 351 01fc 1C4A     		ldr	r2, .L30+4
 352 01fe 1360     		str	r3, [r2]
 353 0200 1B4B     		ldr	r3, .L30+4
 354 0202 1A68     		ldr	r2, [r3]
ARM GAS  C:\msys64\tmp\ccKDjoLs.s 			page 7


 355 0204 1E4B     		ldr	r3, .L30+20
 356 0206 1B68     		ldr	r3, [r3]
 357 0208 9A42     		cmp	r2, r3
 358 020a 03D2     		bcs	.L26
 359 020c 184B     		ldr	r3, .L30+4
 360 020e 1B68     		ldr	r3, [r3]
 361 0210 1B4A     		ldr	r2, .L30+20
 362 0212 1360     		str	r3, [r2]
 363              	.L26:
 364 0214 7B6B     		ldr	r3, [r7, #52]
 365 0216 5B68     		ldr	r3, [r3, #4]
 366 0218 BB62     		str	r3, [r7, #40]
 367 021a 7B6B     		ldr	r3, [r7, #52]
 368 021c 5B68     		ldr	r3, [r3, #4]
 369 021e 43F00042 		orr	r2, r3, #-2147483648
 370 0222 7B6B     		ldr	r3, [r7, #52]
 371 0224 5A60     		str	r2, [r3, #4]
 372 0226 7B6B     		ldr	r3, [r7, #52]
 373 0228 0022     		movs	r2, #0
 374 022a 1A60     		str	r2, [r3]
 375 022c 154B     		ldr	r3, .L30+24
 376 022e 1B68     		ldr	r3, [r3]
 377 0230 0133     		adds	r3, r3, #1
 378 0232 144A     		ldr	r2, .L30+24
 379 0234 1360     		str	r3, [r2]
 380              	.L6:
 381 0236 FFF7FEFF 		bl	xTaskResumeAll
 382 023a FB6A     		ldr	r3, [r7, #44]
 383 023c 03F00703 		and	r3, r3, #7
 384 0240 002B     		cmp	r3, #0
 385 0242 0DD0     		beq	.L27
 386              		.syntax unified
 387              	@ 214 "Middlewares/stm32f746_lwip_withos_porting/FreeRTOS/portable/GCC/ARM_CM7/r0p1/portmacro.h" 1
 388 0244 4FF05003 		   mov r3, #80                                              
 389 0248 72B6     	   cpsid i                                                 
 390 024a 83F31188 	   msr basepri, r3                                         
 391 024e BFF36F8F 	   isb                                                     
 392 0252 BFF34F8F 	   dsb                                                     
 393 0256 62B6     	   cpsie i                                                 
 394              	
 395              	@ 0 "" 2
 396              		.thumb
 397              		.syntax unified
 398 0258 BB60     		str	r3, [r7, #8]
 399 025a 00BF     		nop
 400              	.L28:
 401 025c 00BF     		nop
 402 025e FDE7     		b	.L28
 403              	.L27:
 404 0260 FB6A     		ldr	r3, [r7, #44]
 405 0262 1846     		mov	r0, r3
 406 0264 3837     		adds	r7, r7, #56
 407 0266 BD46     		mov	sp, r7
 408              		@ sp needed
 409 0268 80BD     		pop	{r7, pc}
 410              	.L31:
 411 026a 00BF     		.align	2
ARM GAS  C:\msys64\tmp\ccKDjoLs.s 			page 8


 412              	.L30:
 413 026c 00000000 		.word	pxEnd
 414 0270 00000000 		.word	xFreeBytesRemaining
 415 0274 00000000 		.word	xStart
 416 0278 00000000 		.word	ucHeap
 417 027c FF7F0000 		.word	ucHeap+32767
 418 0280 00000000 		.word	xMinimumEverFreeBytesRemaining
 419 0284 00000000 		.word	xNumberOfSuccessfulAllocations
 421              		.section	.text.vPortFree,"ax",%progbits
 422              		.align	1
 423              		.global	vPortFree
 424              		.syntax unified
 425              		.thumb
 426              		.thumb_func
 428              	vPortFree:
 429              		@ args = 0, pretend = 0, frame = 32
 430              		@ frame_needed = 1, uses_anonymous_args = 0
 431 0000 80B5     		push	{r7, lr}
 432 0002 88B0     		sub	sp, sp, #32
 433 0004 00AF     		add	r7, sp, #0
 434 0006 7860     		str	r0, [r7, #4]
 435 0008 7B68     		ldr	r3, [r7, #4]
 436 000a FB61     		str	r3, [r7, #28]
 437 000c 7B68     		ldr	r3, [r7, #4]
 438 000e 002B     		cmp	r3, #0
 439 0010 66D0     		beq	.L42
 440 0012 0823     		movs	r3, #8
 441 0014 5B42     		rsbs	r3, r3, #0
 442 0016 FA69     		ldr	r2, [r7, #28]
 443 0018 1344     		add	r3, r3, r2
 444 001a FB61     		str	r3, [r7, #28]
 445 001c FB69     		ldr	r3, [r7, #28]
 446 001e BB61     		str	r3, [r7, #24]
 447 0020 BB69     		ldr	r3, [r7, #24]
 448 0022 314A     		ldr	r2, .L43
 449 0024 9342     		cmp	r3, r2
 450 0026 05D3     		bcc	.L34
 451 0028 BB69     		ldr	r3, [r7, #24]
 452 002a 304A     		ldr	r2, .L43+4
 453 002c 9342     		cmp	r3, r2
 454 002e 01D8     		bhi	.L34
 455 0030 0123     		movs	r3, #1
 456 0032 00E0     		b	.L35
 457              	.L34:
 458 0034 0023     		movs	r3, #0
 459              	.L35:
 460 0036 002B     		cmp	r3, #0
 461 0038 0DD1     		bne	.L36
 462              		.syntax unified
 463              	@ 214 "Middlewares/stm32f746_lwip_withos_porting/FreeRTOS/portable/GCC/ARM_CM7/r0p1/portmacro.h" 1
 464 003a 4FF05003 		   mov r3, #80                                              
 465 003e 72B6     	   cpsid i                                                 
 466 0040 83F31188 	   msr basepri, r3                                         
 467 0044 BFF36F8F 	   isb                                                     
 468 0048 BFF34F8F 	   dsb                                                     
 469 004c 62B6     	   cpsie i                                                 
 470              	
ARM GAS  C:\msys64\tmp\ccKDjoLs.s 			page 9


 471              	@ 0 "" 2
 472              		.thumb
 473              		.syntax unified
 474 004e 7B61     		str	r3, [r7, #20]
 475 0050 00BF     		nop
 476              	.L37:
 477 0052 00BF     		nop
 478 0054 FDE7     		b	.L37
 479              	.L36:
 480 0056 BB69     		ldr	r3, [r7, #24]
 481 0058 5B68     		ldr	r3, [r3, #4]
 482 005a 002B     		cmp	r3, #0
 483 005c 0DDB     		blt	.L38
 484              		.syntax unified
 485              	@ 214 "Middlewares/stm32f746_lwip_withos_porting/FreeRTOS/portable/GCC/ARM_CM7/r0p1/portmacro.h" 1
 486 005e 4FF05003 		   mov r3, #80                                              
 487 0062 72B6     	   cpsid i                                                 
 488 0064 83F31188 	   msr basepri, r3                                         
 489 0068 BFF36F8F 	   isb                                                     
 490 006c BFF34F8F 	   dsb                                                     
 491 0070 62B6     	   cpsie i                                                 
 492              	
 493              	@ 0 "" 2
 494              		.thumb
 495              		.syntax unified
 496 0072 3B61     		str	r3, [r7, #16]
 497 0074 00BF     		nop
 498              	.L39:
 499 0076 00BF     		nop
 500 0078 FDE7     		b	.L39
 501              	.L38:
 502 007a BB69     		ldr	r3, [r7, #24]
 503 007c 1B68     		ldr	r3, [r3]
 504 007e 002B     		cmp	r3, #0
 505 0080 0DD0     		beq	.L40
 506              		.syntax unified
 507              	@ 214 "Middlewares/stm32f746_lwip_withos_porting/FreeRTOS/portable/GCC/ARM_CM7/r0p1/portmacro.h" 1
 508 0082 4FF05003 		   mov r3, #80                                              
 509 0086 72B6     	   cpsid i                                                 
 510 0088 83F31188 	   msr basepri, r3                                         
 511 008c BFF36F8F 	   isb                                                     
 512 0090 BFF34F8F 	   dsb                                                     
 513 0094 62B6     	   cpsie i                                                 
 514              	
 515              	@ 0 "" 2
 516              		.thumb
 517              		.syntax unified
 518 0096 FB60     		str	r3, [r7, #12]
 519 0098 00BF     		nop
 520              	.L41:
 521 009a 00BF     		nop
 522 009c FDE7     		b	.L41
 523              	.L40:
 524 009e BB69     		ldr	r3, [r7, #24]
 525 00a0 5B68     		ldr	r3, [r3, #4]
 526 00a2 002B     		cmp	r3, #0
 527 00a4 1CDA     		bge	.L42
ARM GAS  C:\msys64\tmp\ccKDjoLs.s 			page 10


 528 00a6 BB69     		ldr	r3, [r7, #24]
 529 00a8 1B68     		ldr	r3, [r3]
 530 00aa 002B     		cmp	r3, #0
 531 00ac 18D1     		bne	.L42
 532 00ae BB69     		ldr	r3, [r7, #24]
 533 00b0 5B68     		ldr	r3, [r3, #4]
 534 00b2 23F00042 		bic	r2, r3, #-2147483648
 535 00b6 BB69     		ldr	r3, [r7, #24]
 536 00b8 5A60     		str	r2, [r3, #4]
 537 00ba FFF7FEFF 		bl	vTaskSuspendAll
 538 00be BB69     		ldr	r3, [r7, #24]
 539 00c0 5A68     		ldr	r2, [r3, #4]
 540 00c2 0B4B     		ldr	r3, .L43+8
 541 00c4 1B68     		ldr	r3, [r3]
 542 00c6 1344     		add	r3, r3, r2
 543 00c8 094A     		ldr	r2, .L43+8
 544 00ca 1360     		str	r3, [r2]
 545 00cc B869     		ldr	r0, [r7, #24]
 546 00ce FFF7FEFF 		bl	prvInsertBlockIntoFreeList
 547 00d2 084B     		ldr	r3, .L43+12
 548 00d4 1B68     		ldr	r3, [r3]
 549 00d6 0133     		adds	r3, r3, #1
 550 00d8 064A     		ldr	r2, .L43+12
 551 00da 1360     		str	r3, [r2]
 552 00dc FFF7FEFF 		bl	xTaskResumeAll
 553              	.L42:
 554 00e0 00BF     		nop
 555 00e2 2037     		adds	r7, r7, #32
 556 00e4 BD46     		mov	sp, r7
 557              		@ sp needed
 558 00e6 80BD     		pop	{r7, pc}
 559              	.L44:
 560              		.align	2
 561              	.L43:
 562 00e8 00000000 		.word	ucHeap
 563 00ec FF7F0000 		.word	ucHeap+32767
 564 00f0 00000000 		.word	xFreeBytesRemaining
 565 00f4 00000000 		.word	xNumberOfSuccessfulFrees
 567              		.section	.text.xPortGetFreeHeapSize,"ax",%progbits
 568              		.align	1
 569              		.global	xPortGetFreeHeapSize
 570              		.syntax unified
 571              		.thumb
 572              		.thumb_func
 574              	xPortGetFreeHeapSize:
 575              		@ args = 0, pretend = 0, frame = 0
 576              		@ frame_needed = 1, uses_anonymous_args = 0
 577              		@ link register save eliminated.
 578 0000 80B4     		push	{r7}
 579 0002 00AF     		add	r7, sp, #0
 580 0004 034B     		ldr	r3, .L47
 581 0006 1B68     		ldr	r3, [r3]
 582 0008 1846     		mov	r0, r3
 583 000a BD46     		mov	sp, r7
 584              		@ sp needed
 585 000c 5DF8047B 		ldr	r7, [sp], #4
 586 0010 7047     		bx	lr
ARM GAS  C:\msys64\tmp\ccKDjoLs.s 			page 11


 587              	.L48:
 588 0012 00BF     		.align	2
 589              	.L47:
 590 0014 00000000 		.word	xFreeBytesRemaining
 592              		.section	.text.xPortGetMinimumEverFreeHeapSize,"ax",%progbits
 593              		.align	1
 594              		.global	xPortGetMinimumEverFreeHeapSize
 595              		.syntax unified
 596              		.thumb
 597              		.thumb_func
 599              	xPortGetMinimumEverFreeHeapSize:
 600              		@ args = 0, pretend = 0, frame = 0
 601              		@ frame_needed = 1, uses_anonymous_args = 0
 602              		@ link register save eliminated.
 603 0000 80B4     		push	{r7}
 604 0002 00AF     		add	r7, sp, #0
 605 0004 034B     		ldr	r3, .L51
 606 0006 1B68     		ldr	r3, [r3]
 607 0008 1846     		mov	r0, r3
 608 000a BD46     		mov	sp, r7
 609              		@ sp needed
 610 000c 5DF8047B 		ldr	r7, [sp], #4
 611 0010 7047     		bx	lr
 612              	.L52:
 613 0012 00BF     		.align	2
 614              	.L51:
 615 0014 00000000 		.word	xMinimumEverFreeBytesRemaining
 617              		.section	.text.xPortResetHeapMinimumEverFreeHeapSize,"ax",%progbits
 618              		.align	1
 619              		.global	xPortResetHeapMinimumEverFreeHeapSize
 620              		.syntax unified
 621              		.thumb
 622              		.thumb_func
 624              	xPortResetHeapMinimumEverFreeHeapSize:
 625              		@ args = 0, pretend = 0, frame = 0
 626              		@ frame_needed = 1, uses_anonymous_args = 0
 627              		@ link register save eliminated.
 628 0000 80B4     		push	{r7}
 629 0002 00AF     		add	r7, sp, #0
 630 0004 044B     		ldr	r3, .L54
 631 0006 1B68     		ldr	r3, [r3]
 632 0008 044A     		ldr	r2, .L54+4
 633 000a 1360     		str	r3, [r2]
 634 000c 00BF     		nop
 635 000e BD46     		mov	sp, r7
 636              		@ sp needed
 637 0010 5DF8047B 		ldr	r7, [sp], #4
 638 0014 7047     		bx	lr
 639              	.L55:
 640 0016 00BF     		.align	2
 641              	.L54:
 642 0018 00000000 		.word	xFreeBytesRemaining
 643 001c 00000000 		.word	xMinimumEverFreeBytesRemaining
 645              		.section	.text.vPortInitialiseBlocks,"ax",%progbits
 646              		.align	1
 647              		.global	vPortInitialiseBlocks
 648              		.syntax unified
ARM GAS  C:\msys64\tmp\ccKDjoLs.s 			page 12


 649              		.thumb
 650              		.thumb_func
 652              	vPortInitialiseBlocks:
 653              		@ args = 0, pretend = 0, frame = 0
 654              		@ frame_needed = 1, uses_anonymous_args = 0
 655              		@ link register save eliminated.
 656 0000 80B4     		push	{r7}
 657 0002 00AF     		add	r7, sp, #0
 658 0004 00BF     		nop
 659 0006 BD46     		mov	sp, r7
 660              		@ sp needed
 661 0008 5DF8047B 		ldr	r7, [sp], #4
 662 000c 7047     		bx	lr
 664              		.section	.text.pvPortCalloc,"ax",%progbits
 665              		.align	1
 666              		.global	pvPortCalloc
 667              		.syntax unified
 668              		.thumb
 669              		.thumb_func
 671              	pvPortCalloc:
 672              		@ args = 0, pretend = 0, frame = 16
 673              		@ frame_needed = 1, uses_anonymous_args = 0
 674 0000 80B5     		push	{r7, lr}
 675 0002 84B0     		sub	sp, sp, #16
 676 0004 00AF     		add	r7, sp, #0
 677 0006 7860     		str	r0, [r7, #4]
 678 0008 3960     		str	r1, [r7]
 679 000a 0023     		movs	r3, #0
 680 000c FB60     		str	r3, [r7, #12]
 681 000e 7B68     		ldr	r3, [r7, #4]
 682 0010 002B     		cmp	r3, #0
 683 0012 09D0     		beq	.L58
 684 0014 4FF0FF32 		mov	r2, #-1
 685 0018 7B68     		ldr	r3, [r7, #4]
 686 001a B2FBF3F3 		udiv	r3, r2, r3
 687 001e 3A68     		ldr	r2, [r7]
 688 0020 9A42     		cmp	r2, r3
 689 0022 01D9     		bls	.L58
 690 0024 0123     		movs	r3, #1
 691 0026 00E0     		b	.L59
 692              	.L58:
 693 0028 0023     		movs	r3, #0
 694              	.L59:
 695 002a 002B     		cmp	r3, #0
 696 002c 13D1     		bne	.L60
 697 002e 7B68     		ldr	r3, [r7, #4]
 698 0030 3A68     		ldr	r2, [r7]
 699 0032 02FB03F3 		mul	r3, r2, r3
 700 0036 1846     		mov	r0, r3
 701 0038 FFF7FEFF 		bl	pvPortMalloc
 702 003c F860     		str	r0, [r7, #12]
 703 003e FB68     		ldr	r3, [r7, #12]
 704 0040 002B     		cmp	r3, #0
 705 0042 08D0     		beq	.L60
 706 0044 7B68     		ldr	r3, [r7, #4]
 707 0046 3A68     		ldr	r2, [r7]
 708 0048 02FB03F3 		mul	r3, r2, r3
ARM GAS  C:\msys64\tmp\ccKDjoLs.s 			page 13


 709 004c 1A46     		mov	r2, r3
 710 004e 0021     		movs	r1, #0
 711 0050 F868     		ldr	r0, [r7, #12]
 712 0052 FFF7FEFF 		bl	memset
 713              	.L60:
 714 0056 FB68     		ldr	r3, [r7, #12]
 715 0058 1846     		mov	r0, r3
 716 005a 1037     		adds	r7, r7, #16
 717 005c BD46     		mov	sp, r7
 718              		@ sp needed
 719 005e 80BD     		pop	{r7, pc}
 721              		.section	.text.prvHeapInit,"ax",%progbits
 722              		.align	1
 723              		.syntax unified
 724              		.thumb
 725              		.thumb_func
 727              	prvHeapInit:
 728              		@ args = 0, pretend = 0, frame = 16
 729              		@ frame_needed = 1, uses_anonymous_args = 0
 730              		@ link register save eliminated.
 731 0000 80B4     		push	{r7}
 732 0002 85B0     		sub	sp, sp, #20
 733 0004 00AF     		add	r7, sp, #0
 734 0006 4FF40043 		mov	r3, #32768
 735 000a BB60     		str	r3, [r7, #8]
 736 000c 244B     		ldr	r3, .L64
 737 000e FB60     		str	r3, [r7, #12]
 738 0010 FB68     		ldr	r3, [r7, #12]
 739 0012 03F00703 		and	r3, r3, #7
 740 0016 002B     		cmp	r3, #0
 741 0018 0CD0     		beq	.L63
 742 001a FB68     		ldr	r3, [r7, #12]
 743 001c 0733     		adds	r3, r3, #7
 744 001e FB60     		str	r3, [r7, #12]
 745 0020 FB68     		ldr	r3, [r7, #12]
 746 0022 23F00703 		bic	r3, r3, #7
 747 0026 FB60     		str	r3, [r7, #12]
 748 0028 BA68     		ldr	r2, [r7, #8]
 749 002a FB68     		ldr	r3, [r7, #12]
 750 002c D31A     		subs	r3, r2, r3
 751 002e 1C4A     		ldr	r2, .L64
 752 0030 1344     		add	r3, r3, r2
 753 0032 BB60     		str	r3, [r7, #8]
 754              	.L63:
 755 0034 FB68     		ldr	r3, [r7, #12]
 756 0036 1B4A     		ldr	r2, .L64+4
 757 0038 1360     		str	r3, [r2]
 758 003a 1A4B     		ldr	r3, .L64+4
 759 003c 0022     		movs	r2, #0
 760 003e 5A60     		str	r2, [r3, #4]
 761 0040 FA68     		ldr	r2, [r7, #12]
 762 0042 BB68     		ldr	r3, [r7, #8]
 763 0044 1344     		add	r3, r3, r2
 764 0046 7B60     		str	r3, [r7, #4]
 765 0048 0822     		movs	r2, #8
 766 004a 7B68     		ldr	r3, [r7, #4]
 767 004c 9B1A     		subs	r3, r3, r2
ARM GAS  C:\msys64\tmp\ccKDjoLs.s 			page 14


 768 004e 7B60     		str	r3, [r7, #4]
 769 0050 7B68     		ldr	r3, [r7, #4]
 770 0052 23F00703 		bic	r3, r3, #7
 771 0056 7B60     		str	r3, [r7, #4]
 772 0058 7B68     		ldr	r3, [r7, #4]
 773 005a 134A     		ldr	r2, .L64+8
 774 005c 1360     		str	r3, [r2]
 775 005e 124B     		ldr	r3, .L64+8
 776 0060 1B68     		ldr	r3, [r3]
 777 0062 0022     		movs	r2, #0
 778 0064 5A60     		str	r2, [r3, #4]
 779 0066 104B     		ldr	r3, .L64+8
 780 0068 1B68     		ldr	r3, [r3]
 781 006a 0022     		movs	r2, #0
 782 006c 1A60     		str	r2, [r3]
 783 006e FB68     		ldr	r3, [r7, #12]
 784 0070 3B60     		str	r3, [r7]
 785 0072 3B68     		ldr	r3, [r7]
 786 0074 7A68     		ldr	r2, [r7, #4]
 787 0076 D21A     		subs	r2, r2, r3
 788 0078 3B68     		ldr	r3, [r7]
 789 007a 5A60     		str	r2, [r3, #4]
 790 007c 0A4B     		ldr	r3, .L64+8
 791 007e 1A68     		ldr	r2, [r3]
 792 0080 3B68     		ldr	r3, [r7]
 793 0082 1A60     		str	r2, [r3]
 794 0084 3B68     		ldr	r3, [r7]
 795 0086 5B68     		ldr	r3, [r3, #4]
 796 0088 084A     		ldr	r2, .L64+12
 797 008a 1360     		str	r3, [r2]
 798 008c 3B68     		ldr	r3, [r7]
 799 008e 5B68     		ldr	r3, [r3, #4]
 800 0090 074A     		ldr	r2, .L64+16
 801 0092 1360     		str	r3, [r2]
 802 0094 00BF     		nop
 803 0096 1437     		adds	r7, r7, #20
 804 0098 BD46     		mov	sp, r7
 805              		@ sp needed
 806 009a 5DF8047B 		ldr	r7, [sp], #4
 807 009e 7047     		bx	lr
 808              	.L65:
 809              		.align	2
 810              	.L64:
 811 00a0 00000000 		.word	ucHeap
 812 00a4 00000000 		.word	xStart
 813 00a8 00000000 		.word	pxEnd
 814 00ac 00000000 		.word	xMinimumEverFreeBytesRemaining
 815 00b0 00000000 		.word	xFreeBytesRemaining
 817              		.section	.text.prvInsertBlockIntoFreeList,"ax",%progbits
 818              		.align	1
 819              		.syntax unified
 820              		.thumb
 821              		.thumb_func
 823              	prvInsertBlockIntoFreeList:
 824              		@ args = 0, pretend = 0, frame = 24
 825              		@ frame_needed = 1, uses_anonymous_args = 0
 826              		@ link register save eliminated.
ARM GAS  C:\msys64\tmp\ccKDjoLs.s 			page 15


 827 0000 80B4     		push	{r7}
 828 0002 87B0     		sub	sp, sp, #28
 829 0004 00AF     		add	r7, sp, #0
 830 0006 7860     		str	r0, [r7, #4]
 831 0008 374B     		ldr	r3, .L79
 832 000a 7B61     		str	r3, [r7, #20]
 833 000c 02E0     		b	.L67
 834              	.L68:
 835 000e 7B69     		ldr	r3, [r7, #20]
 836 0010 1B68     		ldr	r3, [r3]
 837 0012 7B61     		str	r3, [r7, #20]
 838              	.L67:
 839 0014 7B69     		ldr	r3, [r7, #20]
 840 0016 1B68     		ldr	r3, [r3]
 841 0018 7A68     		ldr	r2, [r7, #4]
 842 001a 9A42     		cmp	r2, r3
 843 001c F7D8     		bhi	.L68
 844 001e 7B69     		ldr	r3, [r7, #20]
 845 0020 314A     		ldr	r2, .L79
 846 0022 9342     		cmp	r3, r2
 847 0024 1AD0     		beq	.L69
 848 0026 7B69     		ldr	r3, [r7, #20]
 849 0028 304A     		ldr	r2, .L79+4
 850 002a 9342     		cmp	r3, r2
 851 002c 05D3     		bcc	.L70
 852 002e 7B69     		ldr	r3, [r7, #20]
 853 0030 2F4A     		ldr	r2, .L79+8
 854 0032 9342     		cmp	r3, r2
 855 0034 01D8     		bhi	.L70
 856 0036 0123     		movs	r3, #1
 857 0038 00E0     		b	.L71
 858              	.L70:
 859 003a 0023     		movs	r3, #0
 860              	.L71:
 861 003c 002B     		cmp	r3, #0
 862 003e 0DD1     		bne	.L69
 863              		.syntax unified
 864              	@ 214 "Middlewares/stm32f746_lwip_withos_porting/FreeRTOS/portable/GCC/ARM_CM7/r0p1/portmacro.h" 1
 865 0040 4FF05003 		   mov r3, #80                                              
 866 0044 72B6     	   cpsid i                                                 
 867 0046 83F31188 	   msr basepri, r3                                         
 868 004a BFF36F8F 	   isb                                                     
 869 004e BFF34F8F 	   dsb                                                     
 870 0052 62B6     	   cpsie i                                                 
 871              	
 872              	@ 0 "" 2
 873              		.thumb
 874              		.syntax unified
 875 0054 FB60     		str	r3, [r7, #12]
 876 0056 00BF     		nop
 877              	.L72:
 878 0058 00BF     		nop
 879 005a FDE7     		b	.L72
 880              	.L69:
 881 005c 7B69     		ldr	r3, [r7, #20]
 882 005e 3B61     		str	r3, [r7, #16]
 883 0060 7B69     		ldr	r3, [r7, #20]
ARM GAS  C:\msys64\tmp\ccKDjoLs.s 			page 16


 884 0062 5B68     		ldr	r3, [r3, #4]
 885 0064 3A69     		ldr	r2, [r7, #16]
 886 0066 1344     		add	r3, r3, r2
 887 0068 7A68     		ldr	r2, [r7, #4]
 888 006a 9A42     		cmp	r2, r3
 889 006c 08D1     		bne	.L73
 890 006e 7B69     		ldr	r3, [r7, #20]
 891 0070 5A68     		ldr	r2, [r3, #4]
 892 0072 7B68     		ldr	r3, [r7, #4]
 893 0074 5B68     		ldr	r3, [r3, #4]
 894 0076 1A44     		add	r2, r2, r3
 895 0078 7B69     		ldr	r3, [r7, #20]
 896 007a 5A60     		str	r2, [r3, #4]
 897 007c 7B69     		ldr	r3, [r7, #20]
 898 007e 7B60     		str	r3, [r7, #4]
 899              	.L73:
 900 0080 7B68     		ldr	r3, [r7, #4]
 901 0082 3B61     		str	r3, [r7, #16]
 902 0084 7B68     		ldr	r3, [r7, #4]
 903 0086 5B68     		ldr	r3, [r3, #4]
 904 0088 3A69     		ldr	r2, [r7, #16]
 905 008a 1A44     		add	r2, r2, r3
 906 008c 7B69     		ldr	r3, [r7, #20]
 907 008e 1B68     		ldr	r3, [r3]
 908 0090 9A42     		cmp	r2, r3
 909 0092 18D1     		bne	.L74
 910 0094 7B69     		ldr	r3, [r7, #20]
 911 0096 1A68     		ldr	r2, [r3]
 912 0098 164B     		ldr	r3, .L79+12
 913 009a 1B68     		ldr	r3, [r3]
 914 009c 9A42     		cmp	r2, r3
 915 009e 0DD0     		beq	.L75
 916 00a0 7B68     		ldr	r3, [r7, #4]
 917 00a2 5A68     		ldr	r2, [r3, #4]
 918 00a4 7B69     		ldr	r3, [r7, #20]
 919 00a6 1B68     		ldr	r3, [r3]
 920 00a8 5B68     		ldr	r3, [r3, #4]
 921 00aa 1A44     		add	r2, r2, r3
 922 00ac 7B68     		ldr	r3, [r7, #4]
 923 00ae 5A60     		str	r2, [r3, #4]
 924 00b0 7B69     		ldr	r3, [r7, #20]
 925 00b2 1B68     		ldr	r3, [r3]
 926 00b4 1A68     		ldr	r2, [r3]
 927 00b6 7B68     		ldr	r3, [r7, #4]
 928 00b8 1A60     		str	r2, [r3]
 929 00ba 08E0     		b	.L76
 930              	.L75:
 931 00bc 0D4B     		ldr	r3, .L79+12
 932 00be 1A68     		ldr	r2, [r3]
 933 00c0 7B68     		ldr	r3, [r7, #4]
 934 00c2 1A60     		str	r2, [r3]
 935 00c4 03E0     		b	.L76
 936              	.L74:
 937 00c6 7B69     		ldr	r3, [r7, #20]
 938 00c8 1A68     		ldr	r2, [r3]
 939 00ca 7B68     		ldr	r3, [r7, #4]
 940 00cc 1A60     		str	r2, [r3]
ARM GAS  C:\msys64\tmp\ccKDjoLs.s 			page 17


 941              	.L76:
 942 00ce 7A69     		ldr	r2, [r7, #20]
 943 00d0 7B68     		ldr	r3, [r7, #4]
 944 00d2 9A42     		cmp	r2, r3
 945 00d4 02D0     		beq	.L78
 946 00d6 7B69     		ldr	r3, [r7, #20]
 947 00d8 7A68     		ldr	r2, [r7, #4]
 948 00da 1A60     		str	r2, [r3]
 949              	.L78:
 950 00dc 00BF     		nop
 951 00de 1C37     		adds	r7, r7, #28
 952 00e0 BD46     		mov	sp, r7
 953              		@ sp needed
 954 00e2 5DF8047B 		ldr	r7, [sp], #4
 955 00e6 7047     		bx	lr
 956              	.L80:
 957              		.align	2
 958              	.L79:
 959 00e8 00000000 		.word	xStart
 960 00ec 00000000 		.word	ucHeap
 961 00f0 FF7F0000 		.word	ucHeap+32767
 962 00f4 00000000 		.word	pxEnd
 964              		.section	.text.vPortGetHeapStats,"ax",%progbits
 965              		.align	1
 966              		.global	vPortGetHeapStats
 967              		.syntax unified
 968              		.thumb
 969              		.thumb_func
 971              	vPortGetHeapStats:
 972              		@ args = 0, pretend = 0, frame = 24
 973              		@ frame_needed = 1, uses_anonymous_args = 0
 974 0000 80B5     		push	{r7, lr}
 975 0002 86B0     		sub	sp, sp, #24
 976 0004 00AF     		add	r7, sp, #0
 977 0006 7860     		str	r0, [r7, #4]
 978 0008 0023     		movs	r3, #0
 979 000a 3B61     		str	r3, [r7, #16]
 980 000c 0023     		movs	r3, #0
 981 000e FB60     		str	r3, [r7, #12]
 982 0010 4FF0FF33 		mov	r3, #-1
 983 0014 BB60     		str	r3, [r7, #8]
 984 0016 FFF7FEFF 		bl	vTaskSuspendAll
 985 001a 224B     		ldr	r3, .L87
 986 001c 1B68     		ldr	r3, [r3]
 987 001e 7B61     		str	r3, [r7, #20]
 988 0020 7B69     		ldr	r3, [r7, #20]
 989 0022 002B     		cmp	r3, #0
 990 0024 1BD0     		beq	.L82
 991 0026 15E0     		b	.L83
 992              	.L86:
 993 0028 3B69     		ldr	r3, [r7, #16]
 994 002a 0133     		adds	r3, r3, #1
 995 002c 3B61     		str	r3, [r7, #16]
 996 002e 7B69     		ldr	r3, [r7, #20]
 997 0030 5B68     		ldr	r3, [r3, #4]
 998 0032 FA68     		ldr	r2, [r7, #12]
 999 0034 9A42     		cmp	r2, r3
ARM GAS  C:\msys64\tmp\ccKDjoLs.s 			page 18


 1000 0036 02D2     		bcs	.L84
 1001 0038 7B69     		ldr	r3, [r7, #20]
 1002 003a 5B68     		ldr	r3, [r3, #4]
 1003 003c FB60     		str	r3, [r7, #12]
 1004              	.L84:
 1005 003e 7B69     		ldr	r3, [r7, #20]
 1006 0040 5B68     		ldr	r3, [r3, #4]
 1007 0042 BA68     		ldr	r2, [r7, #8]
 1008 0044 9A42     		cmp	r2, r3
 1009 0046 02D9     		bls	.L85
 1010 0048 7B69     		ldr	r3, [r7, #20]
 1011 004a 5B68     		ldr	r3, [r3, #4]
 1012 004c BB60     		str	r3, [r7, #8]
 1013              	.L85:
 1014 004e 7B69     		ldr	r3, [r7, #20]
 1015 0050 1B68     		ldr	r3, [r3]
 1016 0052 7B61     		str	r3, [r7, #20]
 1017              	.L83:
 1018 0054 144B     		ldr	r3, .L87+4
 1019 0056 1B68     		ldr	r3, [r3]
 1020 0058 7A69     		ldr	r2, [r7, #20]
 1021 005a 9A42     		cmp	r2, r3
 1022 005c E4D1     		bne	.L86
 1023              	.L82:
 1024 005e FFF7FEFF 		bl	xTaskResumeAll
 1025 0062 7B68     		ldr	r3, [r7, #4]
 1026 0064 FA68     		ldr	r2, [r7, #12]
 1027 0066 5A60     		str	r2, [r3, #4]
 1028 0068 7B68     		ldr	r3, [r7, #4]
 1029 006a BA68     		ldr	r2, [r7, #8]
 1030 006c 9A60     		str	r2, [r3, #8]
 1031 006e 7B68     		ldr	r3, [r7, #4]
 1032 0070 3A69     		ldr	r2, [r7, #16]
 1033 0072 DA60     		str	r2, [r3, #12]
 1034 0074 FFF7FEFF 		bl	vPortEnterCritical
 1035 0078 0C4B     		ldr	r3, .L87+8
 1036 007a 1A68     		ldr	r2, [r3]
 1037 007c 7B68     		ldr	r3, [r7, #4]
 1038 007e 1A60     		str	r2, [r3]
 1039 0080 0B4B     		ldr	r3, .L87+12
 1040 0082 1A68     		ldr	r2, [r3]
 1041 0084 7B68     		ldr	r3, [r7, #4]
 1042 0086 5A61     		str	r2, [r3, #20]
 1043 0088 0A4B     		ldr	r3, .L87+16
 1044 008a 1A68     		ldr	r2, [r3]
 1045 008c 7B68     		ldr	r3, [r7, #4]
 1046 008e 9A61     		str	r2, [r3, #24]
 1047 0090 094B     		ldr	r3, .L87+20
 1048 0092 1A68     		ldr	r2, [r3]
 1049 0094 7B68     		ldr	r3, [r7, #4]
 1050 0096 1A61     		str	r2, [r3, #16]
 1051 0098 FFF7FEFF 		bl	vPortExitCritical
 1052 009c 00BF     		nop
 1053 009e 1837     		adds	r7, r7, #24
 1054 00a0 BD46     		mov	sp, r7
 1055              		@ sp needed
 1056 00a2 80BD     		pop	{r7, pc}
ARM GAS  C:\msys64\tmp\ccKDjoLs.s 			page 19


 1057              	.L88:
 1058              		.align	2
 1059              	.L87:
 1060 00a4 00000000 		.word	xStart
 1061 00a8 00000000 		.word	pxEnd
 1062 00ac 00000000 		.word	xFreeBytesRemaining
 1063 00b0 00000000 		.word	xNumberOfSuccessfulAllocations
 1064 00b4 00000000 		.word	xNumberOfSuccessfulFrees
 1065 00b8 00000000 		.word	xMinimumEverFreeBytesRemaining
 1067              		.section	.text.vPortHeapResetState,"ax",%progbits
 1068              		.align	1
 1069              		.global	vPortHeapResetState
 1070              		.syntax unified
 1071              		.thumb
 1072              		.thumb_func
 1074              	vPortHeapResetState:
 1075              		@ args = 0, pretend = 0, frame = 0
 1076              		@ frame_needed = 1, uses_anonymous_args = 0
 1077              		@ link register save eliminated.
 1078 0000 80B4     		push	{r7}
 1079 0002 00AF     		add	r7, sp, #0
 1080 0004 094B     		ldr	r3, .L90
 1081 0006 0022     		movs	r2, #0
 1082 0008 1A60     		str	r2, [r3]
 1083 000a 094B     		ldr	r3, .L90+4
 1084 000c 0022     		movs	r2, #0
 1085 000e 1A60     		str	r2, [r3]
 1086 0010 084B     		ldr	r3, .L90+8
 1087 0012 0022     		movs	r2, #0
 1088 0014 1A60     		str	r2, [r3]
 1089 0016 084B     		ldr	r3, .L90+12
 1090 0018 0022     		movs	r2, #0
 1091 001a 1A60     		str	r2, [r3]
 1092 001c 074B     		ldr	r3, .L90+16
 1093 001e 0022     		movs	r2, #0
 1094 0020 1A60     		str	r2, [r3]
 1095 0022 00BF     		nop
 1096 0024 BD46     		mov	sp, r7
 1097              		@ sp needed
 1098 0026 5DF8047B 		ldr	r7, [sp], #4
 1099 002a 7047     		bx	lr
 1100              	.L91:
 1101              		.align	2
 1102              	.L90:
 1103 002c 00000000 		.word	pxEnd
 1104 0030 00000000 		.word	xFreeBytesRemaining
 1105 0034 00000000 		.word	xMinimumEverFreeBytesRemaining
 1106 0038 00000000 		.word	xNumberOfSuccessfulAllocations
 1107 003c 00000000 		.word	xNumberOfSuccessfulFrees
 1109              		.ident	"GCC: (GNU) 13.3.0"
ARM GAS  C:\msys64\tmp\ccKDjoLs.s 			page 20

