ARM GAS  C:\msys64\tmp\cc2KM9Cz.s 			page 1


   1              		.cpu cortex-m7
   2              		.arch armv7e-m
   3              		.fpu fpv5-sp-d16
   4              		.eabi_attribute 27, 1
   5              		.eabi_attribute 28, 1
   6              		.eabi_attribute 20, 1
   7              		.eabi_attribute 21, 1
   8              		.eabi_attribute 23, 3
   9              		.eabi_attribute 24, 1
  10              		.eabi_attribute 25, 1
  11              		.eabi_attribute 26, 1
  12              		.eabi_attribute 30, 6
  13              		.eabi_attribute 34, 1
  14              		.eabi_attribute 18, 4
  15              		.file	"tasks.c"
  16              		.text
  17              		.global	pxCurrentTCB
  18              		.section	.bss.pxCurrentTCB,"aw",%nobits
  19              		.align	2
  22              	pxCurrentTCB:
  23 0000 00000000 		.space	4
  24              		.section	.bss.pxReadyTasksLists,"aw",%nobits
  25              		.align	2
  28              	pxReadyTasksLists:
  29 0000 00000000 		.space	140
  29      00000000 
  29      00000000 
  29      00000000 
  29      00000000 
  30              		.section	.bss.xDelayedTaskList1,"aw",%nobits
  31              		.align	2
  34              	xDelayedTaskList1:
  35 0000 00000000 		.space	20
  35      00000000 
  35      00000000 
  35      00000000 
  35      00000000 
  36              		.section	.bss.xDelayedTaskList2,"aw",%nobits
  37              		.align	2
  40              	xDelayedTaskList2:
  41 0000 00000000 		.space	20
  41      00000000 
  41      00000000 
  41      00000000 
  41      00000000 
  42              		.section	.bss.pxDelayedTaskList,"aw",%nobits
  43              		.align	2
  46              	pxDelayedTaskList:
  47 0000 00000000 		.space	4
  48              		.section	.bss.pxOverflowDelayedTaskList,"aw",%nobits
  49              		.align	2
  52              	pxOverflowDelayedTaskList:
  53 0000 00000000 		.space	4
  54              		.section	.bss.xPendingReadyList,"aw",%nobits
  55              		.align	2
  58              	xPendingReadyList:
  59 0000 00000000 		.space	20
ARM GAS  C:\msys64\tmp\cc2KM9Cz.s 			page 2


  59      00000000 
  59      00000000 
  59      00000000 
  59      00000000 
  60              		.section	.bss.xTasksWaitingTermination,"aw",%nobits
  61              		.align	2
  64              	xTasksWaitingTermination:
  65 0000 00000000 		.space	20
  65      00000000 
  65      00000000 
  65      00000000 
  65      00000000 
  66              		.section	.bss.uxDeletedTasksWaitingCleanUp,"aw",%nobits
  67              		.align	2
  70              	uxDeletedTasksWaitingCleanUp:
  71 0000 00000000 		.space	4
  72              		.section	.bss.xSuspendedTaskList,"aw",%nobits
  73              		.align	2
  76              	xSuspendedTaskList:
  77 0000 00000000 		.space	20
  77      00000000 
  77      00000000 
  77      00000000 
  77      00000000 
  78              		.section	.bss.uxCurrentNumberOfTasks,"aw",%nobits
  79              		.align	2
  82              	uxCurrentNumberOfTasks:
  83 0000 00000000 		.space	4
  84              		.section	.bss.xTickCount,"aw",%nobits
  85              		.align	2
  88              	xTickCount:
  89 0000 00000000 		.space	4
  90              		.section	.bss.uxTopReadyPriority,"aw",%nobits
  91              		.align	2
  94              	uxTopReadyPriority:
  95 0000 00000000 		.space	4
  96              		.section	.bss.xSchedulerRunning,"aw",%nobits
  97              		.align	2
 100              	xSchedulerRunning:
 101 0000 00000000 		.space	4
 102              		.section	.bss.xPendedTicks,"aw",%nobits
 103              		.align	2
 106              	xPendedTicks:
 107 0000 00000000 		.space	4
 108              		.section	.bss.xYieldPendings,"aw",%nobits
 109              		.align	2
 112              	xYieldPendings:
 113 0000 00000000 		.space	4
 114              		.section	.bss.xNumOfOverflows,"aw",%nobits
 115              		.align	2
 118              	xNumOfOverflows:
 119 0000 00000000 		.space	4
 120              		.section	.bss.uxTaskNumber,"aw",%nobits
 121              		.align	2
 124              	uxTaskNumber:
 125 0000 00000000 		.space	4
 126              		.section	.bss.xNextTaskUnblockTime,"aw",%nobits
ARM GAS  C:\msys64\tmp\cc2KM9Cz.s 			page 3


 127              		.align	2
 130              	xNextTaskUnblockTime:
 131 0000 00000000 		.space	4
 132              		.section	.bss.xIdleTaskHandles,"aw",%nobits
 133              		.align	2
 136              	xIdleTaskHandles:
 137 0000 00000000 		.space	4
 138              		.section	.rodata.uxTopUsedPriority,"a"
 139              		.align	2
 142              	uxTopUsedPriority:
 143 0000 06000000 		.word	6
 144              		.section	.bss.uxSchedulerSuspended,"aw",%nobits
 145              		.align	2
 148              	uxSchedulerSuspended:
 149 0000 00000000 		.space	4
 150              		.section	.text.prvCreateTask,"ax",%progbits
 151              		.align	1
 152              		.syntax unified
 153              		.thumb
 154              		.thumb_func
 156              	prvCreateTask:
 157              		@ args = 8, pretend = 0, frame = 24
 158              		@ frame_needed = 1, uses_anonymous_args = 0
 159 0000 80B5     		push	{r7, lr}
 160 0002 8AB0     		sub	sp, sp, #40
 161 0004 04AF     		add	r7, sp, #16
 162 0006 F860     		str	r0, [r7, #12]
 163 0008 B960     		str	r1, [r7, #8]
 164 000a 7A60     		str	r2, [r7, #4]
 165 000c 3B60     		str	r3, [r7]
 166 000e 7B68     		ldr	r3, [r7, #4]
 167 0010 9B00     		lsls	r3, r3, #2
 168 0012 1846     		mov	r0, r3
 169 0014 FFF7FEFF 		bl	pvPortMalloc
 170 0018 3861     		str	r0, [r7, #16]
 171 001a 3B69     		ldr	r3, [r7, #16]
 172 001c 002B     		cmp	r3, #0
 173 001e 13D0     		beq	.L2
 174 0020 5820     		movs	r0, #88
 175 0022 FFF7FEFF 		bl	pvPortMalloc
 176 0026 7861     		str	r0, [r7, #20]
 177 0028 7B69     		ldr	r3, [r7, #20]
 178 002a 002B     		cmp	r3, #0
 179 002c 08D0     		beq	.L3
 180 002e 5822     		movs	r2, #88
 181 0030 0021     		movs	r1, #0
 182 0032 7869     		ldr	r0, [r7, #20]
 183 0034 FFF7FEFF 		bl	memset
 184 0038 7B69     		ldr	r3, [r7, #20]
 185 003a 3A69     		ldr	r2, [r7, #16]
 186 003c 1A63     		str	r2, [r3, #48]
 187 003e 05E0     		b	.L4
 188              	.L3:
 189 0040 3869     		ldr	r0, [r7, #16]
 190 0042 FFF7FEFF 		bl	vPortFree
 191 0046 01E0     		b	.L4
 192              	.L2:
ARM GAS  C:\msys64\tmp\cc2KM9Cz.s 			page 4


 193 0048 0023     		movs	r3, #0
 194 004a 7B61     		str	r3, [r7, #20]
 195              	.L4:
 196 004c 7B69     		ldr	r3, [r7, #20]
 197 004e 002B     		cmp	r3, #0
 198 0050 0DD0     		beq	.L5
 199 0052 0023     		movs	r3, #0
 200 0054 0393     		str	r3, [sp, #12]
 201 0056 7B69     		ldr	r3, [r7, #20]
 202 0058 0293     		str	r3, [sp, #8]
 203 005a 7B6A     		ldr	r3, [r7, #36]
 204 005c 0193     		str	r3, [sp, #4]
 205 005e 3B6A     		ldr	r3, [r7, #32]
 206 0060 0093     		str	r3, [sp]
 207 0062 3B68     		ldr	r3, [r7]
 208 0064 7A68     		ldr	r2, [r7, #4]
 209 0066 B968     		ldr	r1, [r7, #8]
 210 0068 F868     		ldr	r0, [r7, #12]
 211 006a FFF7FEFF 		bl	prvInitialiseNewTask
 212              	.L5:
 213 006e 7B69     		ldr	r3, [r7, #20]
 214 0070 1846     		mov	r0, r3
 215 0072 1837     		adds	r7, r7, #24
 216 0074 BD46     		mov	sp, r7
 217              		@ sp needed
 218 0076 80BD     		pop	{r7, pc}
 220              		.section	.text.xTaskCreate,"ax",%progbits
 221              		.align	1
 222              		.global	xTaskCreate
 223              		.syntax unified
 224              		.thumb
 225              		.thumb_func
 227              	xTaskCreate:
 228              		@ args = 8, pretend = 0, frame = 24
 229              		@ frame_needed = 1, uses_anonymous_args = 0
 230 0000 80B5     		push	{r7, lr}
 231 0002 88B0     		sub	sp, sp, #32
 232 0004 02AF     		add	r7, sp, #8
 233 0006 F860     		str	r0, [r7, #12]
 234 0008 B960     		str	r1, [r7, #8]
 235 000a 7A60     		str	r2, [r7, #4]
 236 000c 3B60     		str	r3, [r7]
 237 000e 7B6A     		ldr	r3, [r7, #36]
 238 0010 0193     		str	r3, [sp, #4]
 239 0012 3B6A     		ldr	r3, [r7, #32]
 240 0014 0093     		str	r3, [sp]
 241 0016 3B68     		ldr	r3, [r7]
 242 0018 7A68     		ldr	r2, [r7, #4]
 243 001a B968     		ldr	r1, [r7, #8]
 244 001c F868     		ldr	r0, [r7, #12]
 245 001e FFF7FEFF 		bl	prvCreateTask
 246 0022 3861     		str	r0, [r7, #16]
 247 0024 3B69     		ldr	r3, [r7, #16]
 248 0026 002B     		cmp	r3, #0
 249 0028 05D0     		beq	.L8
 250 002a 3869     		ldr	r0, [r7, #16]
 251 002c FFF7FEFF 		bl	prvAddNewTaskToReadyList
ARM GAS  C:\msys64\tmp\cc2KM9Cz.s 			page 5


 252 0030 0123     		movs	r3, #1
 253 0032 7B61     		str	r3, [r7, #20]
 254 0034 02E0     		b	.L9
 255              	.L8:
 256 0036 4FF0FF33 		mov	r3, #-1
 257 003a 7B61     		str	r3, [r7, #20]
 258              	.L9:
 259 003c 7B69     		ldr	r3, [r7, #20]
 260 003e 1846     		mov	r0, r3
 261 0040 1837     		adds	r7, r7, #24
 262 0042 BD46     		mov	sp, r7
 263              		@ sp needed
 264 0044 80BD     		pop	{r7, pc}
 266              		.section	.text.prvInitialiseNewTask,"ax",%progbits
 267              		.align	1
 268              		.syntax unified
 269              		.thumb
 270              		.thumb_func
 272              	prvInitialiseNewTask:
 273              		@ args = 16, pretend = 0, frame = 32
 274              		@ frame_needed = 1, uses_anonymous_args = 0
 275 0000 80B5     		push	{r7, lr}
 276 0002 88B0     		sub	sp, sp, #32
 277 0004 00AF     		add	r7, sp, #0
 278 0006 F860     		str	r0, [r7, #12]
 279 0008 B960     		str	r1, [r7, #8]
 280 000a 7A60     		str	r2, [r7, #4]
 281 000c 3B60     		str	r3, [r7]
 282 000e 3B6B     		ldr	r3, [r7, #48]
 283 0010 1A6B     		ldr	r2, [r3, #48]
 284 0012 7968     		ldr	r1, [r7, #4]
 285 0014 6FF04043 		mvn	r3, #-1073741824
 286 0018 0B44     		add	r3, r3, r1
 287 001a 9B00     		lsls	r3, r3, #2
 288 001c 1344     		add	r3, r3, r2
 289 001e BB61     		str	r3, [r7, #24]
 290 0020 BB69     		ldr	r3, [r7, #24]
 291 0022 23F00703 		bic	r3, r3, #7
 292 0026 BB61     		str	r3, [r7, #24]
 293 0028 BB69     		ldr	r3, [r7, #24]
 294 002a 03F00703 		and	r3, r3, #7
 295 002e 002B     		cmp	r3, #0
 296 0030 0DD0     		beq	.L12
 297              		.syntax unified
 298              	@ 214 "Middlewares/stm32f746_lwip_withos_porting/FreeRTOS/portable/GCC/ARM_CM7/r0p1/portmacro.h" 1
 299 0032 4FF05003 		   mov r3, #80                                              
 300 0036 72B6     	   cpsid i                                                 
 301 0038 83F31188 	   msr basepri, r3                                         
 302 003c BFF36F8F 	   isb                                                     
 303 0040 BFF34F8F 	   dsb                                                     
 304 0044 62B6     	   cpsie i                                                 
 305              	
 306              	@ 0 "" 2
 307              		.thumb
 308              		.syntax unified
 309 0046 7B61     		str	r3, [r7, #20]
 310 0048 00BF     		nop
ARM GAS  C:\msys64\tmp\cc2KM9Cz.s 			page 6


 311              	.L13:
 312 004a 00BF     		nop
 313 004c FDE7     		b	.L13
 314              	.L12:
 315 004e BB68     		ldr	r3, [r7, #8]
 316 0050 002B     		cmp	r3, #0
 317 0052 1ED0     		beq	.L14
 318 0054 0023     		movs	r3, #0
 319 0056 FB61     		str	r3, [r7, #28]
 320 0058 12E0     		b	.L15
 321              	.L18:
 322 005a BA68     		ldr	r2, [r7, #8]
 323 005c FB69     		ldr	r3, [r7, #28]
 324 005e 1344     		add	r3, r3, r2
 325 0060 1978     		ldrb	r1, [r3]	@ zero_extendqisi2
 326 0062 3A6B     		ldr	r2, [r7, #48]
 327 0064 FB69     		ldr	r3, [r7, #28]
 328 0066 1344     		add	r3, r3, r2
 329 0068 3433     		adds	r3, r3, #52
 330 006a 0A46     		mov	r2, r1
 331 006c 1A70     		strb	r2, [r3]
 332 006e BA68     		ldr	r2, [r7, #8]
 333 0070 FB69     		ldr	r3, [r7, #28]
 334 0072 1344     		add	r3, r3, r2
 335 0074 1B78     		ldrb	r3, [r3]	@ zero_extendqisi2
 336 0076 002B     		cmp	r3, #0
 337 0078 06D0     		beq	.L23
 338 007a FB69     		ldr	r3, [r7, #28]
 339 007c 0133     		adds	r3, r3, #1
 340 007e FB61     		str	r3, [r7, #28]
 341              	.L15:
 342 0080 FB69     		ldr	r3, [r7, #28]
 343 0082 0F2B     		cmp	r3, #15
 344 0084 E9D9     		bls	.L18
 345 0086 00E0     		b	.L17
 346              	.L23:
 347 0088 00BF     		nop
 348              	.L17:
 349 008a 3B6B     		ldr	r3, [r7, #48]
 350 008c 0022     		movs	r2, #0
 351 008e 83F84320 		strb	r2, [r3, #67]
 352              	.L14:
 353 0092 BB6A     		ldr	r3, [r7, #40]
 354 0094 062B     		cmp	r3, #6
 355 0096 0DD9     		bls	.L19
 356              		.syntax unified
 357              	@ 214 "Middlewares/stm32f746_lwip_withos_porting/FreeRTOS/portable/GCC/ARM_CM7/r0p1/portmacro.h" 1
 358 0098 4FF05003 		   mov r3, #80                                              
 359 009c 72B6     	   cpsid i                                                 
 360 009e 83F31188 	   msr basepri, r3                                         
 361 00a2 BFF36F8F 	   isb                                                     
 362 00a6 BFF34F8F 	   dsb                                                     
 363 00aa 62B6     	   cpsie i                                                 
 364              	
 365              	@ 0 "" 2
 366              		.thumb
 367              		.syntax unified
ARM GAS  C:\msys64\tmp\cc2KM9Cz.s 			page 7


 368 00ac 3B61     		str	r3, [r7, #16]
 369 00ae 00BF     		nop
 370              	.L20:
 371 00b0 00BF     		nop
 372 00b2 FDE7     		b	.L20
 373              	.L19:
 374 00b4 BB6A     		ldr	r3, [r7, #40]
 375 00b6 062B     		cmp	r3, #6
 376 00b8 01D9     		bls	.L21
 377 00ba 0623     		movs	r3, #6
 378 00bc BB62     		str	r3, [r7, #40]
 379              	.L21:
 380 00be 3B6B     		ldr	r3, [r7, #48]
 381 00c0 BA6A     		ldr	r2, [r7, #40]
 382 00c2 DA62     		str	r2, [r3, #44]
 383 00c4 3B6B     		ldr	r3, [r7, #48]
 384 00c6 BA6A     		ldr	r2, [r7, #40]
 385 00c8 5A64     		str	r2, [r3, #68]
 386 00ca 3B6B     		ldr	r3, [r7, #48]
 387 00cc 0433     		adds	r3, r3, #4
 388 00ce 1846     		mov	r0, r3
 389 00d0 FFF7FEFF 		bl	vListInitialiseItem
 390 00d4 3B6B     		ldr	r3, [r7, #48]
 391 00d6 1833     		adds	r3, r3, #24
 392 00d8 1846     		mov	r0, r3
 393 00da FFF7FEFF 		bl	vListInitialiseItem
 394 00de 3B6B     		ldr	r3, [r7, #48]
 395 00e0 3A6B     		ldr	r2, [r7, #48]
 396 00e2 1A61     		str	r2, [r3, #16]
 397 00e4 BB6A     		ldr	r3, [r7, #40]
 398 00e6 C3F10702 		rsb	r2, r3, #7
 399 00ea 3B6B     		ldr	r3, [r7, #48]
 400 00ec 9A61     		str	r2, [r3, #24]
 401 00ee 3B6B     		ldr	r3, [r7, #48]
 402 00f0 3A6B     		ldr	r2, [r7, #48]
 403 00f2 5A62     		str	r2, [r3, #36]
 404 00f4 3A68     		ldr	r2, [r7]
 405 00f6 F968     		ldr	r1, [r7, #12]
 406 00f8 B869     		ldr	r0, [r7, #24]
 407 00fa FFF7FEFF 		bl	pxPortInitialiseStack
 408 00fe 0246     		mov	r2, r0
 409 0100 3B6B     		ldr	r3, [r7, #48]
 410 0102 1A60     		str	r2, [r3]
 411 0104 FB6A     		ldr	r3, [r7, #44]
 412 0106 002B     		cmp	r3, #0
 413 0108 02D0     		beq	.L24
 414 010a FB6A     		ldr	r3, [r7, #44]
 415 010c 3A6B     		ldr	r2, [r7, #48]
 416 010e 1A60     		str	r2, [r3]
 417              	.L24:
 418 0110 00BF     		nop
 419 0112 2037     		adds	r7, r7, #32
 420 0114 BD46     		mov	sp, r7
 421              		@ sp needed
 422 0116 80BD     		pop	{r7, pc}
 424              		.section	.text.prvAddNewTaskToReadyList,"ax",%progbits
 425              		.align	1
ARM GAS  C:\msys64\tmp\cc2KM9Cz.s 			page 8


 426              		.syntax unified
 427              		.thumb
 428              		.thumb_func
 430              	prvAddNewTaskToReadyList:
 431              		@ args = 0, pretend = 0, frame = 16
 432              		@ frame_needed = 1, uses_anonymous_args = 0
 433 0000 80B5     		push	{r7, lr}
 434 0002 84B0     		sub	sp, sp, #16
 435 0004 00AF     		add	r7, sp, #0
 436 0006 7860     		str	r0, [r7, #4]
 437 0008 FFF7FEFF 		bl	vPortEnterCritical
 438 000c 3F4B     		ldr	r3, .L30
 439 000e 1B68     		ldr	r3, [r3]
 440 0010 0133     		adds	r3, r3, #1
 441 0012 3E4A     		ldr	r2, .L30
 442 0014 1360     		str	r3, [r2]
 443 0016 3E4B     		ldr	r3, .L30+4
 444 0018 1B68     		ldr	r3, [r3]
 445 001a 002B     		cmp	r3, #0
 446 001c 09D1     		bne	.L26
 447 001e 3C4A     		ldr	r2, .L30+4
 448 0020 7B68     		ldr	r3, [r7, #4]
 449 0022 1360     		str	r3, [r2]
 450 0024 394B     		ldr	r3, .L30
 451 0026 1B68     		ldr	r3, [r3]
 452 0028 012B     		cmp	r3, #1
 453 002a 10D1     		bne	.L27
 454 002c FFF7FEFF 		bl	prvInitialiseTaskLists
 455 0030 0DE0     		b	.L27
 456              	.L26:
 457 0032 384B     		ldr	r3, .L30+8
 458 0034 1B68     		ldr	r3, [r3]
 459 0036 002B     		cmp	r3, #0
 460 0038 09D1     		bne	.L27
 461 003a 354B     		ldr	r3, .L30+4
 462 003c 1B68     		ldr	r3, [r3]
 463 003e DA6A     		ldr	r2, [r3, #44]
 464 0040 7B68     		ldr	r3, [r7, #4]
 465 0042 DB6A     		ldr	r3, [r3, #44]
 466 0044 9A42     		cmp	r2, r3
 467 0046 02D8     		bhi	.L27
 468 0048 314A     		ldr	r2, .L30+4
 469 004a 7B68     		ldr	r3, [r7, #4]
 470 004c 1360     		str	r3, [r2]
 471              	.L27:
 472 004e 324B     		ldr	r3, .L30+12
 473 0050 1B68     		ldr	r3, [r3]
 474 0052 0133     		adds	r3, r3, #1
 475 0054 304A     		ldr	r2, .L30+12
 476 0056 1360     		str	r3, [r2]
 477 0058 7B68     		ldr	r3, [r7, #4]
 478 005a DB6A     		ldr	r3, [r3, #44]
 479 005c 0122     		movs	r2, #1
 480 005e 9A40     		lsls	r2, r2, r3
 481 0060 2E4B     		ldr	r3, .L30+16
 482 0062 1B68     		ldr	r3, [r3]
 483 0064 1343     		orrs	r3, r3, r2
ARM GAS  C:\msys64\tmp\cc2KM9Cz.s 			page 9


 484 0066 2D4A     		ldr	r2, .L30+16
 485 0068 1360     		str	r3, [r2]
 486 006a 7B68     		ldr	r3, [r7, #4]
 487 006c DA6A     		ldr	r2, [r3, #44]
 488 006e 2C49     		ldr	r1, .L30+20
 489 0070 1346     		mov	r3, r2
 490 0072 9B00     		lsls	r3, r3, #2
 491 0074 1344     		add	r3, r3, r2
 492 0076 9B00     		lsls	r3, r3, #2
 493 0078 0B44     		add	r3, r3, r1
 494 007a 0433     		adds	r3, r3, #4
 495 007c 1B68     		ldr	r3, [r3]
 496 007e FB60     		str	r3, [r7, #12]
 497 0080 7B68     		ldr	r3, [r7, #4]
 498 0082 FA68     		ldr	r2, [r7, #12]
 499 0084 9A60     		str	r2, [r3, #8]
 500 0086 FB68     		ldr	r3, [r7, #12]
 501 0088 9A68     		ldr	r2, [r3, #8]
 502 008a 7B68     		ldr	r3, [r7, #4]
 503 008c DA60     		str	r2, [r3, #12]
 504 008e FB68     		ldr	r3, [r7, #12]
 505 0090 9B68     		ldr	r3, [r3, #8]
 506 0092 7A68     		ldr	r2, [r7, #4]
 507 0094 0432     		adds	r2, r2, #4
 508 0096 5A60     		str	r2, [r3, #4]
 509 0098 7B68     		ldr	r3, [r7, #4]
 510 009a 1A1D     		adds	r2, r3, #4
 511 009c FB68     		ldr	r3, [r7, #12]
 512 009e 9A60     		str	r2, [r3, #8]
 513 00a0 7B68     		ldr	r3, [r7, #4]
 514 00a2 DA6A     		ldr	r2, [r3, #44]
 515 00a4 1346     		mov	r3, r2
 516 00a6 9B00     		lsls	r3, r3, #2
 517 00a8 1344     		add	r3, r3, r2
 518 00aa 9B00     		lsls	r3, r3, #2
 519 00ac 1C4A     		ldr	r2, .L30+20
 520 00ae 1A44     		add	r2, r2, r3
 521 00b0 7B68     		ldr	r3, [r7, #4]
 522 00b2 5A61     		str	r2, [r3, #20]
 523 00b4 7B68     		ldr	r3, [r7, #4]
 524 00b6 DA6A     		ldr	r2, [r3, #44]
 525 00b8 1949     		ldr	r1, .L30+20
 526 00ba 1346     		mov	r3, r2
 527 00bc 9B00     		lsls	r3, r3, #2
 528 00be 1344     		add	r3, r3, r2
 529 00c0 9B00     		lsls	r3, r3, #2
 530 00c2 0B44     		add	r3, r3, r1
 531 00c4 1B68     		ldr	r3, [r3]
 532 00c6 7A68     		ldr	r2, [r7, #4]
 533 00c8 D26A     		ldr	r2, [r2, #44]
 534 00ca 591C     		adds	r1, r3, #1
 535 00cc 1448     		ldr	r0, .L30+20
 536 00ce 1346     		mov	r3, r2
 537 00d0 9B00     		lsls	r3, r3, #2
 538 00d2 1344     		add	r3, r3, r2
 539 00d4 9B00     		lsls	r3, r3, #2
 540 00d6 0344     		add	r3, r3, r0
ARM GAS  C:\msys64\tmp\cc2KM9Cz.s 			page 10


 541 00d8 1960     		str	r1, [r3]
 542 00da FFF7FEFF 		bl	vPortExitCritical
 543 00de 0D4B     		ldr	r3, .L30+8
 544 00e0 1B68     		ldr	r3, [r3]
 545 00e2 002B     		cmp	r3, #0
 546 00e4 0ED0     		beq	.L29
 547 00e6 0A4B     		ldr	r3, .L30+4
 548 00e8 1B68     		ldr	r3, [r3]
 549 00ea DA6A     		ldr	r2, [r3, #44]
 550 00ec 7B68     		ldr	r3, [r7, #4]
 551 00ee DB6A     		ldr	r3, [r3, #44]
 552 00f0 9A42     		cmp	r2, r3
 553 00f2 07D2     		bcs	.L29
 554 00f4 0B4B     		ldr	r3, .L30+24
 555 00f6 4FF08052 		mov	r2, #268435456
 556 00fa 1A60     		str	r2, [r3]
 557              		.syntax unified
 558              	@ 2109 "Middlewares/stm32f746_lwip_withos_porting/FreeRTOS/Core/Src/tasks.c" 1
 559 00fc BFF34F8F 		dsb
 560              	@ 0 "" 2
 561              	@ 2109 "Middlewares/stm32f746_lwip_withos_porting/FreeRTOS/Core/Src/tasks.c" 1
 562 0100 BFF36F8F 		isb
 563              	@ 0 "" 2
 564              		.thumb
 565              		.syntax unified
 566              	.L29:
 567 0104 00BF     		nop
 568 0106 1037     		adds	r7, r7, #16
 569 0108 BD46     		mov	sp, r7
 570              		@ sp needed
 571 010a 80BD     		pop	{r7, pc}
 572              	.L31:
 573              		.align	2
 574              	.L30:
 575 010c 00000000 		.word	uxCurrentNumberOfTasks
 576 0110 00000000 		.word	pxCurrentTCB
 577 0114 00000000 		.word	xSchedulerRunning
 578 0118 00000000 		.word	uxTaskNumber
 579 011c 00000000 		.word	uxTopReadyPriority
 580 0120 00000000 		.word	pxReadyTasksLists
 581 0124 04ED00E0 		.word	-536810236
 583              		.section	.text.vTaskDelete,"ax",%progbits
 584              		.align	1
 585              		.global	vTaskDelete
 586              		.syntax unified
 587              		.thumb
 588              		.thumb_func
 590              	vTaskDelete:
 591              		@ args = 0, pretend = 0, frame = 32
 592              		@ frame_needed = 1, uses_anonymous_args = 0
 593 0000 80B5     		push	{r7, lr}
 594 0002 88B0     		sub	sp, sp, #32
 595 0004 00AF     		add	r7, sp, #0
 596 0006 7860     		str	r0, [r7, #4]
 597 0008 0023     		movs	r3, #0
 598 000a FB61     		str	r3, [r7, #28]
 599 000c FFF7FEFF 		bl	vPortEnterCritical
ARM GAS  C:\msys64\tmp\cc2KM9Cz.s 			page 11


 600 0010 7B68     		ldr	r3, [r7, #4]
 601 0012 002B     		cmp	r3, #0
 602 0014 02D1     		bne	.L33
 603 0016 4B4B     		ldr	r3, .L48
 604 0018 1B68     		ldr	r3, [r3]
 605 001a 00E0     		b	.L34
 606              	.L33:
 607 001c 7B68     		ldr	r3, [r7, #4]
 608              	.L34:
 609 001e BB61     		str	r3, [r7, #24]
 610 0020 BB69     		ldr	r3, [r7, #24]
 611 0022 002B     		cmp	r3, #0
 612 0024 0DD1     		bne	.L35
 613              		.syntax unified
 614              	@ 214 "Middlewares/stm32f746_lwip_withos_porting/FreeRTOS/portable/GCC/ARM_CM7/r0p1/portmacro.h" 1
 615 0026 4FF05003 		   mov r3, #80                                              
 616 002a 72B6     	   cpsid i                                                 
 617 002c 83F31188 	   msr basepri, r3                                         
 618 0030 BFF36F8F 	   isb                                                     
 619 0034 BFF34F8F 	   dsb                                                     
 620 0038 62B6     	   cpsie i                                                 
 621              	
 622              	@ 0 "" 2
 623              		.thumb
 624              		.syntax unified
 625 003a 3B61     		str	r3, [r7, #16]
 626 003c 00BF     		nop
 627              	.L36:
 628 003e 00BF     		nop
 629 0040 FDE7     		b	.L36
 630              	.L35:
 631 0042 BB69     		ldr	r3, [r7, #24]
 632 0044 0433     		adds	r3, r3, #4
 633 0046 1846     		mov	r0, r3
 634 0048 FFF7FEFF 		bl	uxListRemove
 635 004c 0346     		mov	r3, r0
 636 004e 002B     		cmp	r3, #0
 637 0050 15D1     		bne	.L37
 638 0052 BB69     		ldr	r3, [r7, #24]
 639 0054 DA6A     		ldr	r2, [r3, #44]
 640 0056 3C49     		ldr	r1, .L48+4
 641 0058 1346     		mov	r3, r2
 642 005a 9B00     		lsls	r3, r3, #2
 643 005c 1344     		add	r3, r3, r2
 644 005e 9B00     		lsls	r3, r3, #2
 645 0060 0B44     		add	r3, r3, r1
 646 0062 1B68     		ldr	r3, [r3]
 647 0064 002B     		cmp	r3, #0
 648 0066 0AD1     		bne	.L37
 649 0068 BB69     		ldr	r3, [r7, #24]
 650 006a DB6A     		ldr	r3, [r3, #44]
 651 006c 0122     		movs	r2, #1
 652 006e 02FA03F3 		lsl	r3, r2, r3
 653 0072 DA43     		mvns	r2, r3
 654 0074 354B     		ldr	r3, .L48+8
 655 0076 1B68     		ldr	r3, [r3]
 656 0078 1340     		ands	r3, r3, r2
ARM GAS  C:\msys64\tmp\cc2KM9Cz.s 			page 12


 657 007a 344A     		ldr	r2, .L48+8
 658 007c 1360     		str	r3, [r2]
 659              	.L37:
 660 007e BB69     		ldr	r3, [r7, #24]
 661 0080 9B6A     		ldr	r3, [r3, #40]
 662 0082 002B     		cmp	r3, #0
 663 0084 04D0     		beq	.L38
 664 0086 BB69     		ldr	r3, [r7, #24]
 665 0088 1833     		adds	r3, r3, #24
 666 008a 1846     		mov	r0, r3
 667 008c FFF7FEFF 		bl	uxListRemove
 668              	.L38:
 669 0090 2F4B     		ldr	r3, .L48+12
 670 0092 1B68     		ldr	r3, [r3]
 671 0094 0133     		adds	r3, r3, #1
 672 0096 2E4A     		ldr	r2, .L48+12
 673 0098 1360     		str	r3, [r2]
 674 009a 2A4B     		ldr	r3, .L48
 675 009c 1B68     		ldr	r3, [r3]
 676 009e BA69     		ldr	r2, [r7, #24]
 677 00a0 9A42     		cmp	r2, r3
 678 00a2 01D1     		bne	.L39
 679 00a4 0123     		movs	r3, #1
 680 00a6 00E0     		b	.L40
 681              	.L39:
 682 00a8 0023     		movs	r3, #0
 683              	.L40:
 684 00aa 7B61     		str	r3, [r7, #20]
 685 00ac 294B     		ldr	r3, .L48+16
 686 00ae 1B68     		ldr	r3, [r3]
 687 00b0 002B     		cmp	r3, #0
 688 00b2 10D0     		beq	.L41
 689 00b4 7B69     		ldr	r3, [r7, #20]
 690 00b6 002B     		cmp	r3, #0
 691 00b8 0DD0     		beq	.L41
 692 00ba BB69     		ldr	r3, [r7, #24]
 693 00bc 0433     		adds	r3, r3, #4
 694 00be 1946     		mov	r1, r3
 695 00c0 2548     		ldr	r0, .L48+20
 696 00c2 FFF7FEFF 		bl	vListInsertEnd
 697 00c6 254B     		ldr	r3, .L48+24
 698 00c8 1B68     		ldr	r3, [r3]
 699 00ca 0133     		adds	r3, r3, #1
 700 00cc 234A     		ldr	r2, .L48+24
 701 00ce 1360     		str	r3, [r2]
 702 00d0 0123     		movs	r3, #1
 703 00d2 FB61     		str	r3, [r7, #28]
 704 00d4 06E0     		b	.L42
 705              	.L41:
 706 00d6 224B     		ldr	r3, .L48+28
 707 00d8 1B68     		ldr	r3, [r3]
 708 00da 013B     		subs	r3, r3, #1
 709 00dc 204A     		ldr	r2, .L48+28
 710 00de 1360     		str	r3, [r2]
 711 00e0 FFF7FEFF 		bl	prvResetNextTaskUnblockTime
 712              	.L42:
 713 00e4 FFF7FEFF 		bl	vPortExitCritical
ARM GAS  C:\msys64\tmp\cc2KM9Cz.s 			page 13


 714 00e8 FB69     		ldr	r3, [r7, #28]
 715 00ea 012B     		cmp	r3, #1
 716 00ec 02D0     		beq	.L43
 717 00ee B869     		ldr	r0, [r7, #24]
 718 00f0 FFF7FEFF 		bl	prvDeleteTCB
 719              	.L43:
 720 00f4 174B     		ldr	r3, .L48+16
 721 00f6 1B68     		ldr	r3, [r3]
 722 00f8 002B     		cmp	r3, #0
 723 00fa 1ED0     		beq	.L47
 724 00fc 114B     		ldr	r3, .L48
 725 00fe 1B68     		ldr	r3, [r3]
 726 0100 BA69     		ldr	r2, [r7, #24]
 727 0102 9A42     		cmp	r2, r3
 728 0104 19D1     		bne	.L47
 729 0106 174B     		ldr	r3, .L48+32
 730 0108 1B68     		ldr	r3, [r3]
 731 010a 002B     		cmp	r3, #0
 732 010c 0DD0     		beq	.L45
 733              		.syntax unified
 734              	@ 214 "Middlewares/stm32f746_lwip_withos_porting/FreeRTOS/portable/GCC/ARM_CM7/r0p1/portmacro.h" 1
 735 010e 4FF05003 		   mov r3, #80                                              
 736 0112 72B6     	   cpsid i                                                 
 737 0114 83F31188 	   msr basepri, r3                                         
 738 0118 BFF36F8F 	   isb                                                     
 739 011c BFF34F8F 	   dsb                                                     
 740 0120 62B6     	   cpsie i                                                 
 741              	
 742              	@ 0 "" 2
 743              		.thumb
 744              		.syntax unified
 745 0122 FB60     		str	r3, [r7, #12]
 746 0124 00BF     		nop
 747              	.L46:
 748 0126 00BF     		nop
 749 0128 FDE7     		b	.L46
 750              	.L45:
 751 012a 0F4B     		ldr	r3, .L48+36
 752 012c 4FF08052 		mov	r2, #268435456
 753 0130 1A60     		str	r2, [r3]
 754              		.syntax unified
 755              	@ 2348 "Middlewares/stm32f746_lwip_withos_porting/FreeRTOS/Core/Src/tasks.c" 1
 756 0132 BFF34F8F 		dsb
 757              	@ 0 "" 2
 758              	@ 2348 "Middlewares/stm32f746_lwip_withos_porting/FreeRTOS/Core/Src/tasks.c" 1
 759 0136 BFF36F8F 		isb
 760              	@ 0 "" 2
 761              		.thumb
 762              		.syntax unified
 763              	.L47:
 764 013a 00BF     		nop
 765 013c 2037     		adds	r7, r7, #32
 766 013e BD46     		mov	sp, r7
 767              		@ sp needed
 768 0140 80BD     		pop	{r7, pc}
 769              	.L49:
 770 0142 00BF     		.align	2
ARM GAS  C:\msys64\tmp\cc2KM9Cz.s 			page 14


 771              	.L48:
 772 0144 00000000 		.word	pxCurrentTCB
 773 0148 00000000 		.word	pxReadyTasksLists
 774 014c 00000000 		.word	uxTopReadyPriority
 775 0150 00000000 		.word	uxTaskNumber
 776 0154 00000000 		.word	xSchedulerRunning
 777 0158 00000000 		.word	xTasksWaitingTermination
 778 015c 00000000 		.word	uxDeletedTasksWaitingCleanUp
 779 0160 00000000 		.word	uxCurrentNumberOfTasks
 780 0164 00000000 		.word	uxSchedulerSuspended
 781 0168 04ED00E0 		.word	-536810236
 783              		.section	.text.vTaskDelay,"ax",%progbits
 784              		.align	1
 785              		.global	vTaskDelay
 786              		.syntax unified
 787              		.thumb
 788              		.thumb_func
 790              	vTaskDelay:
 791              		@ args = 0, pretend = 0, frame = 16
 792              		@ frame_needed = 1, uses_anonymous_args = 0
 793 0000 80B5     		push	{r7, lr}
 794 0002 84B0     		sub	sp, sp, #16
 795 0004 00AF     		add	r7, sp, #0
 796 0006 7860     		str	r0, [r7, #4]
 797 0008 0023     		movs	r3, #0
 798 000a FB60     		str	r3, [r7, #12]
 799 000c 7B68     		ldr	r3, [r7, #4]
 800 000e 002B     		cmp	r3, #0
 801 0010 1AD0     		beq	.L51
 802 0012 FFF7FEFF 		bl	vTaskSuspendAll
 803 0016 144B     		ldr	r3, .L56
 804 0018 1B68     		ldr	r3, [r3]
 805 001a 012B     		cmp	r3, #1
 806 001c 0DD0     		beq	.L52
 807              		.syntax unified
 808              	@ 214 "Middlewares/stm32f746_lwip_withos_porting/FreeRTOS/portable/GCC/ARM_CM7/r0p1/portmacro.h" 1
 809 001e 4FF05003 		   mov r3, #80                                              
 810 0022 72B6     	   cpsid i                                                 
 811 0024 83F31188 	   msr basepri, r3                                         
 812 0028 BFF36F8F 	   isb                                                     
 813 002c BFF34F8F 	   dsb                                                     
 814 0030 62B6     	   cpsie i                                                 
 815              	
 816              	@ 0 "" 2
 817              		.thumb
 818              		.syntax unified
 819 0032 BB60     		str	r3, [r7, #8]
 820 0034 00BF     		nop
 821              	.L53:
 822 0036 00BF     		nop
 823 0038 FDE7     		b	.L53
 824              	.L52:
 825 003a 0021     		movs	r1, #0
 826 003c 7868     		ldr	r0, [r7, #4]
 827 003e FFF7FEFF 		bl	prvAddCurrentTaskToDelayedList
 828 0042 FFF7FEFF 		bl	xTaskResumeAll
 829 0046 F860     		str	r0, [r7, #12]
ARM GAS  C:\msys64\tmp\cc2KM9Cz.s 			page 15


 830              	.L51:
 831 0048 FB68     		ldr	r3, [r7, #12]
 832 004a 002B     		cmp	r3, #0
 833 004c 07D1     		bne	.L55
 834 004e 074B     		ldr	r3, .L56+4
 835 0050 4FF08052 		mov	r2, #268435456
 836 0054 1A60     		str	r2, [r3]
 837              		.syntax unified
 838              	@ 2493 "Middlewares/stm32f746_lwip_withos_porting/FreeRTOS/Core/Src/tasks.c" 1
 839 0056 BFF34F8F 		dsb
 840              	@ 0 "" 2
 841              	@ 2493 "Middlewares/stm32f746_lwip_withos_porting/FreeRTOS/Core/Src/tasks.c" 1
 842 005a BFF36F8F 		isb
 843              	@ 0 "" 2
 844              		.thumb
 845              		.syntax unified
 846              	.L55:
 847 005e 00BF     		nop
 848 0060 1037     		adds	r7, r7, #16
 849 0062 BD46     		mov	sp, r7
 850              		@ sp needed
 851 0064 80BD     		pop	{r7, pc}
 852              	.L57:
 853 0066 00BF     		.align	2
 854              	.L56:
 855 0068 00000000 		.word	uxSchedulerSuspended
 856 006c 04ED00E0 		.word	-536810236
 858              		.section	.text.uxTaskPriorityGet,"ax",%progbits
 859              		.align	1
 860              		.global	uxTaskPriorityGet
 861              		.syntax unified
 862              		.thumb
 863              		.thumb_func
 865              	uxTaskPriorityGet:
 866              		@ args = 0, pretend = 0, frame = 24
 867              		@ frame_needed = 1, uses_anonymous_args = 0
 868 0000 80B5     		push	{r7, lr}
 869 0002 86B0     		sub	sp, sp, #24
 870 0004 00AF     		add	r7, sp, #0
 871 0006 7860     		str	r0, [r7, #4]
 872 0008 FFF7FEFF 		bl	vPortEnterCritical
 873 000c 7B68     		ldr	r3, [r7, #4]
 874 000e 002B     		cmp	r3, #0
 875 0010 02D1     		bne	.L59
 876 0012 104B     		ldr	r3, .L64
 877 0014 1B68     		ldr	r3, [r3]
 878 0016 00E0     		b	.L60
 879              	.L59:
 880 0018 7B68     		ldr	r3, [r7, #4]
 881              	.L60:
 882 001a 7B61     		str	r3, [r7, #20]
 883 001c 7B69     		ldr	r3, [r7, #20]
 884 001e 002B     		cmp	r3, #0
 885 0020 0DD1     		bne	.L61
 886              		.syntax unified
 887              	@ 214 "Middlewares/stm32f746_lwip_withos_porting/FreeRTOS/portable/GCC/ARM_CM7/r0p1/portmacro.h" 1
 888 0022 4FF05003 		   mov r3, #80                                              
ARM GAS  C:\msys64\tmp\cc2KM9Cz.s 			page 16


 889 0026 72B6     	   cpsid i                                                 
 890 0028 83F31188 	   msr basepri, r3                                         
 891 002c BFF36F8F 	   isb                                                     
 892 0030 BFF34F8F 	   dsb                                                     
 893 0034 62B6     	   cpsie i                                                 
 894              	
 895              	@ 0 "" 2
 896              		.thumb
 897              		.syntax unified
 898 0036 FB60     		str	r3, [r7, #12]
 899 0038 00BF     		nop
 900              	.L62:
 901 003a 00BF     		nop
 902 003c FDE7     		b	.L62
 903              	.L61:
 904 003e 7B69     		ldr	r3, [r7, #20]
 905 0040 DB6A     		ldr	r3, [r3, #44]
 906 0042 3B61     		str	r3, [r7, #16]
 907 0044 FFF7FEFF 		bl	vPortExitCritical
 908 0048 3B69     		ldr	r3, [r7, #16]
 909 004a 1846     		mov	r0, r3
 910 004c 1837     		adds	r7, r7, #24
 911 004e BD46     		mov	sp, r7
 912              		@ sp needed
 913 0050 80BD     		pop	{r7, pc}
 914              	.L65:
 915 0052 00BF     		.align	2
 916              	.L64:
 917 0054 00000000 		.word	pxCurrentTCB
 919              		.section	.text.uxTaskPriorityGetFromISR,"ax",%progbits
 920              		.align	1
 921              		.global	uxTaskPriorityGetFromISR
 922              		.syntax unified
 923              		.thumb
 924              		.thumb_func
 926              	uxTaskPriorityGetFromISR:
 927              		@ args = 0, pretend = 0, frame = 40
 928              		@ frame_needed = 1, uses_anonymous_args = 0
 929 0000 80B5     		push	{r7, lr}
 930 0002 8AB0     		sub	sp, sp, #40
 931 0004 00AF     		add	r7, sp, #0
 932 0006 7860     		str	r0, [r7, #4]
 933 0008 FFF7FEFF 		bl	vPortValidateInterruptPriority
 934              		.syntax unified
 935              	@ 232 "Middlewares/stm32f746_lwip_withos_porting/FreeRTOS/portable/GCC/ARM_CM7/r0p1/portmacro.h" 1
 936 000c EFF31182 		   mrs r2, basepri                                         
 937 0010 4FF05003 	   mov r3, #80                                              
 938 0014 72B6     	   cpsid i                                                 
 939 0016 83F31188 	   msr basepri, r3                                         
 940 001a BFF36F8F 	   isb                                                     
 941 001e BFF34F8F 	   dsb                                                     
 942 0022 62B6     	   cpsie i                                                 
 943              	
 944              	@ 0 "" 2
 945              		.thumb
 946              		.syntax unified
 947 0024 BA61     		str	r2, [r7, #24]
ARM GAS  C:\msys64\tmp\cc2KM9Cz.s 			page 17


 948 0026 7B61     		str	r3, [r7, #20]
 949 0028 BB69     		ldr	r3, [r7, #24]
 950 002a 7B62     		str	r3, [r7, #36]
 951 002c 7B68     		ldr	r3, [r7, #4]
 952 002e 002B     		cmp	r3, #0
 953 0030 02D1     		bne	.L68
 954 0032 124B     		ldr	r3, .L73
 955 0034 1B68     		ldr	r3, [r3]
 956 0036 00E0     		b	.L69
 957              	.L68:
 958 0038 7B68     		ldr	r3, [r7, #4]
 959              	.L69:
 960 003a 3B62     		str	r3, [r7, #32]
 961 003c 3B6A     		ldr	r3, [r7, #32]
 962 003e 002B     		cmp	r3, #0
 963 0040 0DD1     		bne	.L70
 964              		.syntax unified
 965              	@ 214 "Middlewares/stm32f746_lwip_withos_porting/FreeRTOS/portable/GCC/ARM_CM7/r0p1/portmacro.h" 1
 966 0042 4FF05003 		   mov r3, #80                                              
 967 0046 72B6     	   cpsid i                                                 
 968 0048 83F31188 	   msr basepri, r3                                         
 969 004c BFF36F8F 	   isb                                                     
 970 0050 BFF34F8F 	   dsb                                                     
 971 0054 62B6     	   cpsie i                                                 
 972              	
 973              	@ 0 "" 2
 974              		.thumb
 975              		.syntax unified
 976 0056 3B61     		str	r3, [r7, #16]
 977 0058 00BF     		nop
 978              	.L71:
 979 005a 00BF     		nop
 980 005c FDE7     		b	.L71
 981              	.L70:
 982 005e 3B6A     		ldr	r3, [r7, #32]
 983 0060 DB6A     		ldr	r3, [r3, #44]
 984 0062 FB61     		str	r3, [r7, #28]
 985 0064 7B6A     		ldr	r3, [r7, #36]
 986 0066 FB60     		str	r3, [r7, #12]
 987 0068 FB68     		ldr	r3, [r7, #12]
 988              		.syntax unified
 989              	@ 252 "Middlewares/stm32f746_lwip_withos_porting/FreeRTOS/portable/GCC/ARM_CM7/r0p1/portmacro.h" 1
 990 006a 83F31188 		   msr basepri, r3 
 991              	@ 0 "" 2
 992              		.thumb
 993              		.syntax unified
 994 006e 00BF     		nop
 995 0070 FB69     		ldr	r3, [r7, #28]
 996 0072 1846     		mov	r0, r3
 997 0074 2837     		adds	r7, r7, #40
 998 0076 BD46     		mov	sp, r7
 999              		@ sp needed
 1000 0078 80BD     		pop	{r7, pc}
 1001              	.L74:
 1002 007a 00BF     		.align	2
 1003              	.L73:
 1004 007c 00000000 		.word	pxCurrentTCB
ARM GAS  C:\msys64\tmp\cc2KM9Cz.s 			page 18


 1006              		.section	.text.uxTaskBasePriorityGet,"ax",%progbits
 1007              		.align	1
 1008              		.global	uxTaskBasePriorityGet
 1009              		.syntax unified
 1010              		.thumb
 1011              		.thumb_func
 1013              	uxTaskBasePriorityGet:
 1014              		@ args = 0, pretend = 0, frame = 24
 1015              		@ frame_needed = 1, uses_anonymous_args = 0
 1016 0000 80B5     		push	{r7, lr}
 1017 0002 86B0     		sub	sp, sp, #24
 1018 0004 00AF     		add	r7, sp, #0
 1019 0006 7860     		str	r0, [r7, #4]
 1020 0008 FFF7FEFF 		bl	vPortEnterCritical
 1021 000c 7B68     		ldr	r3, [r7, #4]
 1022 000e 002B     		cmp	r3, #0
 1023 0010 02D1     		bne	.L76
 1024 0012 104B     		ldr	r3, .L81
 1025 0014 1B68     		ldr	r3, [r3]
 1026 0016 00E0     		b	.L77
 1027              	.L76:
 1028 0018 7B68     		ldr	r3, [r7, #4]
 1029              	.L77:
 1030 001a 7B61     		str	r3, [r7, #20]
 1031 001c 7B69     		ldr	r3, [r7, #20]
 1032 001e 002B     		cmp	r3, #0
 1033 0020 0DD1     		bne	.L78
 1034              		.syntax unified
 1035              	@ 214 "Middlewares/stm32f746_lwip_withos_porting/FreeRTOS/portable/GCC/ARM_CM7/r0p1/portmacro.h" 1
 1036 0022 4FF05003 		   mov r3, #80                                              
 1037 0026 72B6     	   cpsid i                                                 
 1038 0028 83F31188 	   msr basepri, r3                                         
 1039 002c BFF36F8F 	   isb                                                     
 1040 0030 BFF34F8F 	   dsb                                                     
 1041 0034 62B6     	   cpsie i                                                 
 1042              	
 1043              	@ 0 "" 2
 1044              		.thumb
 1045              		.syntax unified
 1046 0036 FB60     		str	r3, [r7, #12]
 1047 0038 00BF     		nop
 1048              	.L79:
 1049 003a 00BF     		nop
 1050 003c FDE7     		b	.L79
 1051              	.L78:
 1052 003e 7B69     		ldr	r3, [r7, #20]
 1053 0040 5B6C     		ldr	r3, [r3, #68]
 1054 0042 3B61     		str	r3, [r7, #16]
 1055 0044 FFF7FEFF 		bl	vPortExitCritical
 1056 0048 3B69     		ldr	r3, [r7, #16]
 1057 004a 1846     		mov	r0, r3
 1058 004c 1837     		adds	r7, r7, #24
 1059 004e BD46     		mov	sp, r7
 1060              		@ sp needed
 1061 0050 80BD     		pop	{r7, pc}
 1062              	.L82:
 1063 0052 00BF     		.align	2
ARM GAS  C:\msys64\tmp\cc2KM9Cz.s 			page 19


 1064              	.L81:
 1065 0054 00000000 		.word	pxCurrentTCB
 1067              		.section	.text.uxTaskBasePriorityGetFromISR,"ax",%progbits
 1068              		.align	1
 1069              		.global	uxTaskBasePriorityGetFromISR
 1070              		.syntax unified
 1071              		.thumb
 1072              		.thumb_func
 1074              	uxTaskBasePriorityGetFromISR:
 1075              		@ args = 0, pretend = 0, frame = 40
 1076              		@ frame_needed = 1, uses_anonymous_args = 0
 1077 0000 80B5     		push	{r7, lr}
 1078 0002 8AB0     		sub	sp, sp, #40
 1079 0004 00AF     		add	r7, sp, #0
 1080 0006 7860     		str	r0, [r7, #4]
 1081 0008 FFF7FEFF 		bl	vPortValidateInterruptPriority
 1082              		.syntax unified
 1083              	@ 232 "Middlewares/stm32f746_lwip_withos_porting/FreeRTOS/portable/GCC/ARM_CM7/r0p1/portmacro.h" 1
 1084 000c EFF31182 		   mrs r2, basepri                                         
 1085 0010 4FF05003 	   mov r3, #80                                              
 1086 0014 72B6     	   cpsid i                                                 
 1087 0016 83F31188 	   msr basepri, r3                                         
 1088 001a BFF36F8F 	   isb                                                     
 1089 001e BFF34F8F 	   dsb                                                     
 1090 0022 62B6     	   cpsie i                                                 
 1091              	
 1092              	@ 0 "" 2
 1093              		.thumb
 1094              		.syntax unified
 1095 0024 BA61     		str	r2, [r7, #24]
 1096 0026 7B61     		str	r3, [r7, #20]
 1097 0028 BB69     		ldr	r3, [r7, #24]
 1098 002a 7B62     		str	r3, [r7, #36]
 1099 002c 7B68     		ldr	r3, [r7, #4]
 1100 002e 002B     		cmp	r3, #0
 1101 0030 02D1     		bne	.L85
 1102 0032 124B     		ldr	r3, .L90
 1103 0034 1B68     		ldr	r3, [r3]
 1104 0036 00E0     		b	.L86
 1105              	.L85:
 1106 0038 7B68     		ldr	r3, [r7, #4]
 1107              	.L86:
 1108 003a 3B62     		str	r3, [r7, #32]
 1109 003c 3B6A     		ldr	r3, [r7, #32]
 1110 003e 002B     		cmp	r3, #0
 1111 0040 0DD1     		bne	.L87
 1112              		.syntax unified
 1113              	@ 214 "Middlewares/stm32f746_lwip_withos_porting/FreeRTOS/portable/GCC/ARM_CM7/r0p1/portmacro.h" 1
 1114 0042 4FF05003 		   mov r3, #80                                              
 1115 0046 72B6     	   cpsid i                                                 
 1116 0048 83F31188 	   msr basepri, r3                                         
 1117 004c BFF36F8F 	   isb                                                     
 1118 0050 BFF34F8F 	   dsb                                                     
 1119 0054 62B6     	   cpsie i                                                 
 1120              	
 1121              	@ 0 "" 2
 1122              		.thumb
ARM GAS  C:\msys64\tmp\cc2KM9Cz.s 			page 20


 1123              		.syntax unified
 1124 0056 3B61     		str	r3, [r7, #16]
 1125 0058 00BF     		nop
 1126              	.L88:
 1127 005a 00BF     		nop
 1128 005c FDE7     		b	.L88
 1129              	.L87:
 1130 005e 3B6A     		ldr	r3, [r7, #32]
 1131 0060 5B6C     		ldr	r3, [r3, #68]
 1132 0062 FB61     		str	r3, [r7, #28]
 1133 0064 7B6A     		ldr	r3, [r7, #36]
 1134 0066 FB60     		str	r3, [r7, #12]
 1135 0068 FB68     		ldr	r3, [r7, #12]
 1136              		.syntax unified
 1137              	@ 252 "Middlewares/stm32f746_lwip_withos_porting/FreeRTOS/portable/GCC/ARM_CM7/r0p1/portmacro.h" 1
 1138 006a 83F31188 		   msr basepri, r3 
 1139              	@ 0 "" 2
 1140              		.thumb
 1141              		.syntax unified
 1142 006e 00BF     		nop
 1143 0070 FB69     		ldr	r3, [r7, #28]
 1144 0072 1846     		mov	r0, r3
 1145 0074 2837     		adds	r7, r7, #40
 1146 0076 BD46     		mov	sp, r7
 1147              		@ sp needed
 1148 0078 80BD     		pop	{r7, pc}
 1149              	.L91:
 1150 007a 00BF     		.align	2
 1151              	.L90:
 1152 007c 00000000 		.word	pxCurrentTCB
 1154              		.section	.text.vTaskPrioritySet,"ax",%progbits
 1155              		.align	1
 1156              		.global	vTaskPrioritySet
 1157              		.syntax unified
 1158              		.thumb
 1159              		.thumb_func
 1161              	vTaskPrioritySet:
 1162              		@ args = 0, pretend = 0, frame = 40
 1163              		@ frame_needed = 1, uses_anonymous_args = 0
 1164 0000 80B5     		push	{r7, lr}
 1165 0002 8AB0     		sub	sp, sp, #40
 1166 0004 00AF     		add	r7, sp, #0
 1167 0006 7860     		str	r0, [r7, #4]
 1168 0008 3960     		str	r1, [r7]
 1169 000a 0023     		movs	r3, #0
 1170 000c 7B62     		str	r3, [r7, #36]
 1171 000e 3B68     		ldr	r3, [r7]
 1172 0010 062B     		cmp	r3, #6
 1173 0012 0DD9     		bls	.L93
 1174              		.syntax unified
 1175              	@ 214 "Middlewares/stm32f746_lwip_withos_porting/FreeRTOS/portable/GCC/ARM_CM7/r0p1/portmacro.h" 1
 1176 0014 4FF05003 		   mov r3, #80                                              
 1177 0018 72B6     	   cpsid i                                                 
 1178 001a 83F31188 	   msr basepri, r3                                         
 1179 001e BFF36F8F 	   isb                                                     
 1180 0022 BFF34F8F 	   dsb                                                     
 1181 0026 62B6     	   cpsie i                                                 
ARM GAS  C:\msys64\tmp\cc2KM9Cz.s 			page 21


 1182              	
 1183              	@ 0 "" 2
 1184              		.thumb
 1185              		.syntax unified
 1186 0028 3B61     		str	r3, [r7, #16]
 1187 002a 00BF     		nop
 1188              	.L94:
 1189 002c 00BF     		nop
 1190 002e FDE7     		b	.L94
 1191              	.L93:
 1192 0030 3B68     		ldr	r3, [r7]
 1193 0032 062B     		cmp	r3, #6
 1194 0034 01D9     		bls	.L95
 1195 0036 0623     		movs	r3, #6
 1196 0038 3B60     		str	r3, [r7]
 1197              	.L95:
 1198 003a FFF7FEFF 		bl	vPortEnterCritical
 1199 003e 7B68     		ldr	r3, [r7, #4]
 1200 0040 002B     		cmp	r3, #0
 1201 0042 02D1     		bne	.L96
 1202 0044 614B     		ldr	r3, .L108
 1203 0046 1B68     		ldr	r3, [r3]
 1204 0048 00E0     		b	.L97
 1205              	.L96:
 1206 004a 7B68     		ldr	r3, [r7, #4]
 1207              	.L97:
 1208 004c 3B62     		str	r3, [r7, #32]
 1209 004e 3B6A     		ldr	r3, [r7, #32]
 1210 0050 002B     		cmp	r3, #0
 1211 0052 0DD1     		bne	.L98
 1212              		.syntax unified
 1213              	@ 214 "Middlewares/stm32f746_lwip_withos_porting/FreeRTOS/portable/GCC/ARM_CM7/r0p1/portmacro.h" 1
 1214 0054 4FF05003 		   mov r3, #80                                              
 1215 0058 72B6     	   cpsid i                                                 
 1216 005a 83F31188 	   msr basepri, r3                                         
 1217 005e BFF36F8F 	   isb                                                     
 1218 0062 BFF34F8F 	   dsb                                                     
 1219 0066 62B6     	   cpsie i                                                 
 1220              	
 1221              	@ 0 "" 2
 1222              		.thumb
 1223              		.syntax unified
 1224 0068 FB60     		str	r3, [r7, #12]
 1225 006a 00BF     		nop
 1226              	.L99:
 1227 006c 00BF     		nop
 1228 006e FDE7     		b	.L99
 1229              	.L98:
 1230 0070 3B6A     		ldr	r3, [r7, #32]
 1231 0072 5B6C     		ldr	r3, [r3, #68]
 1232 0074 FB61     		str	r3, [r7, #28]
 1233 0076 FA69     		ldr	r2, [r7, #28]
 1234 0078 3B68     		ldr	r3, [r7]
 1235 007a 9A42     		cmp	r2, r3
 1236 007c 00F09F80 		beq	.L100
 1237 0080 3A68     		ldr	r2, [r7]
 1238 0082 FB69     		ldr	r3, [r7, #28]
ARM GAS  C:\msys64\tmp\cc2KM9Cz.s 			page 22


 1239 0084 9A42     		cmp	r2, r3
 1240 0086 0DD9     		bls	.L101
 1241 0088 504B     		ldr	r3, .L108
 1242 008a 1B68     		ldr	r3, [r3]
 1243 008c 3A6A     		ldr	r2, [r7, #32]
 1244 008e 9A42     		cmp	r2, r3
 1245 0090 0FD0     		beq	.L102
 1246 0092 4E4B     		ldr	r3, .L108
 1247 0094 1B68     		ldr	r3, [r3]
 1248 0096 DB6A     		ldr	r3, [r3, #44]
 1249 0098 3A68     		ldr	r2, [r7]
 1250 009a 9A42     		cmp	r2, r3
 1251 009c 09D9     		bls	.L102
 1252 009e 0123     		movs	r3, #1
 1253 00a0 7B62     		str	r3, [r7, #36]
 1254 00a2 06E0     		b	.L102
 1255              	.L101:
 1256 00a4 494B     		ldr	r3, .L108
 1257 00a6 1B68     		ldr	r3, [r3]
 1258 00a8 3A6A     		ldr	r2, [r7, #32]
 1259 00aa 9A42     		cmp	r2, r3
 1260 00ac 01D1     		bne	.L102
 1261 00ae 0123     		movs	r3, #1
 1262 00b0 7B62     		str	r3, [r7, #36]
 1263              	.L102:
 1264 00b2 3B6A     		ldr	r3, [r7, #32]
 1265 00b4 DB6A     		ldr	r3, [r3, #44]
 1266 00b6 BB61     		str	r3, [r7, #24]
 1267 00b8 3B6A     		ldr	r3, [r7, #32]
 1268 00ba 5A6C     		ldr	r2, [r3, #68]
 1269 00bc 3B6A     		ldr	r3, [r7, #32]
 1270 00be DB6A     		ldr	r3, [r3, #44]
 1271 00c0 9A42     		cmp	r2, r3
 1272 00c2 04D0     		beq	.L103
 1273 00c4 3B6A     		ldr	r3, [r7, #32]
 1274 00c6 DB6A     		ldr	r3, [r3, #44]
 1275 00c8 3A68     		ldr	r2, [r7]
 1276 00ca 9A42     		cmp	r2, r3
 1277 00cc 02D9     		bls	.L104
 1278              	.L103:
 1279 00ce 3B6A     		ldr	r3, [r7, #32]
 1280 00d0 3A68     		ldr	r2, [r7]
 1281 00d2 DA62     		str	r2, [r3, #44]
 1282              	.L104:
 1283 00d4 3B6A     		ldr	r3, [r7, #32]
 1284 00d6 3A68     		ldr	r2, [r7]
 1285 00d8 5A64     		str	r2, [r3, #68]
 1286 00da 3B6A     		ldr	r3, [r7, #32]
 1287 00dc 9B69     		ldr	r3, [r3, #24]
 1288 00de 002B     		cmp	r3, #0
 1289 00e0 04DB     		blt	.L105
 1290 00e2 3B68     		ldr	r3, [r7]
 1291 00e4 C3F10702 		rsb	r2, r3, #7
 1292 00e8 3B6A     		ldr	r3, [r7, #32]
 1293 00ea 9A61     		str	r2, [r3, #24]
 1294              	.L105:
 1295 00ec 3B6A     		ldr	r3, [r7, #32]
ARM GAS  C:\msys64\tmp\cc2KM9Cz.s 			page 23


 1296 00ee 5969     		ldr	r1, [r3, #20]
 1297 00f0 BA69     		ldr	r2, [r7, #24]
 1298 00f2 1346     		mov	r3, r2
 1299 00f4 9B00     		lsls	r3, r3, #2
 1300 00f6 1344     		add	r3, r3, r2
 1301 00f8 9B00     		lsls	r3, r3, #2
 1302 00fa 354A     		ldr	r2, .L108+4
 1303 00fc 1344     		add	r3, r3, r2
 1304 00fe 9942     		cmp	r1, r3
 1305 0100 52D1     		bne	.L106
 1306 0102 3B6A     		ldr	r3, [r7, #32]
 1307 0104 0433     		adds	r3, r3, #4
 1308 0106 1846     		mov	r0, r3
 1309 0108 FFF7FEFF 		bl	uxListRemove
 1310 010c 0346     		mov	r3, r0
 1311 010e 002B     		cmp	r3, #0
 1312 0110 09D1     		bne	.L107
 1313 0112 0122     		movs	r2, #1
 1314 0114 BB69     		ldr	r3, [r7, #24]
 1315 0116 02FA03F3 		lsl	r3, r2, r3
 1316 011a DA43     		mvns	r2, r3
 1317 011c 2D4B     		ldr	r3, .L108+8
 1318 011e 1B68     		ldr	r3, [r3]
 1319 0120 1340     		ands	r3, r3, r2
 1320 0122 2C4A     		ldr	r2, .L108+8
 1321 0124 1360     		str	r3, [r2]
 1322              	.L107:
 1323 0126 3B6A     		ldr	r3, [r7, #32]
 1324 0128 DB6A     		ldr	r3, [r3, #44]
 1325 012a 0122     		movs	r2, #1
 1326 012c 9A40     		lsls	r2, r2, r3
 1327 012e 294B     		ldr	r3, .L108+8
 1328 0130 1B68     		ldr	r3, [r3]
 1329 0132 1343     		orrs	r3, r3, r2
 1330 0134 274A     		ldr	r2, .L108+8
 1331 0136 1360     		str	r3, [r2]
 1332 0138 3B6A     		ldr	r3, [r7, #32]
 1333 013a DA6A     		ldr	r2, [r3, #44]
 1334 013c 2449     		ldr	r1, .L108+4
 1335 013e 1346     		mov	r3, r2
 1336 0140 9B00     		lsls	r3, r3, #2
 1337 0142 1344     		add	r3, r3, r2
 1338 0144 9B00     		lsls	r3, r3, #2
 1339 0146 0B44     		add	r3, r3, r1
 1340 0148 0433     		adds	r3, r3, #4
 1341 014a 1B68     		ldr	r3, [r3]
 1342 014c 7B61     		str	r3, [r7, #20]
 1343 014e 3B6A     		ldr	r3, [r7, #32]
 1344 0150 7A69     		ldr	r2, [r7, #20]
 1345 0152 9A60     		str	r2, [r3, #8]
 1346 0154 7B69     		ldr	r3, [r7, #20]
 1347 0156 9A68     		ldr	r2, [r3, #8]
 1348 0158 3B6A     		ldr	r3, [r7, #32]
 1349 015a DA60     		str	r2, [r3, #12]
 1350 015c 7B69     		ldr	r3, [r7, #20]
 1351 015e 9B68     		ldr	r3, [r3, #8]
 1352 0160 3A6A     		ldr	r2, [r7, #32]
ARM GAS  C:\msys64\tmp\cc2KM9Cz.s 			page 24


 1353 0162 0432     		adds	r2, r2, #4
 1354 0164 5A60     		str	r2, [r3, #4]
 1355 0166 3B6A     		ldr	r3, [r7, #32]
 1356 0168 1A1D     		adds	r2, r3, #4
 1357 016a 7B69     		ldr	r3, [r7, #20]
 1358 016c 9A60     		str	r2, [r3, #8]
 1359 016e 3B6A     		ldr	r3, [r7, #32]
 1360 0170 DA6A     		ldr	r2, [r3, #44]
 1361 0172 1346     		mov	r3, r2
 1362 0174 9B00     		lsls	r3, r3, #2
 1363 0176 1344     		add	r3, r3, r2
 1364 0178 9B00     		lsls	r3, r3, #2
 1365 017a 154A     		ldr	r2, .L108+4
 1366 017c 1A44     		add	r2, r2, r3
 1367 017e 3B6A     		ldr	r3, [r7, #32]
 1368 0180 5A61     		str	r2, [r3, #20]
 1369 0182 3B6A     		ldr	r3, [r7, #32]
 1370 0184 DA6A     		ldr	r2, [r3, #44]
 1371 0186 1249     		ldr	r1, .L108+4
 1372 0188 1346     		mov	r3, r2
 1373 018a 9B00     		lsls	r3, r3, #2
 1374 018c 1344     		add	r3, r3, r2
 1375 018e 9B00     		lsls	r3, r3, #2
 1376 0190 0B44     		add	r3, r3, r1
 1377 0192 1B68     		ldr	r3, [r3]
 1378 0194 3A6A     		ldr	r2, [r7, #32]
 1379 0196 D26A     		ldr	r2, [r2, #44]
 1380 0198 591C     		adds	r1, r3, #1
 1381 019a 0D48     		ldr	r0, .L108+4
 1382 019c 1346     		mov	r3, r2
 1383 019e 9B00     		lsls	r3, r3, #2
 1384 01a0 1344     		add	r3, r3, r2
 1385 01a2 9B00     		lsls	r3, r3, #2
 1386 01a4 0344     		add	r3, r3, r0
 1387 01a6 1960     		str	r1, [r3]
 1388              	.L106:
 1389 01a8 7B6A     		ldr	r3, [r7, #36]
 1390 01aa 002B     		cmp	r3, #0
 1391 01ac 07D0     		beq	.L100
 1392 01ae 0A4B     		ldr	r3, .L108+12
 1393 01b0 4FF08052 		mov	r2, #268435456
 1394 01b4 1A60     		str	r2, [r3]
 1395              		.syntax unified
 1396              	@ 2977 "Middlewares/stm32f746_lwip_withos_porting/FreeRTOS/Core/Src/tasks.c" 1
 1397 01b6 BFF34F8F 		dsb
 1398              	@ 0 "" 2
 1399              	@ 2977 "Middlewares/stm32f746_lwip_withos_porting/FreeRTOS/Core/Src/tasks.c" 1
 1400 01ba BFF36F8F 		isb
 1401              	@ 0 "" 2
 1402              		.thumb
 1403              		.syntax unified
 1404              	.L100:
 1405 01be FFF7FEFF 		bl	vPortExitCritical
 1406 01c2 00BF     		nop
 1407 01c4 2837     		adds	r7, r7, #40
 1408 01c6 BD46     		mov	sp, r7
 1409              		@ sp needed
ARM GAS  C:\msys64\tmp\cc2KM9Cz.s 			page 25


 1410 01c8 80BD     		pop	{r7, pc}
 1411              	.L109:
 1412 01ca 00BF     		.align	2
 1413              	.L108:
 1414 01cc 00000000 		.word	pxCurrentTCB
 1415 01d0 00000000 		.word	pxReadyTasksLists
 1416 01d4 00000000 		.word	uxTopReadyPriority
 1417 01d8 04ED00E0 		.word	-536810236
 1419              		.section	.text.vTaskSuspend,"ax",%progbits
 1420              		.align	1
 1421              		.global	vTaskSuspend
 1422              		.syntax unified
 1423              		.thumb
 1424              		.thumb_func
 1426              	vTaskSuspend:
 1427              		@ args = 0, pretend = 0, frame = 32
 1428              		@ frame_needed = 1, uses_anonymous_args = 0
 1429 0000 80B5     		push	{r7, lr}
 1430 0002 88B0     		sub	sp, sp, #32
 1431 0004 00AF     		add	r7, sp, #0
 1432 0006 7860     		str	r0, [r7, #4]
 1433 0008 FFF7FEFF 		bl	vPortEnterCritical
 1434 000c 7B68     		ldr	r3, [r7, #4]
 1435 000e 002B     		cmp	r3, #0
 1436 0010 02D1     		bne	.L111
 1437 0012 4E4B     		ldr	r3, .L127
 1438 0014 1B68     		ldr	r3, [r3]
 1439 0016 00E0     		b	.L112
 1440              	.L111:
 1441 0018 7B68     		ldr	r3, [r7, #4]
 1442              	.L112:
 1443 001a BB61     		str	r3, [r7, #24]
 1444 001c BB69     		ldr	r3, [r7, #24]
 1445 001e 002B     		cmp	r3, #0
 1446 0020 0DD1     		bne	.L113
 1447              		.syntax unified
 1448              	@ 214 "Middlewares/stm32f746_lwip_withos_porting/FreeRTOS/portable/GCC/ARM_CM7/r0p1/portmacro.h" 1
 1449 0022 4FF05003 		   mov r3, #80                                              
 1450 0026 72B6     	   cpsid i                                                 
 1451 0028 83F31188 	   msr basepri, r3                                         
 1452 002c BFF36F8F 	   isb                                                     
 1453 0030 BFF34F8F 	   dsb                                                     
 1454 0034 62B6     	   cpsie i                                                 
 1455              	
 1456              	@ 0 "" 2
 1457              		.thumb
 1458              		.syntax unified
 1459 0036 3B61     		str	r3, [r7, #16]
 1460 0038 00BF     		nop
 1461              	.L114:
 1462 003a 00BF     		nop
 1463 003c FDE7     		b	.L114
 1464              	.L113:
 1465 003e BB69     		ldr	r3, [r7, #24]
 1466 0040 0433     		adds	r3, r3, #4
 1467 0042 1846     		mov	r0, r3
 1468 0044 FFF7FEFF 		bl	uxListRemove
ARM GAS  C:\msys64\tmp\cc2KM9Cz.s 			page 26


 1469 0048 0346     		mov	r3, r0
 1470 004a 002B     		cmp	r3, #0
 1471 004c 15D1     		bne	.L115
 1472 004e BB69     		ldr	r3, [r7, #24]
 1473 0050 DA6A     		ldr	r2, [r3, #44]
 1474 0052 3F49     		ldr	r1, .L127+4
 1475 0054 1346     		mov	r3, r2
 1476 0056 9B00     		lsls	r3, r3, #2
 1477 0058 1344     		add	r3, r3, r2
 1478 005a 9B00     		lsls	r3, r3, #2
 1479 005c 0B44     		add	r3, r3, r1
 1480 005e 1B68     		ldr	r3, [r3]
 1481 0060 002B     		cmp	r3, #0
 1482 0062 0AD1     		bne	.L115
 1483 0064 BB69     		ldr	r3, [r7, #24]
 1484 0066 DB6A     		ldr	r3, [r3, #44]
 1485 0068 0122     		movs	r2, #1
 1486 006a 02FA03F3 		lsl	r3, r2, r3
 1487 006e DA43     		mvns	r2, r3
 1488 0070 384B     		ldr	r3, .L127+8
 1489 0072 1B68     		ldr	r3, [r3]
 1490 0074 1340     		ands	r3, r3, r2
 1491 0076 374A     		ldr	r2, .L127+8
 1492 0078 1360     		str	r3, [r2]
 1493              	.L115:
 1494 007a BB69     		ldr	r3, [r7, #24]
 1495 007c 9B6A     		ldr	r3, [r3, #40]
 1496 007e 002B     		cmp	r3, #0
 1497 0080 04D0     		beq	.L116
 1498 0082 BB69     		ldr	r3, [r7, #24]
 1499 0084 1833     		adds	r3, r3, #24
 1500 0086 1846     		mov	r0, r3
 1501 0088 FFF7FEFF 		bl	uxListRemove
 1502              	.L116:
 1503 008c BB69     		ldr	r3, [r7, #24]
 1504 008e 0433     		adds	r3, r3, #4
 1505 0090 1946     		mov	r1, r3
 1506 0092 3148     		ldr	r0, .L127+12
 1507 0094 FFF7FEFF 		bl	vListInsertEnd
 1508 0098 0023     		movs	r3, #0
 1509 009a FB61     		str	r3, [r7, #28]
 1510 009c 10E0     		b	.L117
 1511              	.L119:
 1512 009e BA69     		ldr	r2, [r7, #24]
 1513 00a0 FB69     		ldr	r3, [r7, #28]
 1514 00a2 1344     		add	r3, r3, r2
 1515 00a4 5433     		adds	r3, r3, #84
 1516 00a6 1B78     		ldrb	r3, [r3]
 1517 00a8 DBB2     		uxtb	r3, r3
 1518 00aa 012B     		cmp	r3, #1
 1519 00ac 05D1     		bne	.L118
 1520 00ae BA69     		ldr	r2, [r7, #24]
 1521 00b0 FB69     		ldr	r3, [r7, #28]
 1522 00b2 1344     		add	r3, r3, r2
 1523 00b4 5433     		adds	r3, r3, #84
 1524 00b6 0022     		movs	r2, #0
 1525 00b8 1A70     		strb	r2, [r3]
ARM GAS  C:\msys64\tmp\cc2KM9Cz.s 			page 27


 1526              	.L118:
 1527 00ba FB69     		ldr	r3, [r7, #28]
 1528 00bc 0133     		adds	r3, r3, #1
 1529 00be FB61     		str	r3, [r7, #28]
 1530              	.L117:
 1531 00c0 FB69     		ldr	r3, [r7, #28]
 1532 00c2 002B     		cmp	r3, #0
 1533 00c4 EBDD     		ble	.L119
 1534 00c6 FFF7FEFF 		bl	vPortExitCritical
 1535 00ca 244B     		ldr	r3, .L127+16
 1536 00cc 1B68     		ldr	r3, [r3]
 1537 00ce 002B     		cmp	r3, #0
 1538 00d0 05D0     		beq	.L120
 1539 00d2 FFF7FEFF 		bl	vPortEnterCritical
 1540 00d6 FFF7FEFF 		bl	prvResetNextTaskUnblockTime
 1541 00da FFF7FEFF 		bl	vPortExitCritical
 1542              	.L120:
 1543 00de 1B4B     		ldr	r3, .L127
 1544 00e0 1B68     		ldr	r3, [r3]
 1545 00e2 BA69     		ldr	r2, [r7, #24]
 1546 00e4 9A42     		cmp	r2, r3
 1547 00e6 2CD1     		bne	.L126
 1548 00e8 1C4B     		ldr	r3, .L127+16
 1549 00ea 1B68     		ldr	r3, [r3]
 1550 00ec 002B     		cmp	r3, #0
 1551 00ee 1AD0     		beq	.L122
 1552 00f0 1B4B     		ldr	r3, .L127+20
 1553 00f2 1B68     		ldr	r3, [r3]
 1554 00f4 002B     		cmp	r3, #0
 1555 00f6 0DD0     		beq	.L123
 1556              		.syntax unified
 1557              	@ 214 "Middlewares/stm32f746_lwip_withos_porting/FreeRTOS/portable/GCC/ARM_CM7/r0p1/portmacro.h" 1
 1558 00f8 4FF05003 		   mov r3, #80                                              
 1559 00fc 72B6     	   cpsid i                                                 
 1560 00fe 83F31188 	   msr basepri, r3                                         
 1561 0102 BFF36F8F 	   isb                                                     
 1562 0106 BFF34F8F 	   dsb                                                     
 1563 010a 62B6     	   cpsie i                                                 
 1564              	
 1565              	@ 0 "" 2
 1566              		.thumb
 1567              		.syntax unified
 1568 010c FB60     		str	r3, [r7, #12]
 1569 010e 00BF     		nop
 1570              	.L124:
 1571 0110 00BF     		nop
 1572 0112 FDE7     		b	.L124
 1573              	.L123:
 1574 0114 134B     		ldr	r3, .L127+24
 1575 0116 4FF08052 		mov	r2, #268435456
 1576 011a 1A60     		str	r2, [r3]
 1577              		.syntax unified
 1578              	@ 3270 "Middlewares/stm32f746_lwip_withos_porting/FreeRTOS/Core/Src/tasks.c" 1
 1579 011c BFF34F8F 		dsb
 1580              	@ 0 "" 2
 1581              	@ 3270 "Middlewares/stm32f746_lwip_withos_porting/FreeRTOS/Core/Src/tasks.c" 1
 1582 0120 BFF36F8F 		isb
ARM GAS  C:\msys64\tmp\cc2KM9Cz.s 			page 28


 1583              	@ 0 "" 2
 1584              		.thumb
 1585              		.syntax unified
 1586 0124 0DE0     		b	.L126
 1587              	.L122:
 1588 0126 0C4B     		ldr	r3, .L127+12
 1589 0128 1B68     		ldr	r3, [r3]
 1590 012a 7B61     		str	r3, [r7, #20]
 1591 012c 0E4B     		ldr	r3, .L127+28
 1592 012e 1B68     		ldr	r3, [r3]
 1593 0130 7A69     		ldr	r2, [r7, #20]
 1594 0132 9A42     		cmp	r2, r3
 1595 0134 03D1     		bne	.L125
 1596 0136 054B     		ldr	r3, .L127
 1597 0138 0022     		movs	r2, #0
 1598 013a 1A60     		str	r2, [r3]
 1599 013c 01E0     		b	.L126
 1600              	.L125:
 1601 013e FFF7FEFF 		bl	vTaskSwitchContext
 1602              	.L126:
 1603 0142 00BF     		nop
 1604 0144 2037     		adds	r7, r7, #32
 1605 0146 BD46     		mov	sp, r7
 1606              		@ sp needed
 1607 0148 80BD     		pop	{r7, pc}
 1608              	.L128:
 1609 014a 00BF     		.align	2
 1610              	.L127:
 1611 014c 00000000 		.word	pxCurrentTCB
 1612 0150 00000000 		.word	pxReadyTasksLists
 1613 0154 00000000 		.word	uxTopReadyPriority
 1614 0158 00000000 		.word	xSuspendedTaskList
 1615 015c 00000000 		.word	xSchedulerRunning
 1616 0160 00000000 		.word	uxSchedulerSuspended
 1617 0164 04ED00E0 		.word	-536810236
 1618 0168 00000000 		.word	uxCurrentNumberOfTasks
 1620              		.section	.text.prvTaskIsTaskSuspended,"ax",%progbits
 1621              		.align	1
 1622              		.syntax unified
 1623              		.thumb
 1624              		.thumb_func
 1626              	prvTaskIsTaskSuspended:
 1627              		@ args = 0, pretend = 0, frame = 24
 1628              		@ frame_needed = 1, uses_anonymous_args = 0
 1629              		@ link register save eliminated.
 1630 0000 80B4     		push	{r7}
 1631 0002 87B0     		sub	sp, sp, #28
 1632 0004 00AF     		add	r7, sp, #0
 1633 0006 7860     		str	r0, [r7, #4]
 1634 0008 0023     		movs	r3, #0
 1635 000a 7B61     		str	r3, [r7, #20]
 1636 000c 7B68     		ldr	r3, [r7, #4]
 1637 000e FB60     		str	r3, [r7, #12]
 1638 0010 7B68     		ldr	r3, [r7, #4]
 1639 0012 002B     		cmp	r3, #0
 1640 0014 0DD1     		bne	.L130
 1641              		.syntax unified
ARM GAS  C:\msys64\tmp\cc2KM9Cz.s 			page 29


 1642              	@ 214 "Middlewares/stm32f746_lwip_withos_porting/FreeRTOS/portable/GCC/ARM_CM7/r0p1/portmacro.h" 1
 1643 0016 4FF05003 		   mov r3, #80                                              
 1644 001a 72B6     	   cpsid i                                                 
 1645 001c 83F31188 	   msr basepri, r3                                         
 1646 0020 BFF36F8F 	   isb                                                     
 1647 0024 BFF34F8F 	   dsb                                                     
 1648 0028 62B6     	   cpsie i                                                 
 1649              	
 1650              	@ 0 "" 2
 1651              		.thumb
 1652              		.syntax unified
 1653 002a BB60     		str	r3, [r7, #8]
 1654 002c 00BF     		nop
 1655              	.L131:
 1656 002e 00BF     		nop
 1657 0030 FDE7     		b	.L131
 1658              	.L130:
 1659 0032 FB68     		ldr	r3, [r7, #12]
 1660 0034 5B69     		ldr	r3, [r3, #20]
 1661 0036 144A     		ldr	r2, .L138
 1662 0038 9342     		cmp	r3, r2
 1663 003a 1ED1     		bne	.L132
 1664 003c FB68     		ldr	r3, [r7, #12]
 1665 003e 9B6A     		ldr	r3, [r3, #40]
 1666 0040 124A     		ldr	r2, .L138+4
 1667 0042 9342     		cmp	r3, r2
 1668 0044 19D0     		beq	.L132
 1669 0046 FB68     		ldr	r3, [r7, #12]
 1670 0048 9B6A     		ldr	r3, [r3, #40]
 1671 004a 002B     		cmp	r3, #0
 1672 004c 15D1     		bne	.L132
 1673 004e 0123     		movs	r3, #1
 1674 0050 7B61     		str	r3, [r7, #20]
 1675 0052 0023     		movs	r3, #0
 1676 0054 3B61     		str	r3, [r7, #16]
 1677 0056 0DE0     		b	.L133
 1678              	.L136:
 1679 0058 FA68     		ldr	r2, [r7, #12]
 1680 005a 3B69     		ldr	r3, [r7, #16]
 1681 005c 1344     		add	r3, r3, r2
 1682 005e 5433     		adds	r3, r3, #84
 1683 0060 1B78     		ldrb	r3, [r3]
 1684 0062 DBB2     		uxtb	r3, r3
 1685 0064 012B     		cmp	r3, #1
 1686 0066 02D1     		bne	.L134
 1687 0068 0023     		movs	r3, #0
 1688 006a 7B61     		str	r3, [r7, #20]
 1689 006c 05E0     		b	.L132
 1690              	.L134:
 1691 006e 3B69     		ldr	r3, [r7, #16]
 1692 0070 0133     		adds	r3, r3, #1
 1693 0072 3B61     		str	r3, [r7, #16]
 1694              	.L133:
 1695 0074 3B69     		ldr	r3, [r7, #16]
 1696 0076 002B     		cmp	r3, #0
 1697 0078 EEDD     		ble	.L136
 1698              	.L132:
ARM GAS  C:\msys64\tmp\cc2KM9Cz.s 			page 30


 1699 007a 7B69     		ldr	r3, [r7, #20]
 1700 007c 1846     		mov	r0, r3
 1701 007e 1C37     		adds	r7, r7, #28
 1702 0080 BD46     		mov	sp, r7
 1703              		@ sp needed
 1704 0082 5DF8047B 		ldr	r7, [sp], #4
 1705 0086 7047     		bx	lr
 1706              	.L139:
 1707              		.align	2
 1708              	.L138:
 1709 0088 00000000 		.word	xSuspendedTaskList
 1710 008c 00000000 		.word	xPendingReadyList
 1712              		.section	.text.vTaskResume,"ax",%progbits
 1713              		.align	1
 1714              		.global	vTaskResume
 1715              		.syntax unified
 1716              		.thumb
 1717              		.thumb_func
 1719              	vTaskResume:
 1720              		@ args = 0, pretend = 0, frame = 24
 1721              		@ frame_needed = 1, uses_anonymous_args = 0
 1722 0000 80B5     		push	{r7, lr}
 1723 0002 86B0     		sub	sp, sp, #24
 1724 0004 00AF     		add	r7, sp, #0
 1725 0006 7860     		str	r0, [r7, #4]
 1726 0008 7B68     		ldr	r3, [r7, #4]
 1727 000a 7B61     		str	r3, [r7, #20]
 1728 000c 7B68     		ldr	r3, [r7, #4]
 1729 000e 002B     		cmp	r3, #0
 1730 0010 0DD1     		bne	.L141
 1731              		.syntax unified
 1732              	@ 214 "Middlewares/stm32f746_lwip_withos_porting/FreeRTOS/portable/GCC/ARM_CM7/r0p1/portmacro.h" 1
 1733 0012 4FF05003 		   mov r3, #80                                              
 1734 0016 72B6     	   cpsid i                                                 
 1735 0018 83F31188 	   msr basepri, r3                                         
 1736 001c BFF36F8F 	   isb                                                     
 1737 0020 BFF34F8F 	   dsb                                                     
 1738 0024 62B6     	   cpsie i                                                 
 1739              	
 1740              	@ 0 "" 2
 1741              		.thumb
 1742              		.syntax unified
 1743 0026 FB60     		str	r3, [r7, #12]
 1744 0028 00BF     		nop
 1745              	.L142:
 1746 002a 00BF     		nop
 1747 002c FDE7     		b	.L142
 1748              	.L141:
 1749 002e 354B     		ldr	r3, .L146
 1750 0030 1B68     		ldr	r3, [r3]
 1751 0032 7A69     		ldr	r2, [r7, #20]
 1752 0034 9A42     		cmp	r2, r3
 1753 0036 61D0     		beq	.L145
 1754 0038 7B69     		ldr	r3, [r7, #20]
 1755 003a 002B     		cmp	r3, #0
 1756 003c 5ED0     		beq	.L145
 1757 003e FFF7FEFF 		bl	vPortEnterCritical
ARM GAS  C:\msys64\tmp\cc2KM9Cz.s 			page 31


 1758 0042 7869     		ldr	r0, [r7, #20]
 1759 0044 FFF7FEFF 		bl	prvTaskIsTaskSuspended
 1760 0048 0346     		mov	r3, r0
 1761 004a 002B     		cmp	r3, #0
 1762 004c 54D0     		beq	.L144
 1763 004e 7B69     		ldr	r3, [r7, #20]
 1764 0050 0433     		adds	r3, r3, #4
 1765 0052 1846     		mov	r0, r3
 1766 0054 FFF7FEFF 		bl	uxListRemove
 1767 0058 7B69     		ldr	r3, [r7, #20]
 1768 005a DB6A     		ldr	r3, [r3, #44]
 1769 005c 0122     		movs	r2, #1
 1770 005e 9A40     		lsls	r2, r2, r3
 1771 0060 294B     		ldr	r3, .L146+4
 1772 0062 1B68     		ldr	r3, [r3]
 1773 0064 1343     		orrs	r3, r3, r2
 1774 0066 284A     		ldr	r2, .L146+4
 1775 0068 1360     		str	r3, [r2]
 1776 006a 7B69     		ldr	r3, [r7, #20]
 1777 006c DA6A     		ldr	r2, [r3, #44]
 1778 006e 2749     		ldr	r1, .L146+8
 1779 0070 1346     		mov	r3, r2
 1780 0072 9B00     		lsls	r3, r3, #2
 1781 0074 1344     		add	r3, r3, r2
 1782 0076 9B00     		lsls	r3, r3, #2
 1783 0078 0B44     		add	r3, r3, r1
 1784 007a 0433     		adds	r3, r3, #4
 1785 007c 1B68     		ldr	r3, [r3]
 1786 007e 3B61     		str	r3, [r7, #16]
 1787 0080 7B69     		ldr	r3, [r7, #20]
 1788 0082 3A69     		ldr	r2, [r7, #16]
 1789 0084 9A60     		str	r2, [r3, #8]
 1790 0086 3B69     		ldr	r3, [r7, #16]
 1791 0088 9A68     		ldr	r2, [r3, #8]
 1792 008a 7B69     		ldr	r3, [r7, #20]
 1793 008c DA60     		str	r2, [r3, #12]
 1794 008e 3B69     		ldr	r3, [r7, #16]
 1795 0090 9B68     		ldr	r3, [r3, #8]
 1796 0092 7A69     		ldr	r2, [r7, #20]
 1797 0094 0432     		adds	r2, r2, #4
 1798 0096 5A60     		str	r2, [r3, #4]
 1799 0098 7B69     		ldr	r3, [r7, #20]
 1800 009a 1A1D     		adds	r2, r3, #4
 1801 009c 3B69     		ldr	r3, [r7, #16]
 1802 009e 9A60     		str	r2, [r3, #8]
 1803 00a0 7B69     		ldr	r3, [r7, #20]
 1804 00a2 DA6A     		ldr	r2, [r3, #44]
 1805 00a4 1346     		mov	r3, r2
 1806 00a6 9B00     		lsls	r3, r3, #2
 1807 00a8 1344     		add	r3, r3, r2
 1808 00aa 9B00     		lsls	r3, r3, #2
 1809 00ac 174A     		ldr	r2, .L146+8
 1810 00ae 1A44     		add	r2, r2, r3
 1811 00b0 7B69     		ldr	r3, [r7, #20]
 1812 00b2 5A61     		str	r2, [r3, #20]
 1813 00b4 7B69     		ldr	r3, [r7, #20]
 1814 00b6 DA6A     		ldr	r2, [r3, #44]
ARM GAS  C:\msys64\tmp\cc2KM9Cz.s 			page 32


 1815 00b8 1449     		ldr	r1, .L146+8
 1816 00ba 1346     		mov	r3, r2
 1817 00bc 9B00     		lsls	r3, r3, #2
 1818 00be 1344     		add	r3, r3, r2
 1819 00c0 9B00     		lsls	r3, r3, #2
 1820 00c2 0B44     		add	r3, r3, r1
 1821 00c4 1B68     		ldr	r3, [r3]
 1822 00c6 7A69     		ldr	r2, [r7, #20]
 1823 00c8 D26A     		ldr	r2, [r2, #44]
 1824 00ca 591C     		adds	r1, r3, #1
 1825 00cc 0F48     		ldr	r0, .L146+8
 1826 00ce 1346     		mov	r3, r2
 1827 00d0 9B00     		lsls	r3, r3, #2
 1828 00d2 1344     		add	r3, r3, r2
 1829 00d4 9B00     		lsls	r3, r3, #2
 1830 00d6 0344     		add	r3, r3, r0
 1831 00d8 1960     		str	r1, [r3]
 1832 00da 0A4B     		ldr	r3, .L146
 1833 00dc 1B68     		ldr	r3, [r3]
 1834 00de DA6A     		ldr	r2, [r3, #44]
 1835 00e0 7B69     		ldr	r3, [r7, #20]
 1836 00e2 DB6A     		ldr	r3, [r3, #44]
 1837 00e4 9A42     		cmp	r2, r3
 1838 00e6 07D2     		bcs	.L144
 1839 00e8 094B     		ldr	r3, .L146+12
 1840 00ea 4FF08052 		mov	r2, #268435456
 1841 00ee 1A60     		str	r2, [r3]
 1842              		.syntax unified
 1843              	@ 3420 "Middlewares/stm32f746_lwip_withos_porting/FreeRTOS/Core/Src/tasks.c" 1
 1844 00f0 BFF34F8F 		dsb
 1845              	@ 0 "" 2
 1846              	@ 3420 "Middlewares/stm32f746_lwip_withos_porting/FreeRTOS/Core/Src/tasks.c" 1
 1847 00f4 BFF36F8F 		isb
 1848              	@ 0 "" 2
 1849              		.thumb
 1850              		.syntax unified
 1851              	.L144:
 1852 00f8 FFF7FEFF 		bl	vPortExitCritical
 1853              	.L145:
 1854 00fc 00BF     		nop
 1855 00fe 1837     		adds	r7, r7, #24
 1856 0100 BD46     		mov	sp, r7
 1857              		@ sp needed
 1858 0102 80BD     		pop	{r7, pc}
 1859              	.L147:
 1860              		.align	2
 1861              	.L146:
 1862 0104 00000000 		.word	pxCurrentTCB
 1863 0108 00000000 		.word	uxTopReadyPriority
 1864 010c 00000000 		.word	pxReadyTasksLists
 1865 0110 04ED00E0 		.word	-536810236
 1867              		.section	.text.xTaskResumeFromISR,"ax",%progbits
 1868              		.align	1
 1869              		.global	xTaskResumeFromISR
 1870              		.syntax unified
 1871              		.thumb
 1872              		.thumb_func
ARM GAS  C:\msys64\tmp\cc2KM9Cz.s 			page 33


 1874              	xTaskResumeFromISR:
 1875              		@ args = 0, pretend = 0, frame = 40
 1876              		@ frame_needed = 1, uses_anonymous_args = 0
 1877 0000 80B5     		push	{r7, lr}
 1878 0002 8AB0     		sub	sp, sp, #40
 1879 0004 00AF     		add	r7, sp, #0
 1880 0006 7860     		str	r0, [r7, #4]
 1881 0008 0023     		movs	r3, #0
 1882 000a 7B62     		str	r3, [r7, #36]
 1883 000c 7B68     		ldr	r3, [r7, #4]
 1884 000e 3B62     		str	r3, [r7, #32]
 1885 0010 7B68     		ldr	r3, [r7, #4]
 1886 0012 002B     		cmp	r3, #0
 1887 0014 0DD1     		bne	.L149
 1888              		.syntax unified
 1889              	@ 214 "Middlewares/stm32f746_lwip_withos_porting/FreeRTOS/portable/GCC/ARM_CM7/r0p1/portmacro.h" 1
 1890 0016 4FF05003 		   mov r3, #80                                              
 1891 001a 72B6     	   cpsid i                                                 
 1892 001c 83F31188 	   msr basepri, r3                                         
 1893 0020 BFF36F8F 	   isb                                                     
 1894 0024 BFF34F8F 	   dsb                                                     
 1895 0028 62B6     	   cpsie i                                                 
 1896              	
 1897              	@ 0 "" 2
 1898              		.thumb
 1899              		.syntax unified
 1900 002a 7B61     		str	r3, [r7, #20]
 1901 002c 00BF     		nop
 1902              	.L150:
 1903 002e 00BF     		nop
 1904 0030 FDE7     		b	.L150
 1905              	.L149:
 1906 0032 FFF7FEFF 		bl	vPortValidateInterruptPriority
 1907              		.syntax unified
 1908              	@ 232 "Middlewares/stm32f746_lwip_withos_porting/FreeRTOS/portable/GCC/ARM_CM7/r0p1/portmacro.h" 1
 1909 0036 EFF31182 		   mrs r2, basepri                                         
 1910 003a 4FF05003 	   mov r3, #80                                              
 1911 003e 72B6     	   cpsid i                                                 
 1912 0040 83F31188 	   msr basepri, r3                                         
 1913 0044 BFF36F8F 	   isb                                                     
 1914 0048 BFF34F8F 	   dsb                                                     
 1915 004c 62B6     	   cpsie i                                                 
 1916              	
 1917              	@ 0 "" 2
 1918              		.thumb
 1919              		.syntax unified
 1920 004e 3A61     		str	r2, [r7, #16]
 1921 0050 FB60     		str	r3, [r7, #12]
 1922 0052 3B69     		ldr	r3, [r7, #16]
 1923 0054 FB61     		str	r3, [r7, #28]
 1924 0056 386A     		ldr	r0, [r7, #32]
 1925 0058 FFF7FEFF 		bl	prvTaskIsTaskSuspended
 1926 005c 0346     		mov	r3, r0
 1927 005e 002B     		cmp	r3, #0
 1928 0060 5CD0     		beq	.L152
 1929 0062 344B     		ldr	r3, .L156
 1930 0064 1B68     		ldr	r3, [r3]
ARM GAS  C:\msys64\tmp\cc2KM9Cz.s 			page 34


 1931 0066 002B     		cmp	r3, #0
 1932 0068 52D1     		bne	.L153
 1933 006a 3B6A     		ldr	r3, [r7, #32]
 1934 006c DA6A     		ldr	r2, [r3, #44]
 1935 006e 324B     		ldr	r3, .L156+4
 1936 0070 1B68     		ldr	r3, [r3]
 1937 0072 DB6A     		ldr	r3, [r3, #44]
 1938 0074 9A42     		cmp	r2, r3
 1939 0076 04D9     		bls	.L154
 1940 0078 0123     		movs	r3, #1
 1941 007a 7B62     		str	r3, [r7, #36]
 1942 007c 2F4B     		ldr	r3, .L156+8
 1943 007e 0122     		movs	r2, #1
 1944 0080 1A60     		str	r2, [r3]
 1945              	.L154:
 1946 0082 3B6A     		ldr	r3, [r7, #32]
 1947 0084 0433     		adds	r3, r3, #4
 1948 0086 1846     		mov	r0, r3
 1949 0088 FFF7FEFF 		bl	uxListRemove
 1950 008c 3B6A     		ldr	r3, [r7, #32]
 1951 008e DB6A     		ldr	r3, [r3, #44]
 1952 0090 0122     		movs	r2, #1
 1953 0092 9A40     		lsls	r2, r2, r3
 1954 0094 2A4B     		ldr	r3, .L156+12
 1955 0096 1B68     		ldr	r3, [r3]
 1956 0098 1343     		orrs	r3, r3, r2
 1957 009a 294A     		ldr	r2, .L156+12
 1958 009c 1360     		str	r3, [r2]
 1959 009e 3B6A     		ldr	r3, [r7, #32]
 1960 00a0 DA6A     		ldr	r2, [r3, #44]
 1961 00a2 2849     		ldr	r1, .L156+16
 1962 00a4 1346     		mov	r3, r2
 1963 00a6 9B00     		lsls	r3, r3, #2
 1964 00a8 1344     		add	r3, r3, r2
 1965 00aa 9B00     		lsls	r3, r3, #2
 1966 00ac 0B44     		add	r3, r3, r1
 1967 00ae 0433     		adds	r3, r3, #4
 1968 00b0 1B68     		ldr	r3, [r3]
 1969 00b2 BB61     		str	r3, [r7, #24]
 1970 00b4 3B6A     		ldr	r3, [r7, #32]
 1971 00b6 BA69     		ldr	r2, [r7, #24]
 1972 00b8 9A60     		str	r2, [r3, #8]
 1973 00ba BB69     		ldr	r3, [r7, #24]
 1974 00bc 9A68     		ldr	r2, [r3, #8]
 1975 00be 3B6A     		ldr	r3, [r7, #32]
 1976 00c0 DA60     		str	r2, [r3, #12]
 1977 00c2 BB69     		ldr	r3, [r7, #24]
 1978 00c4 9B68     		ldr	r3, [r3, #8]
 1979 00c6 3A6A     		ldr	r2, [r7, #32]
 1980 00c8 0432     		adds	r2, r2, #4
 1981 00ca 5A60     		str	r2, [r3, #4]
 1982 00cc 3B6A     		ldr	r3, [r7, #32]
 1983 00ce 1A1D     		adds	r2, r3, #4
 1984 00d0 BB69     		ldr	r3, [r7, #24]
 1985 00d2 9A60     		str	r2, [r3, #8]
 1986 00d4 3B6A     		ldr	r3, [r7, #32]
 1987 00d6 DA6A     		ldr	r2, [r3, #44]
ARM GAS  C:\msys64\tmp\cc2KM9Cz.s 			page 35


 1988 00d8 1346     		mov	r3, r2
 1989 00da 9B00     		lsls	r3, r3, #2
 1990 00dc 1344     		add	r3, r3, r2
 1991 00de 9B00     		lsls	r3, r3, #2
 1992 00e0 184A     		ldr	r2, .L156+16
 1993 00e2 1A44     		add	r2, r2, r3
 1994 00e4 3B6A     		ldr	r3, [r7, #32]
 1995 00e6 5A61     		str	r2, [r3, #20]
 1996 00e8 3B6A     		ldr	r3, [r7, #32]
 1997 00ea DA6A     		ldr	r2, [r3, #44]
 1998 00ec 1549     		ldr	r1, .L156+16
 1999 00ee 1346     		mov	r3, r2
 2000 00f0 9B00     		lsls	r3, r3, #2
 2001 00f2 1344     		add	r3, r3, r2
 2002 00f4 9B00     		lsls	r3, r3, #2
 2003 00f6 0B44     		add	r3, r3, r1
 2004 00f8 1B68     		ldr	r3, [r3]
 2005 00fa 3A6A     		ldr	r2, [r7, #32]
 2006 00fc D26A     		ldr	r2, [r2, #44]
 2007 00fe 591C     		adds	r1, r3, #1
 2008 0100 1048     		ldr	r0, .L156+16
 2009 0102 1346     		mov	r3, r2
 2010 0104 9B00     		lsls	r3, r3, #2
 2011 0106 1344     		add	r3, r3, r2
 2012 0108 9B00     		lsls	r3, r3, #2
 2013 010a 0344     		add	r3, r3, r0
 2014 010c 1960     		str	r1, [r3]
 2015 010e 05E0     		b	.L152
 2016              	.L153:
 2017 0110 3B6A     		ldr	r3, [r7, #32]
 2018 0112 1833     		adds	r3, r3, #24
 2019 0114 1946     		mov	r1, r3
 2020 0116 0C48     		ldr	r0, .L156+20
 2021 0118 FFF7FEFF 		bl	vListInsertEnd
 2022              	.L152:
 2023 011c FB69     		ldr	r3, [r7, #28]
 2024 011e BB60     		str	r3, [r7, #8]
 2025 0120 BB68     		ldr	r3, [r7, #8]
 2026              		.syntax unified
 2027              	@ 252 "Middlewares/stm32f746_lwip_withos_porting/FreeRTOS/portable/GCC/ARM_CM7/r0p1/portmacro.h" 1
 2028 0122 83F31188 		   msr basepri, r3 
 2029              	@ 0 "" 2
 2030              		.thumb
 2031              		.syntax unified
 2032 0126 00BF     		nop
 2033 0128 7B6A     		ldr	r3, [r7, #36]
 2034 012a 1846     		mov	r0, r3
 2035 012c 2837     		adds	r7, r7, #40
 2036 012e BD46     		mov	sp, r7
 2037              		@ sp needed
 2038 0130 80BD     		pop	{r7, pc}
 2039              	.L157:
 2040 0132 00BF     		.align	2
 2041              	.L156:
 2042 0134 00000000 		.word	uxSchedulerSuspended
 2043 0138 00000000 		.word	pxCurrentTCB
 2044 013c 00000000 		.word	xYieldPendings
ARM GAS  C:\msys64\tmp\cc2KM9Cz.s 			page 36


 2045 0140 00000000 		.word	uxTopReadyPriority
 2046 0144 00000000 		.word	pxReadyTasksLists
 2047 0148 00000000 		.word	xPendingReadyList
 2049              		.section	.rodata
 2050              		.align	2
 2051              	.LC0:
 2052 0000 49444C45 		.ascii	"IDLE\000"
 2052      00
 2053              		.section	.text.prvCreateIdleTasks,"ax",%progbits
 2054              		.align	1
 2055              		.syntax unified
 2056              		.thumb
 2057              		.thumb_func
 2059              	prvCreateIdleTasks:
 2060              		@ args = 0, pretend = 0, frame = 32
 2061              		@ frame_needed = 1, uses_anonymous_args = 0
 2062 0000 80B5     		push	{r7, lr}
 2063 0002 8AB0     		sub	sp, sp, #40
 2064 0004 02AF     		add	r7, sp, #8
 2065 0006 0123     		movs	r3, #1
 2066 0008 FB61     		str	r3, [r7, #28]
 2067 000a 3B46     		mov	r3, r7
 2068 000c 0022     		movs	r2, #0
 2069 000e 1A60     		str	r2, [r3]
 2070 0010 5A60     		str	r2, [r3, #4]
 2071 0012 9A60     		str	r2, [r3, #8]
 2072 0014 DA60     		str	r2, [r3, #12]
 2073 0016 0023     		movs	r3, #0
 2074 0018 3B61     		str	r3, [r7, #16]
 2075 001a 0023     		movs	r3, #0
 2076 001c 7B61     		str	r3, [r7, #20]
 2077 001e 11E0     		b	.L159
 2078              	.L162:
 2079 0020 1F4A     		ldr	r2, .L170
 2080 0022 7B69     		ldr	r3, [r7, #20]
 2081 0024 1344     		add	r3, r3, r2
 2082 0026 1978     		ldrb	r1, [r3]	@ zero_extendqisi2
 2083 0028 3A46     		mov	r2, r7
 2084 002a 7B69     		ldr	r3, [r7, #20]
 2085 002c 1344     		add	r3, r3, r2
 2086 002e 0A46     		mov	r2, r1
 2087 0030 1A70     		strb	r2, [r3]
 2088 0032 3A46     		mov	r2, r7
 2089 0034 7B69     		ldr	r3, [r7, #20]
 2090 0036 1344     		add	r3, r3, r2
 2091 0038 1B78     		ldrb	r3, [r3]	@ zero_extendqisi2
 2092 003a 002B     		cmp	r3, #0
 2093 003c 06D0     		beq	.L168
 2094 003e 7B69     		ldr	r3, [r7, #20]
 2095 0040 0133     		adds	r3, r3, #1
 2096 0042 7B61     		str	r3, [r7, #20]
 2097              	.L159:
 2098 0044 7B69     		ldr	r3, [r7, #20]
 2099 0046 0E2B     		cmp	r3, #14
 2100 0048 EAD9     		bls	.L162
 2101 004a 00E0     		b	.L161
 2102              	.L168:
ARM GAS  C:\msys64\tmp\cc2KM9Cz.s 			page 37


 2103 004c 00BF     		nop
 2104              	.L161:
 2105 004e 3A46     		mov	r2, r7
 2106 0050 7B69     		ldr	r3, [r7, #20]
 2107 0052 1344     		add	r3, r3, r2
 2108 0054 0022     		movs	r2, #0
 2109 0056 1A70     		strb	r2, [r3]
 2110 0058 0023     		movs	r3, #0
 2111 005a BB61     		str	r3, [r7, #24]
 2112 005c 16E0     		b	.L163
 2113              	.L166:
 2114 005e 114B     		ldr	r3, .L170+4
 2115 0060 3B61     		str	r3, [r7, #16]
 2116 0062 BB69     		ldr	r3, [r7, #24]
 2117 0064 9B00     		lsls	r3, r3, #2
 2118 0066 104A     		ldr	r2, .L170+8
 2119 0068 1344     		add	r3, r3, r2
 2120 006a 3946     		mov	r1, r7
 2121 006c 0193     		str	r3, [sp, #4]
 2122 006e 0023     		movs	r3, #0
 2123 0070 0093     		str	r3, [sp]
 2124 0072 0023     		movs	r3, #0
 2125 0074 4FF48072 		mov	r2, #256
 2126 0078 3869     		ldr	r0, [r7, #16]
 2127 007a FFF7FEFF 		bl	xTaskCreate
 2128 007e F861     		str	r0, [r7, #28]
 2129 0080 FB69     		ldr	r3, [r7, #28]
 2130 0082 012B     		cmp	r3, #1
 2131 0084 06D1     		bne	.L169
 2132 0086 BB69     		ldr	r3, [r7, #24]
 2133 0088 0133     		adds	r3, r3, #1
 2134 008a BB61     		str	r3, [r7, #24]
 2135              	.L163:
 2136 008c BB69     		ldr	r3, [r7, #24]
 2137 008e 002B     		cmp	r3, #0
 2138 0090 E5DD     		ble	.L166
 2139 0092 00E0     		b	.L165
 2140              	.L169:
 2141 0094 00BF     		nop
 2142              	.L165:
 2143 0096 FB69     		ldr	r3, [r7, #28]
 2144 0098 1846     		mov	r0, r3
 2145 009a 2037     		adds	r7, r7, #32
 2146 009c BD46     		mov	sp, r7
 2147              		@ sp needed
 2148 009e 80BD     		pop	{r7, pc}
 2149              	.L171:
 2150              		.align	2
 2151              	.L170:
 2152 00a0 00000000 		.word	.LC0
 2153 00a4 00000000 		.word	prvIdleTask
 2154 00a8 00000000 		.word	xIdleTaskHandles
 2156              		.section	.text.vTaskStartScheduler,"ax",%progbits
 2157              		.align	1
 2158              		.global	vTaskStartScheduler
 2159              		.syntax unified
 2160              		.thumb
ARM GAS  C:\msys64\tmp\cc2KM9Cz.s 			page 38


 2161              		.thumb_func
 2163              	vTaskStartScheduler:
 2164              		@ args = 0, pretend = 0, frame = 16
 2165              		@ frame_needed = 1, uses_anonymous_args = 0
 2166 0000 80B5     		push	{r7, lr}
 2167 0002 84B0     		sub	sp, sp, #16
 2168 0004 00AF     		add	r7, sp, #0
 2169 0006 FFF7FEFF 		bl	prvCreateIdleTasks
 2170 000a F860     		str	r0, [r7, #12]
 2171 000c FB68     		ldr	r3, [r7, #12]
 2172 000e 012B     		cmp	r3, #1
 2173 0010 18D1     		bne	.L173
 2174              		.syntax unified
 2175              	@ 214 "Middlewares/stm32f746_lwip_withos_porting/FreeRTOS/portable/GCC/ARM_CM7/r0p1/portmacro.h" 1
 2176 0012 4FF05003 		   mov r3, #80                                              
 2177 0016 72B6     	   cpsid i                                                 
 2178 0018 83F31188 	   msr basepri, r3                                         
 2179 001c BFF36F8F 	   isb                                                     
 2180 0020 BFF34F8F 	   dsb                                                     
 2181 0024 62B6     	   cpsie i                                                 
 2182              	
 2183              	@ 0 "" 2
 2184              		.thumb
 2185              		.syntax unified
 2186 0026 BB60     		str	r3, [r7, #8]
 2187 0028 00BF     		nop
 2188 002a 124B     		ldr	r3, .L176
 2189 002c 4FF0FF32 		mov	r2, #-1
 2190 0030 1A60     		str	r2, [r3]
 2191 0032 114B     		ldr	r3, .L176+4
 2192 0034 0122     		movs	r2, #1
 2193 0036 1A60     		str	r2, [r3]
 2194 0038 104B     		ldr	r3, .L176+8
 2195 003a 0022     		movs	r2, #0
 2196 003c 1A60     		str	r2, [r3]
 2197 003e FFF7FEFF 		bl	xPortStartScheduler
 2198 0042 11E0     		b	.L174
 2199              	.L173:
 2200 0044 FB68     		ldr	r3, [r7, #12]
 2201 0046 B3F1FF3F 		cmp	r3, #-1
 2202 004a 0DD1     		bne	.L174
 2203              		.syntax unified
 2204              	@ 214 "Middlewares/stm32f746_lwip_withos_porting/FreeRTOS/portable/GCC/ARM_CM7/r0p1/portmacro.h" 1
 2205 004c 4FF05003 		   mov r3, #80                                              
 2206 0050 72B6     	   cpsid i                                                 
 2207 0052 83F31188 	   msr basepri, r3                                         
 2208 0056 BFF36F8F 	   isb                                                     
 2209 005a BFF34F8F 	   dsb                                                     
 2210 005e 62B6     	   cpsie i                                                 
 2211              	
 2212              	@ 0 "" 2
 2213              		.thumb
 2214              		.syntax unified
 2215 0060 7B60     		str	r3, [r7, #4]
 2216 0062 00BF     		nop
 2217              	.L175:
 2218 0064 00BF     		nop
ARM GAS  C:\msys64\tmp\cc2KM9Cz.s 			page 39


 2219 0066 FDE7     		b	.L175
 2220              	.L174:
 2221 0068 054B     		ldr	r3, .L176+12
 2222 006a 1B68     		ldr	r3, [r3]
 2223 006c 00BF     		nop
 2224 006e 1037     		adds	r7, r7, #16
 2225 0070 BD46     		mov	sp, r7
 2226              		@ sp needed
 2227 0072 80BD     		pop	{r7, pc}
 2228              	.L177:
 2229              		.align	2
 2230              	.L176:
 2231 0074 00000000 		.word	xNextTaskUnblockTime
 2232 0078 00000000 		.word	xSchedulerRunning
 2233 007c 00000000 		.word	xTickCount
 2234 0080 00000000 		.word	uxTopUsedPriority
 2236              		.section	.text.vTaskEndScheduler,"ax",%progbits
 2237              		.align	1
 2238              		.global	vTaskEndScheduler
 2239              		.syntax unified
 2240              		.thumb
 2241              		.thumb_func
 2243              	vTaskEndScheduler:
 2244              		@ args = 0, pretend = 0, frame = 8
 2245              		@ frame_needed = 1, uses_anonymous_args = 0
 2246 0000 80B5     		push	{r7, lr}
 2247 0002 82B0     		sub	sp, sp, #8
 2248 0004 00AF     		add	r7, sp, #0
 2249 0006 0023     		movs	r3, #0
 2250 0008 7B60     		str	r3, [r7, #4]
 2251 000a 09E0     		b	.L179
 2252              	.L180:
 2253 000c 114A     		ldr	r2, .L181
 2254 000e 7B68     		ldr	r3, [r7, #4]
 2255 0010 52F82330 		ldr	r3, [r2, r3, lsl #2]
 2256 0014 1846     		mov	r0, r3
 2257 0016 FFF7FEFF 		bl	vTaskDelete
 2258 001a 7B68     		ldr	r3, [r7, #4]
 2259 001c 0133     		adds	r3, r3, #1
 2260 001e 7B60     		str	r3, [r7, #4]
 2261              	.L179:
 2262 0020 7B68     		ldr	r3, [r7, #4]
 2263 0022 002B     		cmp	r3, #0
 2264 0024 F2DD     		ble	.L180
 2265 0026 FFF7FEFF 		bl	prvCheckTasksWaitingTermination
 2266              		.syntax unified
 2267              	@ 214 "Middlewares/stm32f746_lwip_withos_porting/FreeRTOS/portable/GCC/ARM_CM7/r0p1/portmacro.h" 1
 2268 002a 4FF05003 		   mov r3, #80                                              
 2269 002e 72B6     	   cpsid i                                                 
 2270 0030 83F31188 	   msr basepri, r3                                         
 2271 0034 BFF36F8F 	   isb                                                     
 2272 0038 BFF34F8F 	   dsb                                                     
 2273 003c 62B6     	   cpsie i                                                 
 2274              	
 2275              	@ 0 "" 2
 2276              		.thumb
 2277              		.syntax unified
ARM GAS  C:\msys64\tmp\cc2KM9Cz.s 			page 40


 2278 003e 3B60     		str	r3, [r7]
 2279 0040 00BF     		nop
 2280 0042 054B     		ldr	r3, .L181+4
 2281 0044 0022     		movs	r2, #0
 2282 0046 1A60     		str	r2, [r3]
 2283 0048 FFF7FEFF 		bl	vPortEndScheduler
 2284 004c 00BF     		nop
 2285 004e 0837     		adds	r7, r7, #8
 2286 0050 BD46     		mov	sp, r7
 2287              		@ sp needed
 2288 0052 80BD     		pop	{r7, pc}
 2289              	.L182:
 2290              		.align	2
 2291              	.L181:
 2292 0054 00000000 		.word	xIdleTaskHandles
 2293 0058 00000000 		.word	xSchedulerRunning
 2295              		.section	.text.vTaskSuspendAll,"ax",%progbits
 2296              		.align	1
 2297              		.global	vTaskSuspendAll
 2298              		.syntax unified
 2299              		.thumb
 2300              		.thumb_func
 2302              	vTaskSuspendAll:
 2303              		@ args = 0, pretend = 0, frame = 0
 2304              		@ frame_needed = 1, uses_anonymous_args = 0
 2305              		@ link register save eliminated.
 2306 0000 80B4     		push	{r7}
 2307 0002 00AF     		add	r7, sp, #0
 2308 0004 044B     		ldr	r3, .L184
 2309 0006 1B68     		ldr	r3, [r3]
 2310 0008 0133     		adds	r3, r3, #1
 2311 000a 034A     		ldr	r2, .L184
 2312 000c 1360     		str	r3, [r2]
 2313 000e 00BF     		nop
 2314 0010 BD46     		mov	sp, r7
 2315              		@ sp needed
 2316 0012 5DF8047B 		ldr	r7, [sp], #4
 2317 0016 7047     		bx	lr
 2318              	.L185:
 2319              		.align	2
 2320              	.L184:
 2321 0018 00000000 		.word	uxSchedulerSuspended
 2323              		.section	.text.xTaskResumeAll,"ax",%progbits
 2324              		.align	1
 2325              		.global	xTaskResumeAll
 2326              		.syntax unified
 2327              		.thumb
 2328              		.thumb_func
 2330              	xTaskResumeAll:
 2331              		@ args = 0, pretend = 0, frame = 32
 2332              		@ frame_needed = 1, uses_anonymous_args = 0
 2333 0000 80B5     		push	{r7, lr}
 2334 0002 88B0     		sub	sp, sp, #32
 2335 0004 00AF     		add	r7, sp, #0
 2336 0006 0023     		movs	r3, #0
 2337 0008 FB61     		str	r3, [r7, #28]
 2338 000a 0023     		movs	r3, #0
ARM GAS  C:\msys64\tmp\cc2KM9Cz.s 			page 41


 2339 000c BB61     		str	r3, [r7, #24]
 2340 000e FFF7FEFF 		bl	vPortEnterCritical
 2341 0012 0023     		movs	r3, #0
 2342 0014 3B61     		str	r3, [r7, #16]
 2343 0016 764B     		ldr	r3, .L200
 2344 0018 1B68     		ldr	r3, [r3]
 2345 001a 002B     		cmp	r3, #0
 2346 001c 0DD1     		bne	.L187
 2347              		.syntax unified
 2348              	@ 214 "Middlewares/stm32f746_lwip_withos_porting/FreeRTOS/portable/GCC/ARM_CM7/r0p1/portmacro.h" 1
 2349 001e 4FF05003 		   mov r3, #80                                              
 2350 0022 72B6     	   cpsid i                                                 
 2351 0024 83F31188 	   msr basepri, r3                                         
 2352 0028 BFF36F8F 	   isb                                                     
 2353 002c BFF34F8F 	   dsb                                                     
 2354 0030 62B6     	   cpsie i                                                 
 2355              	
 2356              	@ 0 "" 2
 2357              		.thumb
 2358              		.syntax unified
 2359 0032 3B60     		str	r3, [r7]
 2360 0034 00BF     		nop
 2361              	.L188:
 2362 0036 00BF     		nop
 2363 0038 FDE7     		b	.L188
 2364              	.L187:
 2365 003a 6D4B     		ldr	r3, .L200
 2366 003c 1B68     		ldr	r3, [r3]
 2367 003e 013B     		subs	r3, r3, #1
 2368 0040 6B4A     		ldr	r2, .L200
 2369 0042 1360     		str	r3, [r2]
 2370 0044 6A4B     		ldr	r3, .L200
 2371 0046 1B68     		ldr	r3, [r3]
 2372 0048 002B     		cmp	r3, #0
 2373 004a 40F0CA80 		bne	.L189
 2374 004e 694B     		ldr	r3, .L200+4
 2375 0050 1B68     		ldr	r3, [r3]
 2376 0052 002B     		cmp	r3, #0
 2377 0054 00F0C580 		beq	.L189
 2378 0058 8EE0     		b	.L190
 2379              	.L194:
 2380 005a 674B     		ldr	r3, .L200+8
 2381 005c DB68     		ldr	r3, [r3, #12]
 2382 005e DB68     		ldr	r3, [r3, #12]
 2383 0060 FB61     		str	r3, [r7, #28]
 2384 0062 FB69     		ldr	r3, [r7, #28]
 2385 0064 9B6A     		ldr	r3, [r3, #40]
 2386 0066 FB60     		str	r3, [r7, #12]
 2387 0068 FB69     		ldr	r3, [r7, #28]
 2388 006a DB69     		ldr	r3, [r3, #28]
 2389 006c FA69     		ldr	r2, [r7, #28]
 2390 006e 126A     		ldr	r2, [r2, #32]
 2391 0070 9A60     		str	r2, [r3, #8]
 2392 0072 FB69     		ldr	r3, [r7, #28]
 2393 0074 1B6A     		ldr	r3, [r3, #32]
 2394 0076 FA69     		ldr	r2, [r7, #28]
 2395 0078 D269     		ldr	r2, [r2, #28]
ARM GAS  C:\msys64\tmp\cc2KM9Cz.s 			page 42


 2396 007a 5A60     		str	r2, [r3, #4]
 2397 007c FB68     		ldr	r3, [r7, #12]
 2398 007e 5A68     		ldr	r2, [r3, #4]
 2399 0080 FB69     		ldr	r3, [r7, #28]
 2400 0082 1833     		adds	r3, r3, #24
 2401 0084 9A42     		cmp	r2, r3
 2402 0086 03D1     		bne	.L191
 2403 0088 FB69     		ldr	r3, [r7, #28]
 2404 008a 1A6A     		ldr	r2, [r3, #32]
 2405 008c FB68     		ldr	r3, [r7, #12]
 2406 008e 5A60     		str	r2, [r3, #4]
 2407              	.L191:
 2408 0090 FB69     		ldr	r3, [r7, #28]
 2409 0092 0022     		movs	r2, #0
 2410 0094 9A62     		str	r2, [r3, #40]
 2411 0096 FB68     		ldr	r3, [r7, #12]
 2412 0098 1B68     		ldr	r3, [r3]
 2413 009a 5A1E     		subs	r2, r3, #1
 2414 009c FB68     		ldr	r3, [r7, #12]
 2415 009e 1A60     		str	r2, [r3]
 2416 00a0 FB69     		ldr	r3, [r7, #28]
 2417 00a2 5B69     		ldr	r3, [r3, #20]
 2418 00a4 BB60     		str	r3, [r7, #8]
 2419 00a6 FB69     		ldr	r3, [r7, #28]
 2420 00a8 9B68     		ldr	r3, [r3, #8]
 2421 00aa FA69     		ldr	r2, [r7, #28]
 2422 00ac D268     		ldr	r2, [r2, #12]
 2423 00ae 9A60     		str	r2, [r3, #8]
 2424 00b0 FB69     		ldr	r3, [r7, #28]
 2425 00b2 DB68     		ldr	r3, [r3, #12]
 2426 00b4 FA69     		ldr	r2, [r7, #28]
 2427 00b6 9268     		ldr	r2, [r2, #8]
 2428 00b8 5A60     		str	r2, [r3, #4]
 2429 00ba BB68     		ldr	r3, [r7, #8]
 2430 00bc 5A68     		ldr	r2, [r3, #4]
 2431 00be FB69     		ldr	r3, [r7, #28]
 2432 00c0 0433     		adds	r3, r3, #4
 2433 00c2 9A42     		cmp	r2, r3
 2434 00c4 03D1     		bne	.L192
 2435 00c6 FB69     		ldr	r3, [r7, #28]
 2436 00c8 DA68     		ldr	r2, [r3, #12]
 2437 00ca BB68     		ldr	r3, [r7, #8]
 2438 00cc 5A60     		str	r2, [r3, #4]
 2439              	.L192:
 2440 00ce FB69     		ldr	r3, [r7, #28]
 2441 00d0 0022     		movs	r2, #0
 2442 00d2 5A61     		str	r2, [r3, #20]
 2443 00d4 BB68     		ldr	r3, [r7, #8]
 2444 00d6 1B68     		ldr	r3, [r3]
 2445 00d8 5A1E     		subs	r2, r3, #1
 2446 00da BB68     		ldr	r3, [r7, #8]
 2447 00dc 1A60     		str	r2, [r3]
 2448 00de FB69     		ldr	r3, [r7, #28]
 2449 00e0 DB6A     		ldr	r3, [r3, #44]
 2450 00e2 0122     		movs	r2, #1
 2451 00e4 9A40     		lsls	r2, r2, r3
 2452 00e6 454B     		ldr	r3, .L200+12
ARM GAS  C:\msys64\tmp\cc2KM9Cz.s 			page 43


 2453 00e8 1B68     		ldr	r3, [r3]
 2454 00ea 1343     		orrs	r3, r3, r2
 2455 00ec 434A     		ldr	r2, .L200+12
 2456 00ee 1360     		str	r3, [r2]
 2457 00f0 FB69     		ldr	r3, [r7, #28]
 2458 00f2 DA6A     		ldr	r2, [r3, #44]
 2459 00f4 4249     		ldr	r1, .L200+16
 2460 00f6 1346     		mov	r3, r2
 2461 00f8 9B00     		lsls	r3, r3, #2
 2462 00fa 1344     		add	r3, r3, r2
 2463 00fc 9B00     		lsls	r3, r3, #2
 2464 00fe 0B44     		add	r3, r3, r1
 2465 0100 0433     		adds	r3, r3, #4
 2466 0102 1B68     		ldr	r3, [r3]
 2467 0104 7B60     		str	r3, [r7, #4]
 2468 0106 FB69     		ldr	r3, [r7, #28]
 2469 0108 7A68     		ldr	r2, [r7, #4]
 2470 010a 9A60     		str	r2, [r3, #8]
 2471 010c 7B68     		ldr	r3, [r7, #4]
 2472 010e 9A68     		ldr	r2, [r3, #8]
 2473 0110 FB69     		ldr	r3, [r7, #28]
 2474 0112 DA60     		str	r2, [r3, #12]
 2475 0114 7B68     		ldr	r3, [r7, #4]
 2476 0116 9B68     		ldr	r3, [r3, #8]
 2477 0118 FA69     		ldr	r2, [r7, #28]
 2478 011a 0432     		adds	r2, r2, #4
 2479 011c 5A60     		str	r2, [r3, #4]
 2480 011e FB69     		ldr	r3, [r7, #28]
 2481 0120 1A1D     		adds	r2, r3, #4
 2482 0122 7B68     		ldr	r3, [r7, #4]
 2483 0124 9A60     		str	r2, [r3, #8]
 2484 0126 FB69     		ldr	r3, [r7, #28]
 2485 0128 DA6A     		ldr	r2, [r3, #44]
 2486 012a 1346     		mov	r3, r2
 2487 012c 9B00     		lsls	r3, r3, #2
 2488 012e 1344     		add	r3, r3, r2
 2489 0130 9B00     		lsls	r3, r3, #2
 2490 0132 334A     		ldr	r2, .L200+16
 2491 0134 1A44     		add	r2, r2, r3
 2492 0136 FB69     		ldr	r3, [r7, #28]
 2493 0138 5A61     		str	r2, [r3, #20]
 2494 013a FB69     		ldr	r3, [r7, #28]
 2495 013c DA6A     		ldr	r2, [r3, #44]
 2496 013e 3049     		ldr	r1, .L200+16
 2497 0140 1346     		mov	r3, r2
 2498 0142 9B00     		lsls	r3, r3, #2
 2499 0144 1344     		add	r3, r3, r2
 2500 0146 9B00     		lsls	r3, r3, #2
 2501 0148 0B44     		add	r3, r3, r1
 2502 014a 1B68     		ldr	r3, [r3]
 2503 014c FA69     		ldr	r2, [r7, #28]
 2504 014e D26A     		ldr	r2, [r2, #44]
 2505 0150 591C     		adds	r1, r3, #1
 2506 0152 2B48     		ldr	r0, .L200+16
 2507 0154 1346     		mov	r3, r2
 2508 0156 9B00     		lsls	r3, r3, #2
 2509 0158 1344     		add	r3, r3, r2
ARM GAS  C:\msys64\tmp\cc2KM9Cz.s 			page 44


 2510 015a 9B00     		lsls	r3, r3, #2
 2511 015c 0344     		add	r3, r3, r0
 2512 015e 1960     		str	r1, [r3]
 2513 0160 FB69     		ldr	r3, [r7, #28]
 2514 0162 DA6A     		ldr	r2, [r3, #44]
 2515 0164 274B     		ldr	r3, .L200+20
 2516 0166 1B68     		ldr	r3, [r3]
 2517 0168 DB6A     		ldr	r3, [r3, #44]
 2518 016a 9A42     		cmp	r2, r3
 2519 016c 04D9     		bls	.L190
 2520 016e 264A     		ldr	r2, .L200+24
 2521 0170 3B69     		ldr	r3, [r7, #16]
 2522 0172 0121     		movs	r1, #1
 2523 0174 42F82310 		str	r1, [r2, r3, lsl #2]
 2524              	.L190:
 2525 0178 1F4B     		ldr	r3, .L200+8
 2526 017a 1B68     		ldr	r3, [r3]
 2527 017c 002B     		cmp	r3, #0
 2528 017e 7FF46CAF 		bne	.L194
 2529 0182 FB69     		ldr	r3, [r7, #28]
 2530 0184 002B     		cmp	r3, #0
 2531 0186 01D0     		beq	.L195
 2532 0188 FFF7FEFF 		bl	prvResetNextTaskUnblockTime
 2533              	.L195:
 2534 018c 1F4B     		ldr	r3, .L200+28
 2535 018e 1B68     		ldr	r3, [r3]
 2536 0190 7B61     		str	r3, [r7, #20]
 2537 0192 7B69     		ldr	r3, [r7, #20]
 2538 0194 002B     		cmp	r3, #0
 2539 0196 12D0     		beq	.L196
 2540              	.L198:
 2541 0198 FFF7FEFF 		bl	xTaskIncrementTick
 2542 019c 0346     		mov	r3, r0
 2543 019e 002B     		cmp	r3, #0
 2544 01a0 04D0     		beq	.L197
 2545 01a2 194A     		ldr	r2, .L200+24
 2546 01a4 3B69     		ldr	r3, [r7, #16]
 2547 01a6 0121     		movs	r1, #1
 2548 01a8 42F82310 		str	r1, [r2, r3, lsl #2]
 2549              	.L197:
 2550 01ac 7B69     		ldr	r3, [r7, #20]
 2551 01ae 013B     		subs	r3, r3, #1
 2552 01b0 7B61     		str	r3, [r7, #20]
 2553 01b2 7B69     		ldr	r3, [r7, #20]
 2554 01b4 002B     		cmp	r3, #0
 2555 01b6 EFD1     		bne	.L198
 2556 01b8 144B     		ldr	r3, .L200+28
 2557 01ba 0022     		movs	r2, #0
 2558 01bc 1A60     		str	r2, [r3]
 2559              	.L196:
 2560 01be 124A     		ldr	r2, .L200+24
 2561 01c0 3B69     		ldr	r3, [r7, #16]
 2562 01c2 52F82330 		ldr	r3, [r2, r3, lsl #2]
 2563 01c6 002B     		cmp	r3, #0
 2564 01c8 0BD0     		beq	.L189
 2565 01ca 0123     		movs	r3, #1
 2566 01cc BB61     		str	r3, [r7, #24]
ARM GAS  C:\msys64\tmp\cc2KM9Cz.s 			page 45


 2567 01ce 0D4B     		ldr	r3, .L200+20
 2568 01d0 1B68     		ldr	r3, [r3]
 2569 01d2 0F4B     		ldr	r3, .L200+32
 2570 01d4 4FF08052 		mov	r2, #268435456
 2571 01d8 1A60     		str	r2, [r3]
 2572              		.syntax unified
 2573              	@ 4136 "Middlewares/stm32f746_lwip_withos_porting/FreeRTOS/Core/Src/tasks.c" 1
 2574 01da BFF34F8F 		dsb
 2575              	@ 0 "" 2
 2576              	@ 4136 "Middlewares/stm32f746_lwip_withos_porting/FreeRTOS/Core/Src/tasks.c" 1
 2577 01de BFF36F8F 		isb
 2578              	@ 0 "" 2
 2579              		.thumb
 2580              		.syntax unified
 2581              	.L189:
 2582 01e2 FFF7FEFF 		bl	vPortExitCritical
 2583 01e6 BB69     		ldr	r3, [r7, #24]
 2584 01e8 1846     		mov	r0, r3
 2585 01ea 2037     		adds	r7, r7, #32
 2586 01ec BD46     		mov	sp, r7
 2587              		@ sp needed
 2588 01ee 80BD     		pop	{r7, pc}
 2589              	.L201:
 2590              		.align	2
 2591              	.L200:
 2592 01f0 00000000 		.word	uxSchedulerSuspended
 2593 01f4 00000000 		.word	uxCurrentNumberOfTasks
 2594 01f8 00000000 		.word	xPendingReadyList
 2595 01fc 00000000 		.word	uxTopReadyPriority
 2596 0200 00000000 		.word	pxReadyTasksLists
 2597 0204 00000000 		.word	pxCurrentTCB
 2598 0208 00000000 		.word	xYieldPendings
 2599 020c 00000000 		.word	xPendedTicks
 2600 0210 04ED00E0 		.word	-536810236
 2602              		.section	.text.xTaskGetTickCount,"ax",%progbits
 2603              		.align	1
 2604              		.global	xTaskGetTickCount
 2605              		.syntax unified
 2606              		.thumb
 2607              		.thumb_func
 2609              	xTaskGetTickCount:
 2610              		@ args = 0, pretend = 0, frame = 8
 2611              		@ frame_needed = 1, uses_anonymous_args = 0
 2612              		@ link register save eliminated.
 2613 0000 80B4     		push	{r7}
 2614 0002 83B0     		sub	sp, sp, #12
 2615 0004 00AF     		add	r7, sp, #0
 2616 0006 054B     		ldr	r3, .L204
 2617 0008 1B68     		ldr	r3, [r3]
 2618 000a 7B60     		str	r3, [r7, #4]
 2619 000c 7B68     		ldr	r3, [r7, #4]
 2620 000e 1846     		mov	r0, r3
 2621 0010 0C37     		adds	r7, r7, #12
 2622 0012 BD46     		mov	sp, r7
 2623              		@ sp needed
 2624 0014 5DF8047B 		ldr	r7, [sp], #4
 2625 0018 7047     		bx	lr
ARM GAS  C:\msys64\tmp\cc2KM9Cz.s 			page 46


 2626              	.L205:
 2627 001a 00BF     		.align	2
 2628              	.L204:
 2629 001c 00000000 		.word	xTickCount
 2631              		.section	.text.xTaskGetTickCountFromISR,"ax",%progbits
 2632              		.align	1
 2633              		.global	xTaskGetTickCountFromISR
 2634              		.syntax unified
 2635              		.thumb
 2636              		.thumb_func
 2638              	xTaskGetTickCountFromISR:
 2639              		@ args = 0, pretend = 0, frame = 8
 2640              		@ frame_needed = 1, uses_anonymous_args = 0
 2641 0000 80B5     		push	{r7, lr}
 2642 0002 82B0     		sub	sp, sp, #8
 2643 0004 00AF     		add	r7, sp, #0
 2644 0006 FFF7FEFF 		bl	vPortValidateInterruptPriority
 2645 000a 0023     		movs	r3, #0
 2646 000c 7B60     		str	r3, [r7, #4]
 2647 000e 044B     		ldr	r3, .L208
 2648 0010 1B68     		ldr	r3, [r3]
 2649 0012 3B60     		str	r3, [r7]
 2650 0014 3B68     		ldr	r3, [r7]
 2651 0016 1846     		mov	r0, r3
 2652 0018 0837     		adds	r7, r7, #8
 2653 001a BD46     		mov	sp, r7
 2654              		@ sp needed
 2655 001c 80BD     		pop	{r7, pc}
 2656              	.L209:
 2657 001e 00BF     		.align	2
 2658              	.L208:
 2659 0020 00000000 		.word	xTickCount
 2661              		.section	.text.uxTaskGetNumberOfTasks,"ax",%progbits
 2662              		.align	1
 2663              		.global	uxTaskGetNumberOfTasks
 2664              		.syntax unified
 2665              		.thumb
 2666              		.thumb_func
 2668              	uxTaskGetNumberOfTasks:
 2669              		@ args = 0, pretend = 0, frame = 0
 2670              		@ frame_needed = 1, uses_anonymous_args = 0
 2671              		@ link register save eliminated.
 2672 0000 80B4     		push	{r7}
 2673 0002 00AF     		add	r7, sp, #0
 2674 0004 034B     		ldr	r3, .L212
 2675 0006 1B68     		ldr	r3, [r3]
 2676 0008 1846     		mov	r0, r3
 2677 000a BD46     		mov	sp, r7
 2678              		@ sp needed
 2679 000c 5DF8047B 		ldr	r7, [sp], #4
 2680 0010 7047     		bx	lr
 2681              	.L213:
 2682 0012 00BF     		.align	2
 2683              	.L212:
 2684 0014 00000000 		.word	uxCurrentNumberOfTasks
 2686              		.section	.text.pcTaskGetName,"ax",%progbits
 2687              		.align	1
ARM GAS  C:\msys64\tmp\cc2KM9Cz.s 			page 47


 2688              		.global	pcTaskGetName
 2689              		.syntax unified
 2690              		.thumb
 2691              		.thumb_func
 2693              	pcTaskGetName:
 2694              		@ args = 0, pretend = 0, frame = 16
 2695              		@ frame_needed = 1, uses_anonymous_args = 0
 2696              		@ link register save eliminated.
 2697 0000 80B4     		push	{r7}
 2698 0002 85B0     		sub	sp, sp, #20
 2699 0004 00AF     		add	r7, sp, #0
 2700 0006 7860     		str	r0, [r7, #4]
 2701 0008 7B68     		ldr	r3, [r7, #4]
 2702 000a 002B     		cmp	r3, #0
 2703 000c 02D1     		bne	.L215
 2704 000e 0F4B     		ldr	r3, .L220
 2705 0010 1B68     		ldr	r3, [r3]
 2706 0012 00E0     		b	.L216
 2707              	.L215:
 2708 0014 7B68     		ldr	r3, [r7, #4]
 2709              	.L216:
 2710 0016 FB60     		str	r3, [r7, #12]
 2711 0018 FB68     		ldr	r3, [r7, #12]
 2712 001a 002B     		cmp	r3, #0
 2713 001c 0DD1     		bne	.L217
 2714              		.syntax unified
 2715              	@ 214 "Middlewares/stm32f746_lwip_withos_porting/FreeRTOS/portable/GCC/ARM_CM7/r0p1/portmacro.h" 1
 2716 001e 4FF05003 		   mov r3, #80                                              
 2717 0022 72B6     	   cpsid i                                                 
 2718 0024 83F31188 	   msr basepri, r3                                         
 2719 0028 BFF36F8F 	   isb                                                     
 2720 002c BFF34F8F 	   dsb                                                     
 2721 0030 62B6     	   cpsie i                                                 
 2722              	
 2723              	@ 0 "" 2
 2724              		.thumb
 2725              		.syntax unified
 2726 0032 BB60     		str	r3, [r7, #8]
 2727 0034 00BF     		nop
 2728              	.L218:
 2729 0036 00BF     		nop
 2730 0038 FDE7     		b	.L218
 2731              	.L217:
 2732 003a FB68     		ldr	r3, [r7, #12]
 2733 003c 3433     		adds	r3, r3, #52
 2734 003e 1846     		mov	r0, r3
 2735 0040 1437     		adds	r7, r7, #20
 2736 0042 BD46     		mov	sp, r7
 2737              		@ sp needed
 2738 0044 5DF8047B 		ldr	r7, [sp], #4
 2739 0048 7047     		bx	lr
 2740              	.L221:
 2741 004a 00BF     		.align	2
 2742              	.L220:
 2743 004c 00000000 		.word	pxCurrentTCB
 2745              		.section	.text.xTaskCatchUpTicks,"ax",%progbits
 2746              		.align	1
ARM GAS  C:\msys64\tmp\cc2KM9Cz.s 			page 48


 2747              		.global	xTaskCatchUpTicks
 2748              		.syntax unified
 2749              		.thumb
 2750              		.thumb_func
 2752              	xTaskCatchUpTicks:
 2753              		@ args = 0, pretend = 0, frame = 16
 2754              		@ frame_needed = 1, uses_anonymous_args = 0
 2755 0000 80B5     		push	{r7, lr}
 2756 0002 84B0     		sub	sp, sp, #16
 2757 0004 00AF     		add	r7, sp, #0
 2758 0006 7860     		str	r0, [r7, #4]
 2759 0008 124B     		ldr	r3, .L226
 2760 000a 1B68     		ldr	r3, [r3]
 2761 000c 002B     		cmp	r3, #0
 2762 000e 0DD0     		beq	.L223
 2763              		.syntax unified
 2764              	@ 214 "Middlewares/stm32f746_lwip_withos_porting/FreeRTOS/portable/GCC/ARM_CM7/r0p1/portmacro.h" 1
 2765 0010 4FF05003 		   mov r3, #80                                              
 2766 0014 72B6     	   cpsid i                                                 
 2767 0016 83F31188 	   msr basepri, r3                                         
 2768 001a BFF36F8F 	   isb                                                     
 2769 001e BFF34F8F 	   dsb                                                     
 2770 0022 62B6     	   cpsie i                                                 
 2771              	
 2772              	@ 0 "" 2
 2773              		.thumb
 2774              		.syntax unified
 2775 0024 BB60     		str	r3, [r7, #8]
 2776 0026 00BF     		nop
 2777              	.L224:
 2778 0028 00BF     		nop
 2779 002a FDE7     		b	.L224
 2780              	.L223:
 2781 002c FFF7FEFF 		bl	vTaskSuspendAll
 2782 0030 FFF7FEFF 		bl	vPortEnterCritical
 2783 0034 084B     		ldr	r3, .L226+4
 2784 0036 1A68     		ldr	r2, [r3]
 2785 0038 7B68     		ldr	r3, [r7, #4]
 2786 003a 1344     		add	r3, r3, r2
 2787 003c 064A     		ldr	r2, .L226+4
 2788 003e 1360     		str	r3, [r2]
 2789 0040 FFF7FEFF 		bl	vPortExitCritical
 2790 0044 FFF7FEFF 		bl	xTaskResumeAll
 2791 0048 F860     		str	r0, [r7, #12]
 2792 004a FB68     		ldr	r3, [r7, #12]
 2793 004c 1846     		mov	r0, r3
 2794 004e 1037     		adds	r7, r7, #16
 2795 0050 BD46     		mov	sp, r7
 2796              		@ sp needed
 2797 0052 80BD     		pop	{r7, pc}
 2798              	.L227:
 2799              		.align	2
 2800              	.L226:
 2801 0054 00000000 		.word	uxSchedulerSuspended
 2802 0058 00000000 		.word	xPendedTicks
 2804              		.section	.text.xTaskIncrementTick,"ax",%progbits
 2805              		.align	1
ARM GAS  C:\msys64\tmp\cc2KM9Cz.s 			page 49


 2806              		.global	xTaskIncrementTick
 2807              		.syntax unified
 2808              		.thumb
 2809              		.thumb_func
 2811              	xTaskIncrementTick:
 2812              		@ args = 0, pretend = 0, frame = 40
 2813              		@ frame_needed = 1, uses_anonymous_args = 0
 2814 0000 80B5     		push	{r7, lr}
 2815 0002 8AB0     		sub	sp, sp, #40
 2816 0004 00AF     		add	r7, sp, #0
 2817 0006 0023     		movs	r3, #0
 2818 0008 7B62     		str	r3, [r7, #36]
 2819 000a 804B     		ldr	r3, .L244
 2820 000c 1B68     		ldr	r3, [r3]
 2821 000e 002B     		cmp	r3, #0
 2822 0010 40F0F180 		bne	.L229
 2823 0014 7E4B     		ldr	r3, .L244+4
 2824 0016 1B68     		ldr	r3, [r3]
 2825 0018 0133     		adds	r3, r3, #1
 2826 001a 3B62     		str	r3, [r7, #32]
 2827 001c 7C4A     		ldr	r2, .L244+4
 2828 001e 3B6A     		ldr	r3, [r7, #32]
 2829 0020 1360     		str	r3, [r2]
 2830 0022 3B6A     		ldr	r3, [r7, #32]
 2831 0024 002B     		cmp	r3, #0
 2832 0026 23D1     		bne	.L230
 2833 0028 7A4B     		ldr	r3, .L244+8
 2834 002a 1B68     		ldr	r3, [r3]
 2835 002c 1B68     		ldr	r3, [r3]
 2836 002e 002B     		cmp	r3, #0
 2837 0030 0DD0     		beq	.L231
 2838              		.syntax unified
 2839              	@ 214 "Middlewares/stm32f746_lwip_withos_porting/FreeRTOS/portable/GCC/ARM_CM7/r0p1/portmacro.h" 1
 2840 0032 4FF05003 		   mov r3, #80                                              
 2841 0036 72B6     	   cpsid i                                                 
 2842 0038 83F31188 	   msr basepri, r3                                         
 2843 003c BFF36F8F 	   isb                                                     
 2844 0040 BFF34F8F 	   dsb                                                     
 2845 0044 62B6     	   cpsie i                                                 
 2846              	
 2847              	@ 0 "" 2
 2848              		.thumb
 2849              		.syntax unified
 2850 0046 7B60     		str	r3, [r7, #4]
 2851 0048 00BF     		nop
 2852              	.L232:
 2853 004a 00BF     		nop
 2854 004c FDE7     		b	.L232
 2855              	.L231:
 2856 004e 714B     		ldr	r3, .L244+8
 2857 0050 1B68     		ldr	r3, [r3]
 2858 0052 FB61     		str	r3, [r7, #28]
 2859 0054 704B     		ldr	r3, .L244+12
 2860 0056 1B68     		ldr	r3, [r3]
 2861 0058 6E4A     		ldr	r2, .L244+8
 2862 005a 1360     		str	r3, [r2]
 2863 005c 6E4A     		ldr	r2, .L244+12
ARM GAS  C:\msys64\tmp\cc2KM9Cz.s 			page 50


 2864 005e FB69     		ldr	r3, [r7, #28]
 2865 0060 1360     		str	r3, [r2]
 2866 0062 6E4B     		ldr	r3, .L244+16
 2867 0064 1B68     		ldr	r3, [r3]
 2868 0066 0133     		adds	r3, r3, #1
 2869 0068 6C4A     		ldr	r2, .L244+16
 2870 006a 1360     		str	r3, [r2]
 2871 006c FFF7FEFF 		bl	prvResetNextTaskUnblockTime
 2872              	.L230:
 2873 0070 6B4B     		ldr	r3, .L244+20
 2874 0072 1B68     		ldr	r3, [r3]
 2875 0074 3A6A     		ldr	r2, [r7, #32]
 2876 0076 9A42     		cmp	r2, r3
 2877 0078 C0F0A880 		bcc	.L233
 2878              	.L240:
 2879 007c 654B     		ldr	r3, .L244+8
 2880 007e 1B68     		ldr	r3, [r3]
 2881 0080 1B68     		ldr	r3, [r3]
 2882 0082 002B     		cmp	r3, #0
 2883 0084 04D1     		bne	.L234
 2884 0086 664B     		ldr	r3, .L244+20
 2885 0088 4FF0FF32 		mov	r2, #-1
 2886 008c 1A60     		str	r2, [r3]
 2887 008e 9DE0     		b	.L233
 2888              	.L234:
 2889 0090 604B     		ldr	r3, .L244+8
 2890 0092 1B68     		ldr	r3, [r3]
 2891 0094 DB68     		ldr	r3, [r3, #12]
 2892 0096 DB68     		ldr	r3, [r3, #12]
 2893 0098 BB61     		str	r3, [r7, #24]
 2894 009a BB69     		ldr	r3, [r7, #24]
 2895 009c 5B68     		ldr	r3, [r3, #4]
 2896 009e 7B61     		str	r3, [r7, #20]
 2897 00a0 3A6A     		ldr	r2, [r7, #32]
 2898 00a2 7B69     		ldr	r3, [r7, #20]
 2899 00a4 9A42     		cmp	r2, r3
 2900 00a6 03D2     		bcs	.L235
 2901 00a8 5D4A     		ldr	r2, .L244+20
 2902 00aa 7B69     		ldr	r3, [r7, #20]
 2903 00ac 1360     		str	r3, [r2]
 2904 00ae 8DE0     		b	.L233
 2905              	.L235:
 2906 00b0 BB69     		ldr	r3, [r7, #24]
 2907 00b2 5B69     		ldr	r3, [r3, #20]
 2908 00b4 3B61     		str	r3, [r7, #16]
 2909 00b6 BB69     		ldr	r3, [r7, #24]
 2910 00b8 9B68     		ldr	r3, [r3, #8]
 2911 00ba BA69     		ldr	r2, [r7, #24]
 2912 00bc D268     		ldr	r2, [r2, #12]
 2913 00be 9A60     		str	r2, [r3, #8]
 2914 00c0 BB69     		ldr	r3, [r7, #24]
 2915 00c2 DB68     		ldr	r3, [r3, #12]
 2916 00c4 BA69     		ldr	r2, [r7, #24]
 2917 00c6 9268     		ldr	r2, [r2, #8]
 2918 00c8 5A60     		str	r2, [r3, #4]
 2919 00ca 3B69     		ldr	r3, [r7, #16]
 2920 00cc 5A68     		ldr	r2, [r3, #4]
ARM GAS  C:\msys64\tmp\cc2KM9Cz.s 			page 51


 2921 00ce BB69     		ldr	r3, [r7, #24]
 2922 00d0 0433     		adds	r3, r3, #4
 2923 00d2 9A42     		cmp	r2, r3
 2924 00d4 03D1     		bne	.L236
 2925 00d6 BB69     		ldr	r3, [r7, #24]
 2926 00d8 DA68     		ldr	r2, [r3, #12]
 2927 00da 3B69     		ldr	r3, [r7, #16]
 2928 00dc 5A60     		str	r2, [r3, #4]
 2929              	.L236:
 2930 00de BB69     		ldr	r3, [r7, #24]
 2931 00e0 0022     		movs	r2, #0
 2932 00e2 5A61     		str	r2, [r3, #20]
 2933 00e4 3B69     		ldr	r3, [r7, #16]
 2934 00e6 1B68     		ldr	r3, [r3]
 2935 00e8 5A1E     		subs	r2, r3, #1
 2936 00ea 3B69     		ldr	r3, [r7, #16]
 2937 00ec 1A60     		str	r2, [r3]
 2938 00ee BB69     		ldr	r3, [r7, #24]
 2939 00f0 9B6A     		ldr	r3, [r3, #40]
 2940 00f2 002B     		cmp	r3, #0
 2941 00f4 1ED0     		beq	.L237
 2942 00f6 BB69     		ldr	r3, [r7, #24]
 2943 00f8 9B6A     		ldr	r3, [r3, #40]
 2944 00fa FB60     		str	r3, [r7, #12]
 2945 00fc BB69     		ldr	r3, [r7, #24]
 2946 00fe DB69     		ldr	r3, [r3, #28]
 2947 0100 BA69     		ldr	r2, [r7, #24]
 2948 0102 126A     		ldr	r2, [r2, #32]
 2949 0104 9A60     		str	r2, [r3, #8]
 2950 0106 BB69     		ldr	r3, [r7, #24]
 2951 0108 1B6A     		ldr	r3, [r3, #32]
 2952 010a BA69     		ldr	r2, [r7, #24]
 2953 010c D269     		ldr	r2, [r2, #28]
 2954 010e 5A60     		str	r2, [r3, #4]
 2955 0110 FB68     		ldr	r3, [r7, #12]
 2956 0112 5A68     		ldr	r2, [r3, #4]
 2957 0114 BB69     		ldr	r3, [r7, #24]
 2958 0116 1833     		adds	r3, r3, #24
 2959 0118 9A42     		cmp	r2, r3
 2960 011a 03D1     		bne	.L238
 2961 011c BB69     		ldr	r3, [r7, #24]
 2962 011e 1A6A     		ldr	r2, [r3, #32]
 2963 0120 FB68     		ldr	r3, [r7, #12]
 2964 0122 5A60     		str	r2, [r3, #4]
 2965              	.L238:
 2966 0124 BB69     		ldr	r3, [r7, #24]
 2967 0126 0022     		movs	r2, #0
 2968 0128 9A62     		str	r2, [r3, #40]
 2969 012a FB68     		ldr	r3, [r7, #12]
 2970 012c 1B68     		ldr	r3, [r3]
 2971 012e 5A1E     		subs	r2, r3, #1
 2972 0130 FB68     		ldr	r3, [r7, #12]
 2973 0132 1A60     		str	r2, [r3]
 2974              	.L237:
 2975 0134 BB69     		ldr	r3, [r7, #24]
 2976 0136 DB6A     		ldr	r3, [r3, #44]
 2977 0138 0122     		movs	r2, #1
ARM GAS  C:\msys64\tmp\cc2KM9Cz.s 			page 52


 2978 013a 9A40     		lsls	r2, r2, r3
 2979 013c 394B     		ldr	r3, .L244+24
 2980 013e 1B68     		ldr	r3, [r3]
 2981 0140 1343     		orrs	r3, r3, r2
 2982 0142 384A     		ldr	r2, .L244+24
 2983 0144 1360     		str	r3, [r2]
 2984 0146 BB69     		ldr	r3, [r7, #24]
 2985 0148 DA6A     		ldr	r2, [r3, #44]
 2986 014a 3749     		ldr	r1, .L244+28
 2987 014c 1346     		mov	r3, r2
 2988 014e 9B00     		lsls	r3, r3, #2
 2989 0150 1344     		add	r3, r3, r2
 2990 0152 9B00     		lsls	r3, r3, #2
 2991 0154 0B44     		add	r3, r3, r1
 2992 0156 0433     		adds	r3, r3, #4
 2993 0158 1B68     		ldr	r3, [r3]
 2994 015a BB60     		str	r3, [r7, #8]
 2995 015c BB69     		ldr	r3, [r7, #24]
 2996 015e BA68     		ldr	r2, [r7, #8]
 2997 0160 9A60     		str	r2, [r3, #8]
 2998 0162 BB68     		ldr	r3, [r7, #8]
 2999 0164 9A68     		ldr	r2, [r3, #8]
 3000 0166 BB69     		ldr	r3, [r7, #24]
 3001 0168 DA60     		str	r2, [r3, #12]
 3002 016a BB68     		ldr	r3, [r7, #8]
 3003 016c 9B68     		ldr	r3, [r3, #8]
 3004 016e BA69     		ldr	r2, [r7, #24]
 3005 0170 0432     		adds	r2, r2, #4
 3006 0172 5A60     		str	r2, [r3, #4]
 3007 0174 BB69     		ldr	r3, [r7, #24]
 3008 0176 1A1D     		adds	r2, r3, #4
 3009 0178 BB68     		ldr	r3, [r7, #8]
 3010 017a 9A60     		str	r2, [r3, #8]
 3011 017c BB69     		ldr	r3, [r7, #24]
 3012 017e DA6A     		ldr	r2, [r3, #44]
 3013 0180 1346     		mov	r3, r2
 3014 0182 9B00     		lsls	r3, r3, #2
 3015 0184 1344     		add	r3, r3, r2
 3016 0186 9B00     		lsls	r3, r3, #2
 3017 0188 274A     		ldr	r2, .L244+28
 3018 018a 1A44     		add	r2, r2, r3
 3019 018c BB69     		ldr	r3, [r7, #24]
 3020 018e 5A61     		str	r2, [r3, #20]
 3021 0190 BB69     		ldr	r3, [r7, #24]
 3022 0192 DA6A     		ldr	r2, [r3, #44]
 3023 0194 2449     		ldr	r1, .L244+28
 3024 0196 1346     		mov	r3, r2
 3025 0198 9B00     		lsls	r3, r3, #2
 3026 019a 1344     		add	r3, r3, r2
 3027 019c 9B00     		lsls	r3, r3, #2
 3028 019e 0B44     		add	r3, r3, r1
 3029 01a0 1B68     		ldr	r3, [r3]
 3030 01a2 BA69     		ldr	r2, [r7, #24]
 3031 01a4 D26A     		ldr	r2, [r2, #44]
 3032 01a6 591C     		adds	r1, r3, #1
 3033 01a8 1F48     		ldr	r0, .L244+28
 3034 01aa 1346     		mov	r3, r2
ARM GAS  C:\msys64\tmp\cc2KM9Cz.s 			page 53


 3035 01ac 9B00     		lsls	r3, r3, #2
 3036 01ae 1344     		add	r3, r3, r2
 3037 01b0 9B00     		lsls	r3, r3, #2
 3038 01b2 0344     		add	r3, r3, r0
 3039 01b4 1960     		str	r1, [r3]
 3040 01b6 BB69     		ldr	r3, [r7, #24]
 3041 01b8 DA6A     		ldr	r2, [r3, #44]
 3042 01ba 1C4B     		ldr	r3, .L244+32
 3043 01bc 1B68     		ldr	r3, [r3]
 3044 01be DB6A     		ldr	r3, [r3, #44]
 3045 01c0 9A42     		cmp	r2, r3
 3046 01c2 7FF65BAF 		bls	.L240
 3047 01c6 0123     		movs	r3, #1
 3048 01c8 7B62     		str	r3, [r7, #36]
 3049 01ca 57E7     		b	.L240
 3050              	.L233:
 3051 01cc 174B     		ldr	r3, .L244+32
 3052 01ce 1B68     		ldr	r3, [r3]
 3053 01d0 DA6A     		ldr	r2, [r3, #44]
 3054 01d2 1549     		ldr	r1, .L244+28
 3055 01d4 1346     		mov	r3, r2
 3056 01d6 9B00     		lsls	r3, r3, #2
 3057 01d8 1344     		add	r3, r3, r2
 3058 01da 9B00     		lsls	r3, r3, #2
 3059 01dc 0B44     		add	r3, r3, r1
 3060 01de 1B68     		ldr	r3, [r3]
 3061 01e0 012B     		cmp	r3, #1
 3062 01e2 01D9     		bls	.L241
 3063 01e4 0123     		movs	r3, #1
 3064 01e6 7B62     		str	r3, [r7, #36]
 3065              	.L241:
 3066 01e8 114B     		ldr	r3, .L244+36
 3067 01ea 1B68     		ldr	r3, [r3]
 3068 01ec 002B     		cmp	r3, #0
 3069 01ee 07D0     		beq	.L242
 3070 01f0 0123     		movs	r3, #1
 3071 01f2 7B62     		str	r3, [r7, #36]
 3072 01f4 04E0     		b	.L242
 3073              	.L229:
 3074 01f6 0F4B     		ldr	r3, .L244+40
 3075 01f8 1B68     		ldr	r3, [r3]
 3076 01fa 0133     		adds	r3, r3, #1
 3077 01fc 0D4A     		ldr	r2, .L244+40
 3078 01fe 1360     		str	r3, [r2]
 3079              	.L242:
 3080 0200 7B6A     		ldr	r3, [r7, #36]
 3081 0202 1846     		mov	r0, r3
 3082 0204 2837     		adds	r7, r7, #40
 3083 0206 BD46     		mov	sp, r7
 3084              		@ sp needed
 3085 0208 80BD     		pop	{r7, pc}
 3086              	.L245:
 3087 020a 00BF     		.align	2
 3088              	.L244:
 3089 020c 00000000 		.word	uxSchedulerSuspended
 3090 0210 00000000 		.word	xTickCount
 3091 0214 00000000 		.word	pxDelayedTaskList
ARM GAS  C:\msys64\tmp\cc2KM9Cz.s 			page 54


 3092 0218 00000000 		.word	pxOverflowDelayedTaskList
 3093 021c 00000000 		.word	xNumOfOverflows
 3094 0220 00000000 		.word	xNextTaskUnblockTime
 3095 0224 00000000 		.word	uxTopReadyPriority
 3096 0228 00000000 		.word	pxReadyTasksLists
 3097 022c 00000000 		.word	pxCurrentTCB
 3098 0230 00000000 		.word	xYieldPendings
 3099 0234 00000000 		.word	xPendedTicks
 3101              		.section	.text.vTaskSetApplicationTaskTag,"ax",%progbits
 3102              		.align	1
 3103              		.global	vTaskSetApplicationTaskTag
 3104              		.syntax unified
 3105              		.thumb
 3106              		.thumb_func
 3108              	vTaskSetApplicationTaskTag:
 3109              		@ args = 0, pretend = 0, frame = 16
 3110              		@ frame_needed = 1, uses_anonymous_args = 0
 3111 0000 80B5     		push	{r7, lr}
 3112 0002 84B0     		sub	sp, sp, #16
 3113 0004 00AF     		add	r7, sp, #0
 3114 0006 7860     		str	r0, [r7, #4]
 3115 0008 3960     		str	r1, [r7]
 3116 000a 7B68     		ldr	r3, [r7, #4]
 3117 000c 002B     		cmp	r3, #0
 3118 000e 03D1     		bne	.L247
 3119 0010 084B     		ldr	r3, .L249
 3120 0012 1B68     		ldr	r3, [r3]
 3121 0014 FB60     		str	r3, [r7, #12]
 3122 0016 01E0     		b	.L248
 3123              	.L247:
 3124 0018 7B68     		ldr	r3, [r7, #4]
 3125 001a FB60     		str	r3, [r7, #12]
 3126              	.L248:
 3127 001c FFF7FEFF 		bl	vPortEnterCritical
 3128 0020 FB68     		ldr	r3, [r7, #12]
 3129 0022 3A68     		ldr	r2, [r7]
 3130 0024 DA64     		str	r2, [r3, #76]
 3131 0026 FFF7FEFF 		bl	vPortExitCritical
 3132 002a 00BF     		nop
 3133 002c 1037     		adds	r7, r7, #16
 3134 002e BD46     		mov	sp, r7
 3135              		@ sp needed
 3136 0030 80BD     		pop	{r7, pc}
 3137              	.L250:
 3138 0032 00BF     		.align	2
 3139              	.L249:
 3140 0034 00000000 		.word	pxCurrentTCB
 3142              		.section	.text.xTaskGetApplicationTaskTag,"ax",%progbits
 3143              		.align	1
 3144              		.global	xTaskGetApplicationTaskTag
 3145              		.syntax unified
 3146              		.thumb
 3147              		.thumb_func
 3149              	xTaskGetApplicationTaskTag:
 3150              		@ args = 0, pretend = 0, frame = 24
 3151              		@ frame_needed = 1, uses_anonymous_args = 0
 3152 0000 80B5     		push	{r7, lr}
ARM GAS  C:\msys64\tmp\cc2KM9Cz.s 			page 55


 3153 0002 86B0     		sub	sp, sp, #24
 3154 0004 00AF     		add	r7, sp, #0
 3155 0006 7860     		str	r0, [r7, #4]
 3156 0008 7B68     		ldr	r3, [r7, #4]
 3157 000a 002B     		cmp	r3, #0
 3158 000c 02D1     		bne	.L252
 3159 000e 114B     		ldr	r3, .L257
 3160 0010 1B68     		ldr	r3, [r3]
 3161 0012 00E0     		b	.L253
 3162              	.L252:
 3163 0014 7B68     		ldr	r3, [r7, #4]
 3164              	.L253:
 3165 0016 7B61     		str	r3, [r7, #20]
 3166 0018 7B69     		ldr	r3, [r7, #20]
 3167 001a 002B     		cmp	r3, #0
 3168 001c 0DD1     		bne	.L254
 3169              		.syntax unified
 3170              	@ 214 "Middlewares/stm32f746_lwip_withos_porting/FreeRTOS/portable/GCC/ARM_CM7/r0p1/portmacro.h" 1
 3171 001e 4FF05003 		   mov r3, #80                                              
 3172 0022 72B6     	   cpsid i                                                 
 3173 0024 83F31188 	   msr basepri, r3                                         
 3174 0028 BFF36F8F 	   isb                                                     
 3175 002c BFF34F8F 	   dsb                                                     
 3176 0030 62B6     	   cpsie i                                                 
 3177              	
 3178              	@ 0 "" 2
 3179              		.thumb
 3180              		.syntax unified
 3181 0032 FB60     		str	r3, [r7, #12]
 3182 0034 00BF     		nop
 3183              	.L255:
 3184 0036 00BF     		nop
 3185 0038 FDE7     		b	.L255
 3186              	.L254:
 3187 003a FFF7FEFF 		bl	vPortEnterCritical
 3188 003e 7B69     		ldr	r3, [r7, #20]
 3189 0040 DB6C     		ldr	r3, [r3, #76]
 3190 0042 3B61     		str	r3, [r7, #16]
 3191 0044 FFF7FEFF 		bl	vPortExitCritical
 3192 0048 3B69     		ldr	r3, [r7, #16]
 3193 004a 1846     		mov	r0, r3
 3194 004c 1837     		adds	r7, r7, #24
 3195 004e BD46     		mov	sp, r7
 3196              		@ sp needed
 3197 0050 80BD     		pop	{r7, pc}
 3198              	.L258:
 3199 0052 00BF     		.align	2
 3200              	.L257:
 3201 0054 00000000 		.word	pxCurrentTCB
 3203              		.section	.text.xTaskGetApplicationTaskTagFromISR,"ax",%progbits
 3204              		.align	1
 3205              		.global	xTaskGetApplicationTaskTagFromISR
 3206              		.syntax unified
 3207              		.thumb
 3208              		.thumb_func
 3210              	xTaskGetApplicationTaskTagFromISR:
 3211              		@ args = 0, pretend = 0, frame = 40
ARM GAS  C:\msys64\tmp\cc2KM9Cz.s 			page 56


 3212              		@ frame_needed = 1, uses_anonymous_args = 0
 3213              		@ link register save eliminated.
 3214 0000 80B4     		push	{r7}
 3215 0002 8BB0     		sub	sp, sp, #44
 3216 0004 00AF     		add	r7, sp, #0
 3217 0006 7860     		str	r0, [r7, #4]
 3218 0008 7B68     		ldr	r3, [r7, #4]
 3219 000a 002B     		cmp	r3, #0
 3220 000c 02D1     		bne	.L260
 3221 000e 1B4B     		ldr	r3, .L266
 3222 0010 1B68     		ldr	r3, [r3]
 3223 0012 00E0     		b	.L261
 3224              	.L260:
 3225 0014 7B68     		ldr	r3, [r7, #4]
 3226              	.L261:
 3227 0016 7B62     		str	r3, [r7, #36]
 3228 0018 7B6A     		ldr	r3, [r7, #36]
 3229 001a 002B     		cmp	r3, #0
 3230 001c 0DD1     		bne	.L262
 3231              		.syntax unified
 3232              	@ 214 "Middlewares/stm32f746_lwip_withos_porting/FreeRTOS/portable/GCC/ARM_CM7/r0p1/portmacro.h" 1
 3233 001e 4FF05003 		   mov r3, #80                                              
 3234 0022 72B6     	   cpsid i                                                 
 3235 0024 83F31188 	   msr basepri, r3                                         
 3236 0028 BFF36F8F 	   isb                                                     
 3237 002c BFF34F8F 	   dsb                                                     
 3238 0030 62B6     	   cpsie i                                                 
 3239              	
 3240              	@ 0 "" 2
 3241              		.thumb
 3242              		.syntax unified
 3243 0032 BB61     		str	r3, [r7, #24]
 3244 0034 00BF     		nop
 3245              	.L263:
 3246 0036 00BF     		nop
 3247 0038 FDE7     		b	.L263
 3248              	.L262:
 3249              		.syntax unified
 3250              	@ 232 "Middlewares/stm32f746_lwip_withos_porting/FreeRTOS/portable/GCC/ARM_CM7/r0p1/portmacro.h" 1
 3251 003a EFF31182 		   mrs r2, basepri                                         
 3252 003e 4FF05003 	   mov r3, #80                                              
 3253 0042 72B6     	   cpsid i                                                 
 3254 0044 83F31188 	   msr basepri, r3                                         
 3255 0048 BFF36F8F 	   isb                                                     
 3256 004c BFF34F8F 	   dsb                                                     
 3257 0050 62B6     	   cpsie i                                                 
 3258              	
 3259              	@ 0 "" 2
 3260              		.thumb
 3261              		.syntax unified
 3262 0052 3A61     		str	r2, [r7, #16]
 3263 0054 FB60     		str	r3, [r7, #12]
 3264 0056 3B69     		ldr	r3, [r7, #16]
 3265 0058 3B62     		str	r3, [r7, #32]
 3266 005a 7B6A     		ldr	r3, [r7, #36]
 3267 005c DB6C     		ldr	r3, [r3, #76]
 3268 005e FB61     		str	r3, [r7, #28]
ARM GAS  C:\msys64\tmp\cc2KM9Cz.s 			page 57


 3269 0060 3B6A     		ldr	r3, [r7, #32]
 3270 0062 7B61     		str	r3, [r7, #20]
 3271 0064 7B69     		ldr	r3, [r7, #20]
 3272              		.syntax unified
 3273              	@ 252 "Middlewares/stm32f746_lwip_withos_porting/FreeRTOS/portable/GCC/ARM_CM7/r0p1/portmacro.h" 1
 3274 0066 83F31188 		   msr basepri, r3 
 3275              	@ 0 "" 2
 3276              		.thumb
 3277              		.syntax unified
 3278 006a 00BF     		nop
 3279 006c FB69     		ldr	r3, [r7, #28]
 3280 006e 1846     		mov	r0, r3
 3281 0070 2C37     		adds	r7, r7, #44
 3282 0072 BD46     		mov	sp, r7
 3283              		@ sp needed
 3284 0074 5DF8047B 		ldr	r7, [sp], #4
 3285 0078 7047     		bx	lr
 3286              	.L267:
 3287 007a 00BF     		.align	2
 3288              	.L266:
 3289 007c 00000000 		.word	pxCurrentTCB
 3291              		.section	.text.xTaskCallApplicationTaskHook,"ax",%progbits
 3292              		.align	1
 3293              		.global	xTaskCallApplicationTaskHook
 3294              		.syntax unified
 3295              		.thumb
 3296              		.thumb_func
 3298              	xTaskCallApplicationTaskHook:
 3299              		@ args = 0, pretend = 0, frame = 16
 3300              		@ frame_needed = 1, uses_anonymous_args = 0
 3301 0000 80B5     		push	{r7, lr}
 3302 0002 84B0     		sub	sp, sp, #16
 3303 0004 00AF     		add	r7, sp, #0
 3304 0006 7860     		str	r0, [r7, #4]
 3305 0008 3960     		str	r1, [r7]
 3306 000a 7B68     		ldr	r3, [r7, #4]
 3307 000c 002B     		cmp	r3, #0
 3308 000e 03D1     		bne	.L269
 3309 0010 0B4B     		ldr	r3, .L274
 3310 0012 1B68     		ldr	r3, [r3]
 3311 0014 FB60     		str	r3, [r7, #12]
 3312 0016 01E0     		b	.L270
 3313              	.L269:
 3314 0018 7B68     		ldr	r3, [r7, #4]
 3315 001a FB60     		str	r3, [r7, #12]
 3316              	.L270:
 3317 001c FB68     		ldr	r3, [r7, #12]
 3318 001e DB6C     		ldr	r3, [r3, #76]
 3319 0020 002B     		cmp	r3, #0
 3320 0022 05D0     		beq	.L271
 3321 0024 FB68     		ldr	r3, [r7, #12]
 3322 0026 DB6C     		ldr	r3, [r3, #76]
 3323 0028 3868     		ldr	r0, [r7]
 3324 002a 9847     		blx	r3
 3325 002c B860     		str	r0, [r7, #8]
 3326 002e 01E0     		b	.L272
 3327              	.L271:
ARM GAS  C:\msys64\tmp\cc2KM9Cz.s 			page 58


 3328 0030 0023     		movs	r3, #0
 3329 0032 BB60     		str	r3, [r7, #8]
 3330              	.L272:
 3331 0034 BB68     		ldr	r3, [r7, #8]
 3332 0036 1846     		mov	r0, r3
 3333 0038 1037     		adds	r7, r7, #16
 3334 003a BD46     		mov	sp, r7
 3335              		@ sp needed
 3336 003c 80BD     		pop	{r7, pc}
 3337              	.L275:
 3338 003e 00BF     		.align	2
 3339              	.L274:
 3340 0040 00000000 		.word	pxCurrentTCB
 3342              		.section	.text.vTaskSwitchContext,"ax",%progbits
 3343              		.align	1
 3344              		.global	vTaskSwitchContext
 3345              		.syntax unified
 3346              		.thumb
 3347              		.thumb_func
 3349              	vTaskSwitchContext:
 3350              		@ args = 0, pretend = 0, frame = 24
 3351              		@ frame_needed = 1, uses_anonymous_args = 0
 3352              		@ link register save eliminated.
 3353 0000 80B4     		push	{r7}
 3354 0002 87B0     		sub	sp, sp, #28
 3355 0004 00AF     		add	r7, sp, #0
 3356 0006 294B     		ldr	r3, .L284
 3357 0008 1B68     		ldr	r3, [r3]
 3358 000a 002B     		cmp	r3, #0
 3359 000c 03D0     		beq	.L277
 3360 000e 284B     		ldr	r3, .L284+4
 3361 0010 0122     		movs	r2, #1
 3362 0012 1A60     		str	r2, [r3]
 3363 0014 43E0     		b	.L283
 3364              	.L277:
 3365 0016 264B     		ldr	r3, .L284+4
 3366 0018 0022     		movs	r2, #0
 3367 001a 1A60     		str	r2, [r3]
 3368 001c 254B     		ldr	r3, .L284+8
 3369 001e 1B68     		ldr	r3, [r3]
 3370 0020 FB60     		str	r3, [r7, #12]
 3371 0022 FB68     		ldr	r3, [r7, #12]
 3372              		.syntax unified
 3373              	@ 152 "Middlewares/stm32f746_lwip_withos_porting/FreeRTOS/portable/GCC/ARM_CM7/r0p1/portmacro.h" 1
 3374 0024 B3FA83F3 		clz r3, r3
 3375              	@ 0 "" 2
 3376              		.thumb
 3377              		.syntax unified
 3378 0028 FB72     		strb	r3, [r7, #11]
 3379 002a FB7A     		ldrb	r3, [r7, #11]	@ zero_extendqisi2
 3380 002c C3F11F03 		rsb	r3, r3, #31
 3381 0030 7B61     		str	r3, [r7, #20]
 3382 0032 2149     		ldr	r1, .L284+12
 3383 0034 7A69     		ldr	r2, [r7, #20]
 3384 0036 1346     		mov	r3, r2
 3385 0038 9B00     		lsls	r3, r3, #2
 3386 003a 1344     		add	r3, r3, r2
ARM GAS  C:\msys64\tmp\cc2KM9Cz.s 			page 59


 3387 003c 9B00     		lsls	r3, r3, #2
 3388 003e 0B44     		add	r3, r3, r1
 3389 0040 1B68     		ldr	r3, [r3]
 3390 0042 002B     		cmp	r3, #0
 3391 0044 0DD1     		bne	.L280
 3392              		.syntax unified
 3393              	@ 214 "Middlewares/stm32f746_lwip_withos_porting/FreeRTOS/portable/GCC/ARM_CM7/r0p1/portmacro.h" 1
 3394 0046 4FF05003 		   mov r3, #80                                              
 3395 004a 72B6     	   cpsid i                                                 
 3396 004c 83F31188 	   msr basepri, r3                                         
 3397 0050 BFF36F8F 	   isb                                                     
 3398 0054 BFF34F8F 	   dsb                                                     
 3399 0058 62B6     	   cpsie i                                                 
 3400              	
 3401              	@ 0 "" 2
 3402              		.thumb
 3403              		.syntax unified
 3404 005a 7B60     		str	r3, [r7, #4]
 3405 005c 00BF     		nop
 3406              	.L281:
 3407 005e 00BF     		nop
 3408 0060 FDE7     		b	.L281
 3409              	.L280:
 3410 0062 7A69     		ldr	r2, [r7, #20]
 3411 0064 1346     		mov	r3, r2
 3412 0066 9B00     		lsls	r3, r3, #2
 3413 0068 1344     		add	r3, r3, r2
 3414 006a 9B00     		lsls	r3, r3, #2
 3415 006c 124A     		ldr	r2, .L284+12
 3416 006e 1344     		add	r3, r3, r2
 3417 0070 3B61     		str	r3, [r7, #16]
 3418 0072 3B69     		ldr	r3, [r7, #16]
 3419 0074 5B68     		ldr	r3, [r3, #4]
 3420 0076 5A68     		ldr	r2, [r3, #4]
 3421 0078 3B69     		ldr	r3, [r7, #16]
 3422 007a 5A60     		str	r2, [r3, #4]
 3423 007c 3B69     		ldr	r3, [r7, #16]
 3424 007e 5A68     		ldr	r2, [r3, #4]
 3425 0080 3B69     		ldr	r3, [r7, #16]
 3426 0082 0833     		adds	r3, r3, #8
 3427 0084 9A42     		cmp	r2, r3
 3428 0086 03D1     		bne	.L282
 3429 0088 3B69     		ldr	r3, [r7, #16]
 3430 008a DA68     		ldr	r2, [r3, #12]
 3431 008c 3B69     		ldr	r3, [r7, #16]
 3432 008e 5A60     		str	r2, [r3, #4]
 3433              	.L282:
 3434 0090 3B69     		ldr	r3, [r7, #16]
 3435 0092 5B68     		ldr	r3, [r3, #4]
 3436 0094 DB68     		ldr	r3, [r3, #12]
 3437 0096 094A     		ldr	r2, .L284+16
 3438 0098 1360     		str	r3, [r2]
 3439 009a 084B     		ldr	r3, .L284+16
 3440 009c 1B68     		ldr	r3, [r3]
 3441              	.L283:
 3442 009e 00BF     		nop
 3443 00a0 1C37     		adds	r7, r7, #28
ARM GAS  C:\msys64\tmp\cc2KM9Cz.s 			page 60


 3444 00a2 BD46     		mov	sp, r7
 3445              		@ sp needed
 3446 00a4 5DF8047B 		ldr	r7, [sp], #4
 3447 00a8 7047     		bx	lr
 3448              	.L285:
 3449 00aa 00BF     		.align	2
 3450              	.L284:
 3451 00ac 00000000 		.word	uxSchedulerSuspended
 3452 00b0 00000000 		.word	xYieldPendings
 3453 00b4 00000000 		.word	uxTopReadyPriority
 3454 00b8 00000000 		.word	pxReadyTasksLists
 3455 00bc 00000000 		.word	pxCurrentTCB
 3457              		.section	.text.vTaskPlaceOnEventList,"ax",%progbits
 3458              		.align	1
 3459              		.global	vTaskPlaceOnEventList
 3460              		.syntax unified
 3461              		.thumb
 3462              		.thumb_func
 3464              	vTaskPlaceOnEventList:
 3465              		@ args = 0, pretend = 0, frame = 16
 3466              		@ frame_needed = 1, uses_anonymous_args = 0
 3467 0000 80B5     		push	{r7, lr}
 3468 0002 84B0     		sub	sp, sp, #16
 3469 0004 00AF     		add	r7, sp, #0
 3470 0006 7860     		str	r0, [r7, #4]
 3471 0008 3960     		str	r1, [r7]
 3472 000a 7B68     		ldr	r3, [r7, #4]
 3473 000c 002B     		cmp	r3, #0
 3474 000e 0DD1     		bne	.L287
 3475              		.syntax unified
 3476              	@ 214 "Middlewares/stm32f746_lwip_withos_porting/FreeRTOS/portable/GCC/ARM_CM7/r0p1/portmacro.h" 1
 3477 0010 4FF05003 		   mov r3, #80                                              
 3478 0014 72B6     	   cpsid i                                                 
 3479 0016 83F31188 	   msr basepri, r3                                         
 3480 001a BFF36F8F 	   isb                                                     
 3481 001e BFF34F8F 	   dsb                                                     
 3482 0022 62B6     	   cpsie i                                                 
 3483              	
 3484              	@ 0 "" 2
 3485              		.thumb
 3486              		.syntax unified
 3487 0024 FB60     		str	r3, [r7, #12]
 3488 0026 00BF     		nop
 3489              	.L288:
 3490 0028 00BF     		nop
 3491 002a FDE7     		b	.L288
 3492              	.L287:
 3493 002c 074B     		ldr	r3, .L289
 3494 002e 1B68     		ldr	r3, [r3]
 3495 0030 1833     		adds	r3, r3, #24
 3496 0032 1946     		mov	r1, r3
 3497 0034 7868     		ldr	r0, [r7, #4]
 3498 0036 FFF7FEFF 		bl	vListInsert
 3499 003a 0121     		movs	r1, #1
 3500 003c 3868     		ldr	r0, [r7]
 3501 003e FFF7FEFF 		bl	prvAddCurrentTaskToDelayedList
 3502 0042 00BF     		nop
ARM GAS  C:\msys64\tmp\cc2KM9Cz.s 			page 61


 3503 0044 1037     		adds	r7, r7, #16
 3504 0046 BD46     		mov	sp, r7
 3505              		@ sp needed
 3506 0048 80BD     		pop	{r7, pc}
 3507              	.L290:
 3508 004a 00BF     		.align	2
 3509              	.L289:
 3510 004c 00000000 		.word	pxCurrentTCB
 3512              		.section	.text.vTaskPlaceOnUnorderedEventList,"ax",%progbits
 3513              		.align	1
 3514              		.global	vTaskPlaceOnUnorderedEventList
 3515              		.syntax unified
 3516              		.thumb
 3517              		.thumb_func
 3519              	vTaskPlaceOnUnorderedEventList:
 3520              		@ args = 0, pretend = 0, frame = 32
 3521              		@ frame_needed = 1, uses_anonymous_args = 0
 3522 0000 80B5     		push	{r7, lr}
 3523 0002 88B0     		sub	sp, sp, #32
 3524 0004 00AF     		add	r7, sp, #0
 3525 0006 F860     		str	r0, [r7, #12]
 3526 0008 B960     		str	r1, [r7, #8]
 3527 000a 7A60     		str	r2, [r7, #4]
 3528 000c FB68     		ldr	r3, [r7, #12]
 3529 000e 002B     		cmp	r3, #0
 3530 0010 0DD1     		bne	.L292
 3531              		.syntax unified
 3532              	@ 214 "Middlewares/stm32f746_lwip_withos_porting/FreeRTOS/portable/GCC/ARM_CM7/r0p1/portmacro.h" 1
 3533 0012 4FF05003 		   mov r3, #80                                              
 3534 0016 72B6     	   cpsid i                                                 
 3535 0018 83F31188 	   msr basepri, r3                                         
 3536 001c BFF36F8F 	   isb                                                     
 3537 0020 BFF34F8F 	   dsb                                                     
 3538 0024 62B6     	   cpsie i                                                 
 3539              	
 3540              	@ 0 "" 2
 3541              		.thumb
 3542              		.syntax unified
 3543 0026 BB61     		str	r3, [r7, #24]
 3544 0028 00BF     		nop
 3545              	.L293:
 3546 002a 00BF     		nop
 3547 002c FDE7     		b	.L293
 3548              	.L292:
 3549 002e 204B     		ldr	r3, .L296
 3550 0030 1B68     		ldr	r3, [r3]
 3551 0032 002B     		cmp	r3, #0
 3552 0034 0DD1     		bne	.L294
 3553              		.syntax unified
 3554              	@ 214 "Middlewares/stm32f746_lwip_withos_porting/FreeRTOS/portable/GCC/ARM_CM7/r0p1/portmacro.h" 1
 3555 0036 4FF05003 		   mov r3, #80                                              
 3556 003a 72B6     	   cpsid i                                                 
 3557 003c 83F31188 	   msr basepri, r3                                         
 3558 0040 BFF36F8F 	   isb                                                     
 3559 0044 BFF34F8F 	   dsb                                                     
 3560 0048 62B6     	   cpsie i                                                 
 3561              	
ARM GAS  C:\msys64\tmp\cc2KM9Cz.s 			page 62


 3562              	@ 0 "" 2
 3563              		.thumb
 3564              		.syntax unified
 3565 004a 7B61     		str	r3, [r7, #20]
 3566 004c 00BF     		nop
 3567              	.L295:
 3568 004e 00BF     		nop
 3569 0050 FDE7     		b	.L295
 3570              	.L294:
 3571 0052 184B     		ldr	r3, .L296+4
 3572 0054 1B68     		ldr	r3, [r3]
 3573 0056 BA68     		ldr	r2, [r7, #8]
 3574 0058 42F00042 		orr	r2, r2, #-2147483648
 3575 005c 9A61     		str	r2, [r3, #24]
 3576 005e FB68     		ldr	r3, [r7, #12]
 3577 0060 5B68     		ldr	r3, [r3, #4]
 3578 0062 FB61     		str	r3, [r7, #28]
 3579 0064 134B     		ldr	r3, .L296+4
 3580 0066 1B68     		ldr	r3, [r3]
 3581 0068 FA69     		ldr	r2, [r7, #28]
 3582 006a DA61     		str	r2, [r3, #28]
 3583 006c 114B     		ldr	r3, .L296+4
 3584 006e 1B68     		ldr	r3, [r3]
 3585 0070 FA69     		ldr	r2, [r7, #28]
 3586 0072 9268     		ldr	r2, [r2, #8]
 3587 0074 1A62     		str	r2, [r3, #32]
 3588 0076 0F4B     		ldr	r3, .L296+4
 3589 0078 1A68     		ldr	r2, [r3]
 3590 007a FB69     		ldr	r3, [r7, #28]
 3591 007c 9B68     		ldr	r3, [r3, #8]
 3592 007e 1832     		adds	r2, r2, #24
 3593 0080 5A60     		str	r2, [r3, #4]
 3594 0082 0C4B     		ldr	r3, .L296+4
 3595 0084 1B68     		ldr	r3, [r3]
 3596 0086 03F11802 		add	r2, r3, #24
 3597 008a FB69     		ldr	r3, [r7, #28]
 3598 008c 9A60     		str	r2, [r3, #8]
 3599 008e 094B     		ldr	r3, .L296+4
 3600 0090 1B68     		ldr	r3, [r3]
 3601 0092 FA68     		ldr	r2, [r7, #12]
 3602 0094 9A62     		str	r2, [r3, #40]
 3603 0096 FB68     		ldr	r3, [r7, #12]
 3604 0098 1B68     		ldr	r3, [r3]
 3605 009a 5A1C     		adds	r2, r3, #1
 3606 009c FB68     		ldr	r3, [r7, #12]
 3607 009e 1A60     		str	r2, [r3]
 3608 00a0 0121     		movs	r1, #1
 3609 00a2 7868     		ldr	r0, [r7, #4]
 3610 00a4 FFF7FEFF 		bl	prvAddCurrentTaskToDelayedList
 3611 00a8 00BF     		nop
 3612 00aa 2037     		adds	r7, r7, #32
 3613 00ac BD46     		mov	sp, r7
 3614              		@ sp needed
 3615 00ae 80BD     		pop	{r7, pc}
 3616              	.L297:
 3617              		.align	2
 3618              	.L296:
ARM GAS  C:\msys64\tmp\cc2KM9Cz.s 			page 63


 3619 00b0 00000000 		.word	uxSchedulerSuspended
 3620 00b4 00000000 		.word	pxCurrentTCB
 3622              		.section	.text.xTaskRemoveFromEventList,"ax",%progbits
 3623              		.align	1
 3624              		.global	xTaskRemoveFromEventList
 3625              		.syntax unified
 3626              		.thumb
 3627              		.thumb_func
 3629              	xTaskRemoveFromEventList:
 3630              		@ args = 0, pretend = 0, frame = 40
 3631              		@ frame_needed = 1, uses_anonymous_args = 0
 3632              		@ link register save eliminated.
 3633 0000 80B4     		push	{r7}
 3634 0002 8BB0     		sub	sp, sp, #44
 3635 0004 00AF     		add	r7, sp, #0
 3636 0006 7860     		str	r0, [r7, #4]
 3637 0008 7B68     		ldr	r3, [r7, #4]
 3638 000a DB68     		ldr	r3, [r3, #12]
 3639 000c DB68     		ldr	r3, [r3, #12]
 3640 000e 3B62     		str	r3, [r7, #32]
 3641 0010 3B6A     		ldr	r3, [r7, #32]
 3642 0012 002B     		cmp	r3, #0
 3643 0014 0DD1     		bne	.L299
 3644              		.syntax unified
 3645              	@ 214 "Middlewares/stm32f746_lwip_withos_porting/FreeRTOS/portable/GCC/ARM_CM7/r0p1/portmacro.h" 1
 3646 0016 4FF05003 		   mov r3, #80                                              
 3647 001a 72B6     	   cpsid i                                                 
 3648 001c 83F31188 	   msr basepri, r3                                         
 3649 0020 BFF36F8F 	   isb                                                     
 3650 0024 BFF34F8F 	   dsb                                                     
 3651 0028 62B6     	   cpsie i                                                 
 3652              	
 3653              	@ 0 "" 2
 3654              		.thumb
 3655              		.syntax unified
 3656 002a FB60     		str	r3, [r7, #12]
 3657 002c 00BF     		nop
 3658              	.L300:
 3659 002e 00BF     		nop
 3660 0030 FDE7     		b	.L300
 3661              	.L299:
 3662 0032 3B6A     		ldr	r3, [r7, #32]
 3663 0034 9B6A     		ldr	r3, [r3, #40]
 3664 0036 FB61     		str	r3, [r7, #28]
 3665 0038 3B6A     		ldr	r3, [r7, #32]
 3666 003a DB69     		ldr	r3, [r3, #28]
 3667 003c 3A6A     		ldr	r2, [r7, #32]
 3668 003e 126A     		ldr	r2, [r2, #32]
 3669 0040 9A60     		str	r2, [r3, #8]
 3670 0042 3B6A     		ldr	r3, [r7, #32]
 3671 0044 1B6A     		ldr	r3, [r3, #32]
 3672 0046 3A6A     		ldr	r2, [r7, #32]
 3673 0048 D269     		ldr	r2, [r2, #28]
 3674 004a 5A60     		str	r2, [r3, #4]
 3675 004c FB69     		ldr	r3, [r7, #28]
 3676 004e 5A68     		ldr	r2, [r3, #4]
 3677 0050 3B6A     		ldr	r3, [r7, #32]
ARM GAS  C:\msys64\tmp\cc2KM9Cz.s 			page 64


 3678 0052 1833     		adds	r3, r3, #24
 3679 0054 9A42     		cmp	r2, r3
 3680 0056 03D1     		bne	.L301
 3681 0058 3B6A     		ldr	r3, [r7, #32]
 3682 005a 1A6A     		ldr	r2, [r3, #32]
 3683 005c FB69     		ldr	r3, [r7, #28]
 3684 005e 5A60     		str	r2, [r3, #4]
 3685              	.L301:
 3686 0060 3B6A     		ldr	r3, [r7, #32]
 3687 0062 0022     		movs	r2, #0
 3688 0064 9A62     		str	r2, [r3, #40]
 3689 0066 FB69     		ldr	r3, [r7, #28]
 3690 0068 1B68     		ldr	r3, [r3]
 3691 006a 5A1E     		subs	r2, r3, #1
 3692 006c FB69     		ldr	r3, [r7, #28]
 3693 006e 1A60     		str	r2, [r3]
 3694 0070 4B4B     		ldr	r3, .L308
 3695 0072 1B68     		ldr	r3, [r3]
 3696 0074 002B     		cmp	r3, #0
 3697 0076 60D1     		bne	.L302
 3698 0078 3B6A     		ldr	r3, [r7, #32]
 3699 007a 5B69     		ldr	r3, [r3, #20]
 3700 007c 7B61     		str	r3, [r7, #20]
 3701 007e 3B6A     		ldr	r3, [r7, #32]
 3702 0080 9B68     		ldr	r3, [r3, #8]
 3703 0082 3A6A     		ldr	r2, [r7, #32]
 3704 0084 D268     		ldr	r2, [r2, #12]
 3705 0086 9A60     		str	r2, [r3, #8]
 3706 0088 3B6A     		ldr	r3, [r7, #32]
 3707 008a DB68     		ldr	r3, [r3, #12]
 3708 008c 3A6A     		ldr	r2, [r7, #32]
 3709 008e 9268     		ldr	r2, [r2, #8]
 3710 0090 5A60     		str	r2, [r3, #4]
 3711 0092 7B69     		ldr	r3, [r7, #20]
 3712 0094 5A68     		ldr	r2, [r3, #4]
 3713 0096 3B6A     		ldr	r3, [r7, #32]
 3714 0098 0433     		adds	r3, r3, #4
 3715 009a 9A42     		cmp	r2, r3
 3716 009c 03D1     		bne	.L303
 3717 009e 3B6A     		ldr	r3, [r7, #32]
 3718 00a0 DA68     		ldr	r2, [r3, #12]
 3719 00a2 7B69     		ldr	r3, [r7, #20]
 3720 00a4 5A60     		str	r2, [r3, #4]
 3721              	.L303:
 3722 00a6 3B6A     		ldr	r3, [r7, #32]
 3723 00a8 0022     		movs	r2, #0
 3724 00aa 5A61     		str	r2, [r3, #20]
 3725 00ac 7B69     		ldr	r3, [r7, #20]
 3726 00ae 1B68     		ldr	r3, [r3]
 3727 00b0 5A1E     		subs	r2, r3, #1
 3728 00b2 7B69     		ldr	r3, [r7, #20]
 3729 00b4 1A60     		str	r2, [r3]
 3730 00b6 3B6A     		ldr	r3, [r7, #32]
 3731 00b8 DB6A     		ldr	r3, [r3, #44]
 3732 00ba 0122     		movs	r2, #1
 3733 00bc 9A40     		lsls	r2, r2, r3
 3734 00be 394B     		ldr	r3, .L308+4
ARM GAS  C:\msys64\tmp\cc2KM9Cz.s 			page 65


 3735 00c0 1B68     		ldr	r3, [r3]
 3736 00c2 1343     		orrs	r3, r3, r2
 3737 00c4 374A     		ldr	r2, .L308+4
 3738 00c6 1360     		str	r3, [r2]
 3739 00c8 3B6A     		ldr	r3, [r7, #32]
 3740 00ca DA6A     		ldr	r2, [r3, #44]
 3741 00cc 3649     		ldr	r1, .L308+8
 3742 00ce 1346     		mov	r3, r2
 3743 00d0 9B00     		lsls	r3, r3, #2
 3744 00d2 1344     		add	r3, r3, r2
 3745 00d4 9B00     		lsls	r3, r3, #2
 3746 00d6 0B44     		add	r3, r3, r1
 3747 00d8 0433     		adds	r3, r3, #4
 3748 00da 1B68     		ldr	r3, [r3]
 3749 00dc 3B61     		str	r3, [r7, #16]
 3750 00de 3B6A     		ldr	r3, [r7, #32]
 3751 00e0 3A69     		ldr	r2, [r7, #16]
 3752 00e2 9A60     		str	r2, [r3, #8]
 3753 00e4 3B69     		ldr	r3, [r7, #16]
 3754 00e6 9A68     		ldr	r2, [r3, #8]
 3755 00e8 3B6A     		ldr	r3, [r7, #32]
 3756 00ea DA60     		str	r2, [r3, #12]
 3757 00ec 3B69     		ldr	r3, [r7, #16]
 3758 00ee 9B68     		ldr	r3, [r3, #8]
 3759 00f0 3A6A     		ldr	r2, [r7, #32]
 3760 00f2 0432     		adds	r2, r2, #4
 3761 00f4 5A60     		str	r2, [r3, #4]
 3762 00f6 3B6A     		ldr	r3, [r7, #32]
 3763 00f8 1A1D     		adds	r2, r3, #4
 3764 00fa 3B69     		ldr	r3, [r7, #16]
 3765 00fc 9A60     		str	r2, [r3, #8]
 3766 00fe 3B6A     		ldr	r3, [r7, #32]
 3767 0100 DA6A     		ldr	r2, [r3, #44]
 3768 0102 1346     		mov	r3, r2
 3769 0104 9B00     		lsls	r3, r3, #2
 3770 0106 1344     		add	r3, r3, r2
 3771 0108 9B00     		lsls	r3, r3, #2
 3772 010a 274A     		ldr	r2, .L308+8
 3773 010c 1A44     		add	r2, r2, r3
 3774 010e 3B6A     		ldr	r3, [r7, #32]
 3775 0110 5A61     		str	r2, [r3, #20]
 3776 0112 3B6A     		ldr	r3, [r7, #32]
 3777 0114 DA6A     		ldr	r2, [r3, #44]
 3778 0116 2449     		ldr	r1, .L308+8
 3779 0118 1346     		mov	r3, r2
 3780 011a 9B00     		lsls	r3, r3, #2
 3781 011c 1344     		add	r3, r3, r2
 3782 011e 9B00     		lsls	r3, r3, #2
 3783 0120 0B44     		add	r3, r3, r1
 3784 0122 1B68     		ldr	r3, [r3]
 3785 0124 3A6A     		ldr	r2, [r7, #32]
 3786 0126 D26A     		ldr	r2, [r2, #44]
 3787 0128 591C     		adds	r1, r3, #1
 3788 012a 1F48     		ldr	r0, .L308+8
 3789 012c 1346     		mov	r3, r2
 3790 012e 9B00     		lsls	r3, r3, #2
 3791 0130 1344     		add	r3, r3, r2
ARM GAS  C:\msys64\tmp\cc2KM9Cz.s 			page 66


 3792 0132 9B00     		lsls	r3, r3, #2
 3793 0134 0344     		add	r3, r3, r0
 3794 0136 1960     		str	r1, [r3]
 3795 0138 1BE0     		b	.L304
 3796              	.L302:
 3797 013a 1C4B     		ldr	r3, .L308+12
 3798 013c 5B68     		ldr	r3, [r3, #4]
 3799 013e BB61     		str	r3, [r7, #24]
 3800 0140 3B6A     		ldr	r3, [r7, #32]
 3801 0142 BA69     		ldr	r2, [r7, #24]
 3802 0144 DA61     		str	r2, [r3, #28]
 3803 0146 BB69     		ldr	r3, [r7, #24]
 3804 0148 9A68     		ldr	r2, [r3, #8]
 3805 014a 3B6A     		ldr	r3, [r7, #32]
 3806 014c 1A62     		str	r2, [r3, #32]
 3807 014e BB69     		ldr	r3, [r7, #24]
 3808 0150 9B68     		ldr	r3, [r3, #8]
 3809 0152 3A6A     		ldr	r2, [r7, #32]
 3810 0154 1832     		adds	r2, r2, #24
 3811 0156 5A60     		str	r2, [r3, #4]
 3812 0158 3B6A     		ldr	r3, [r7, #32]
 3813 015a 03F11802 		add	r2, r3, #24
 3814 015e BB69     		ldr	r3, [r7, #24]
 3815 0160 9A60     		str	r2, [r3, #8]
 3816 0162 3B6A     		ldr	r3, [r7, #32]
 3817 0164 114A     		ldr	r2, .L308+12
 3818 0166 9A62     		str	r2, [r3, #40]
 3819 0168 104B     		ldr	r3, .L308+12
 3820 016a 1B68     		ldr	r3, [r3]
 3821 016c 0133     		adds	r3, r3, #1
 3822 016e 0F4A     		ldr	r2, .L308+12
 3823 0170 1360     		str	r3, [r2]
 3824              	.L304:
 3825 0172 3B6A     		ldr	r3, [r7, #32]
 3826 0174 DA6A     		ldr	r2, [r3, #44]
 3827 0176 0E4B     		ldr	r3, .L308+16
 3828 0178 1B68     		ldr	r3, [r3]
 3829 017a DB6A     		ldr	r3, [r3, #44]
 3830 017c 9A42     		cmp	r2, r3
 3831 017e 05D9     		bls	.L305
 3832 0180 0123     		movs	r3, #1
 3833 0182 7B62     		str	r3, [r7, #36]
 3834 0184 0B4B     		ldr	r3, .L308+20
 3835 0186 0122     		movs	r2, #1
 3836 0188 1A60     		str	r2, [r3]
 3837 018a 01E0     		b	.L306
 3838              	.L305:
 3839 018c 0023     		movs	r3, #0
 3840 018e 7B62     		str	r3, [r7, #36]
 3841              	.L306:
 3842 0190 7B6A     		ldr	r3, [r7, #36]
 3843 0192 1846     		mov	r0, r3
 3844 0194 2C37     		adds	r7, r7, #44
 3845 0196 BD46     		mov	sp, r7
 3846              		@ sp needed
 3847 0198 5DF8047B 		ldr	r7, [sp], #4
 3848 019c 7047     		bx	lr
ARM GAS  C:\msys64\tmp\cc2KM9Cz.s 			page 67


 3849              	.L309:
 3850 019e 00BF     		.align	2
 3851              	.L308:
 3852 01a0 00000000 		.word	uxSchedulerSuspended
 3853 01a4 00000000 		.word	uxTopReadyPriority
 3854 01a8 00000000 		.word	pxReadyTasksLists
 3855 01ac 00000000 		.word	xPendingReadyList
 3856 01b0 00000000 		.word	pxCurrentTCB
 3857 01b4 00000000 		.word	xYieldPendings
 3859              		.section	.text.vTaskRemoveFromUnorderedEventList,"ax",%progbits
 3860              		.align	1
 3861              		.global	vTaskRemoveFromUnorderedEventList
 3862              		.syntax unified
 3863              		.thumb
 3864              		.thumb_func
 3866              	vTaskRemoveFromUnorderedEventList:
 3867              		@ args = 0, pretend = 0, frame = 32
 3868              		@ frame_needed = 1, uses_anonymous_args = 0
 3869              		@ link register save eliminated.
 3870 0000 80B4     		push	{r7}
 3871 0002 89B0     		sub	sp, sp, #36
 3872 0004 00AF     		add	r7, sp, #0
 3873 0006 7860     		str	r0, [r7, #4]
 3874 0008 3960     		str	r1, [r7]
 3875 000a 5C4B     		ldr	r3, .L319
 3876 000c 1B68     		ldr	r3, [r3]
 3877 000e 002B     		cmp	r3, #0
 3878 0010 0DD1     		bne	.L311
 3879              		.syntax unified
 3880              	@ 214 "Middlewares/stm32f746_lwip_withos_porting/FreeRTOS/portable/GCC/ARM_CM7/r0p1/portmacro.h" 1
 3881 0012 4FF05003 		   mov r3, #80                                              
 3882 0016 72B6     	   cpsid i                                                 
 3883 0018 83F31188 	   msr basepri, r3                                         
 3884 001c BFF36F8F 	   isb                                                     
 3885 0020 BFF34F8F 	   dsb                                                     
 3886 0024 62B6     	   cpsie i                                                 
 3887              	
 3888              	@ 0 "" 2
 3889              		.thumb
 3890              		.syntax unified
 3891 0026 FB60     		str	r3, [r7, #12]
 3892 0028 00BF     		nop
 3893              	.L312:
 3894 002a 00BF     		nop
 3895 002c FDE7     		b	.L312
 3896              	.L311:
 3897 002e 3B68     		ldr	r3, [r7]
 3898 0030 43F00042 		orr	r2, r3, #-2147483648
 3899 0034 7B68     		ldr	r3, [r7, #4]
 3900 0036 1A60     		str	r2, [r3]
 3901 0038 7B68     		ldr	r3, [r7, #4]
 3902 003a DB68     		ldr	r3, [r3, #12]
 3903 003c FB61     		str	r3, [r7, #28]
 3904 003e FB69     		ldr	r3, [r7, #28]
 3905 0040 002B     		cmp	r3, #0
 3906 0042 0DD1     		bne	.L313
 3907              		.syntax unified
ARM GAS  C:\msys64\tmp\cc2KM9Cz.s 			page 68


 3908              	@ 214 "Middlewares/stm32f746_lwip_withos_porting/FreeRTOS/portable/GCC/ARM_CM7/r0p1/portmacro.h" 1
 3909 0044 4FF05003 		   mov r3, #80                                              
 3910 0048 72B6     	   cpsid i                                                 
 3911 004a 83F31188 	   msr basepri, r3                                         
 3912 004e BFF36F8F 	   isb                                                     
 3913 0052 BFF34F8F 	   dsb                                                     
 3914 0056 62B6     	   cpsie i                                                 
 3915              	
 3916              	@ 0 "" 2
 3917              		.thumb
 3918              		.syntax unified
 3919 0058 BB60     		str	r3, [r7, #8]
 3920 005a 00BF     		nop
 3921              	.L314:
 3922 005c 00BF     		nop
 3923 005e FDE7     		b	.L314
 3924              	.L313:
 3925 0060 7B68     		ldr	r3, [r7, #4]
 3926 0062 1B69     		ldr	r3, [r3, #16]
 3927 0064 BB61     		str	r3, [r7, #24]
 3928 0066 7B68     		ldr	r3, [r7, #4]
 3929 0068 5B68     		ldr	r3, [r3, #4]
 3930 006a 7A68     		ldr	r2, [r7, #4]
 3931 006c 9268     		ldr	r2, [r2, #8]
 3932 006e 9A60     		str	r2, [r3, #8]
 3933 0070 7B68     		ldr	r3, [r7, #4]
 3934 0072 9B68     		ldr	r3, [r3, #8]
 3935 0074 7A68     		ldr	r2, [r7, #4]
 3936 0076 5268     		ldr	r2, [r2, #4]
 3937 0078 5A60     		str	r2, [r3, #4]
 3938 007a BB69     		ldr	r3, [r7, #24]
 3939 007c 5B68     		ldr	r3, [r3, #4]
 3940 007e 7A68     		ldr	r2, [r7, #4]
 3941 0080 9A42     		cmp	r2, r3
 3942 0082 03D1     		bne	.L315
 3943 0084 7B68     		ldr	r3, [r7, #4]
 3944 0086 9A68     		ldr	r2, [r3, #8]
 3945 0088 BB69     		ldr	r3, [r7, #24]
 3946 008a 5A60     		str	r2, [r3, #4]
 3947              	.L315:
 3948 008c 7B68     		ldr	r3, [r7, #4]
 3949 008e 0022     		movs	r2, #0
 3950 0090 1A61     		str	r2, [r3, #16]
 3951 0092 BB69     		ldr	r3, [r7, #24]
 3952 0094 1B68     		ldr	r3, [r3]
 3953 0096 5A1E     		subs	r2, r3, #1
 3954 0098 BB69     		ldr	r3, [r7, #24]
 3955 009a 1A60     		str	r2, [r3]
 3956 009c FB69     		ldr	r3, [r7, #28]
 3957 009e 5B69     		ldr	r3, [r3, #20]
 3958 00a0 7B61     		str	r3, [r7, #20]
 3959 00a2 FB69     		ldr	r3, [r7, #28]
 3960 00a4 9B68     		ldr	r3, [r3, #8]
 3961 00a6 FA69     		ldr	r2, [r7, #28]
 3962 00a8 D268     		ldr	r2, [r2, #12]
 3963 00aa 9A60     		str	r2, [r3, #8]
 3964 00ac FB69     		ldr	r3, [r7, #28]
ARM GAS  C:\msys64\tmp\cc2KM9Cz.s 			page 69


 3965 00ae DB68     		ldr	r3, [r3, #12]
 3966 00b0 FA69     		ldr	r2, [r7, #28]
 3967 00b2 9268     		ldr	r2, [r2, #8]
 3968 00b4 5A60     		str	r2, [r3, #4]
 3969 00b6 7B69     		ldr	r3, [r7, #20]
 3970 00b8 5A68     		ldr	r2, [r3, #4]
 3971 00ba FB69     		ldr	r3, [r7, #28]
 3972 00bc 0433     		adds	r3, r3, #4
 3973 00be 9A42     		cmp	r2, r3
 3974 00c0 03D1     		bne	.L316
 3975 00c2 FB69     		ldr	r3, [r7, #28]
 3976 00c4 DA68     		ldr	r2, [r3, #12]
 3977 00c6 7B69     		ldr	r3, [r7, #20]
 3978 00c8 5A60     		str	r2, [r3, #4]
 3979              	.L316:
 3980 00ca FB69     		ldr	r3, [r7, #28]
 3981 00cc 0022     		movs	r2, #0
 3982 00ce 5A61     		str	r2, [r3, #20]
 3983 00d0 7B69     		ldr	r3, [r7, #20]
 3984 00d2 1B68     		ldr	r3, [r3]
 3985 00d4 5A1E     		subs	r2, r3, #1
 3986 00d6 7B69     		ldr	r3, [r7, #20]
 3987 00d8 1A60     		str	r2, [r3]
 3988 00da FB69     		ldr	r3, [r7, #28]
 3989 00dc DB6A     		ldr	r3, [r3, #44]
 3990 00de 0122     		movs	r2, #1
 3991 00e0 9A40     		lsls	r2, r2, r3
 3992 00e2 274B     		ldr	r3, .L319+4
 3993 00e4 1B68     		ldr	r3, [r3]
 3994 00e6 1343     		orrs	r3, r3, r2
 3995 00e8 254A     		ldr	r2, .L319+4
 3996 00ea 1360     		str	r3, [r2]
 3997 00ec FB69     		ldr	r3, [r7, #28]
 3998 00ee DA6A     		ldr	r2, [r3, #44]
 3999 00f0 2449     		ldr	r1, .L319+8
 4000 00f2 1346     		mov	r3, r2
 4001 00f4 9B00     		lsls	r3, r3, #2
 4002 00f6 1344     		add	r3, r3, r2
 4003 00f8 9B00     		lsls	r3, r3, #2
 4004 00fa 0B44     		add	r3, r3, r1
 4005 00fc 0433     		adds	r3, r3, #4
 4006 00fe 1B68     		ldr	r3, [r3]
 4007 0100 3B61     		str	r3, [r7, #16]
 4008 0102 FB69     		ldr	r3, [r7, #28]
 4009 0104 3A69     		ldr	r2, [r7, #16]
 4010 0106 9A60     		str	r2, [r3, #8]
 4011 0108 3B69     		ldr	r3, [r7, #16]
 4012 010a 9A68     		ldr	r2, [r3, #8]
 4013 010c FB69     		ldr	r3, [r7, #28]
 4014 010e DA60     		str	r2, [r3, #12]
 4015 0110 3B69     		ldr	r3, [r7, #16]
 4016 0112 9B68     		ldr	r3, [r3, #8]
 4017 0114 FA69     		ldr	r2, [r7, #28]
 4018 0116 0432     		adds	r2, r2, #4
 4019 0118 5A60     		str	r2, [r3, #4]
 4020 011a FB69     		ldr	r3, [r7, #28]
 4021 011c 1A1D     		adds	r2, r3, #4
ARM GAS  C:\msys64\tmp\cc2KM9Cz.s 			page 70


 4022 011e 3B69     		ldr	r3, [r7, #16]
 4023 0120 9A60     		str	r2, [r3, #8]
 4024 0122 FB69     		ldr	r3, [r7, #28]
 4025 0124 DA6A     		ldr	r2, [r3, #44]
 4026 0126 1346     		mov	r3, r2
 4027 0128 9B00     		lsls	r3, r3, #2
 4028 012a 1344     		add	r3, r3, r2
 4029 012c 9B00     		lsls	r3, r3, #2
 4030 012e 154A     		ldr	r2, .L319+8
 4031 0130 1A44     		add	r2, r2, r3
 4032 0132 FB69     		ldr	r3, [r7, #28]
 4033 0134 5A61     		str	r2, [r3, #20]
 4034 0136 FB69     		ldr	r3, [r7, #28]
 4035 0138 DA6A     		ldr	r2, [r3, #44]
 4036 013a 1249     		ldr	r1, .L319+8
 4037 013c 1346     		mov	r3, r2
 4038 013e 9B00     		lsls	r3, r3, #2
 4039 0140 1344     		add	r3, r3, r2
 4040 0142 9B00     		lsls	r3, r3, #2
 4041 0144 0B44     		add	r3, r3, r1
 4042 0146 1B68     		ldr	r3, [r3]
 4043 0148 FA69     		ldr	r2, [r7, #28]
 4044 014a D26A     		ldr	r2, [r2, #44]
 4045 014c 591C     		adds	r1, r3, #1
 4046 014e 0D48     		ldr	r0, .L319+8
 4047 0150 1346     		mov	r3, r2
 4048 0152 9B00     		lsls	r3, r3, #2
 4049 0154 1344     		add	r3, r3, r2
 4050 0156 9B00     		lsls	r3, r3, #2
 4051 0158 0344     		add	r3, r3, r0
 4052 015a 1960     		str	r1, [r3]
 4053 015c FB69     		ldr	r3, [r7, #28]
 4054 015e DA6A     		ldr	r2, [r3, #44]
 4055 0160 094B     		ldr	r3, .L319+12
 4056 0162 1B68     		ldr	r3, [r3]
 4057 0164 DB6A     		ldr	r3, [r3, #44]
 4058 0166 9A42     		cmp	r2, r3
 4059 0168 02D9     		bls	.L318
 4060 016a 084B     		ldr	r3, .L319+16
 4061 016c 0122     		movs	r2, #1
 4062 016e 1A60     		str	r2, [r3]
 4063              	.L318:
 4064 0170 00BF     		nop
 4065 0172 2437     		adds	r7, r7, #36
 4066 0174 BD46     		mov	sp, r7
 4067              		@ sp needed
 4068 0176 5DF8047B 		ldr	r7, [sp], #4
 4069 017a 7047     		bx	lr
 4070              	.L320:
 4071              		.align	2
 4072              	.L319:
 4073 017c 00000000 		.word	uxSchedulerSuspended
 4074 0180 00000000 		.word	uxTopReadyPriority
 4075 0184 00000000 		.word	pxReadyTasksLists
 4076 0188 00000000 		.word	pxCurrentTCB
 4077 018c 00000000 		.word	xYieldPendings
 4079              		.section	.text.vTaskSetTimeOutState,"ax",%progbits
ARM GAS  C:\msys64\tmp\cc2KM9Cz.s 			page 71


 4080              		.align	1
 4081              		.global	vTaskSetTimeOutState
 4082              		.syntax unified
 4083              		.thumb
 4084              		.thumb_func
 4086              	vTaskSetTimeOutState:
 4087              		@ args = 0, pretend = 0, frame = 16
 4088              		@ frame_needed = 1, uses_anonymous_args = 0
 4089 0000 80B5     		push	{r7, lr}
 4090 0002 84B0     		sub	sp, sp, #16
 4091 0004 00AF     		add	r7, sp, #0
 4092 0006 7860     		str	r0, [r7, #4]
 4093 0008 7B68     		ldr	r3, [r7, #4]
 4094 000a 002B     		cmp	r3, #0
 4095 000c 0DD1     		bne	.L322
 4096              		.syntax unified
 4097              	@ 214 "Middlewares/stm32f746_lwip_withos_porting/FreeRTOS/portable/GCC/ARM_CM7/r0p1/portmacro.h" 1
 4098 000e 4FF05003 		   mov r3, #80                                              
 4099 0012 72B6     	   cpsid i                                                 
 4100 0014 83F31188 	   msr basepri, r3                                         
 4101 0018 BFF36F8F 	   isb                                                     
 4102 001c BFF34F8F 	   dsb                                                     
 4103 0020 62B6     	   cpsie i                                                 
 4104              	
 4105              	@ 0 "" 2
 4106              		.thumb
 4107              		.syntax unified
 4108 0022 FB60     		str	r3, [r7, #12]
 4109 0024 00BF     		nop
 4110              	.L323:
 4111 0026 00BF     		nop
 4112 0028 FDE7     		b	.L323
 4113              	.L322:
 4114 002a FFF7FEFF 		bl	vPortEnterCritical
 4115 002e 074B     		ldr	r3, .L324
 4116 0030 1A68     		ldr	r2, [r3]
 4117 0032 7B68     		ldr	r3, [r7, #4]
 4118 0034 1A60     		str	r2, [r3]
 4119 0036 064B     		ldr	r3, .L324+4
 4120 0038 1A68     		ldr	r2, [r3]
 4121 003a 7B68     		ldr	r3, [r7, #4]
 4122 003c 5A60     		str	r2, [r3, #4]
 4123 003e FFF7FEFF 		bl	vPortExitCritical
 4124 0042 00BF     		nop
 4125 0044 1037     		adds	r7, r7, #16
 4126 0046 BD46     		mov	sp, r7
 4127              		@ sp needed
 4128 0048 80BD     		pop	{r7, pc}
 4129              	.L325:
 4130 004a 00BF     		.align	2
 4131              	.L324:
 4132 004c 00000000 		.word	xNumOfOverflows
 4133 0050 00000000 		.word	xTickCount
 4135              		.section	.text.vTaskInternalSetTimeOutState,"ax",%progbits
 4136              		.align	1
 4137              		.global	vTaskInternalSetTimeOutState
 4138              		.syntax unified
ARM GAS  C:\msys64\tmp\cc2KM9Cz.s 			page 72


 4139              		.thumb
 4140              		.thumb_func
 4142              	vTaskInternalSetTimeOutState:
 4143              		@ args = 0, pretend = 0, frame = 8
 4144              		@ frame_needed = 1, uses_anonymous_args = 0
 4145              		@ link register save eliminated.
 4146 0000 80B4     		push	{r7}
 4147 0002 83B0     		sub	sp, sp, #12
 4148 0004 00AF     		add	r7, sp, #0
 4149 0006 7860     		str	r0, [r7, #4]
 4150 0008 064B     		ldr	r3, .L327
 4151 000a 1A68     		ldr	r2, [r3]
 4152 000c 7B68     		ldr	r3, [r7, #4]
 4153 000e 1A60     		str	r2, [r3]
 4154 0010 054B     		ldr	r3, .L327+4
 4155 0012 1A68     		ldr	r2, [r3]
 4156 0014 7B68     		ldr	r3, [r7, #4]
 4157 0016 5A60     		str	r2, [r3, #4]
 4158 0018 00BF     		nop
 4159 001a 0C37     		adds	r7, r7, #12
 4160 001c BD46     		mov	sp, r7
 4161              		@ sp needed
 4162 001e 5DF8047B 		ldr	r7, [sp], #4
 4163 0022 7047     		bx	lr
 4164              	.L328:
 4165              		.align	2
 4166              	.L327:
 4167 0024 00000000 		.word	xNumOfOverflows
 4168 0028 00000000 		.word	xTickCount
 4170              		.section	.text.xTaskCheckForTimeOut,"ax",%progbits
 4171              		.align	1
 4172              		.global	xTaskCheckForTimeOut
 4173              		.syntax unified
 4174              		.thumb
 4175              		.thumb_func
 4177              	xTaskCheckForTimeOut:
 4178              		@ args = 0, pretend = 0, frame = 32
 4179              		@ frame_needed = 1, uses_anonymous_args = 0
 4180 0000 80B5     		push	{r7, lr}
 4181 0002 88B0     		sub	sp, sp, #32
 4182 0004 00AF     		add	r7, sp, #0
 4183 0006 7860     		str	r0, [r7, #4]
 4184 0008 3960     		str	r1, [r7]
 4185 000a 7B68     		ldr	r3, [r7, #4]
 4186 000c 002B     		cmp	r3, #0
 4187 000e 0DD1     		bne	.L330
 4188              		.syntax unified
 4189              	@ 214 "Middlewares/stm32f746_lwip_withos_porting/FreeRTOS/portable/GCC/ARM_CM7/r0p1/portmacro.h" 1
 4190 0010 4FF05003 		   mov r3, #80                                              
 4191 0014 72B6     	   cpsid i                                                 
 4192 0016 83F31188 	   msr basepri, r3                                         
 4193 001a BFF36F8F 	   isb                                                     
 4194 001e BFF34F8F 	   dsb                                                     
 4195 0022 62B6     	   cpsie i                                                 
 4196              	
 4197              	@ 0 "" 2
 4198              		.thumb
ARM GAS  C:\msys64\tmp\cc2KM9Cz.s 			page 73


 4199              		.syntax unified
 4200 0024 3B61     		str	r3, [r7, #16]
 4201 0026 00BF     		nop
 4202              	.L331:
 4203 0028 00BF     		nop
 4204 002a FDE7     		b	.L331
 4205              	.L330:
 4206 002c 3B68     		ldr	r3, [r7]
 4207 002e 002B     		cmp	r3, #0
 4208 0030 0DD1     		bne	.L332
 4209              		.syntax unified
 4210              	@ 214 "Middlewares/stm32f746_lwip_withos_porting/FreeRTOS/portable/GCC/ARM_CM7/r0p1/portmacro.h" 1
 4211 0032 4FF05003 		   mov r3, #80                                              
 4212 0036 72B6     	   cpsid i                                                 
 4213 0038 83F31188 	   msr basepri, r3                                         
 4214 003c BFF36F8F 	   isb                                                     
 4215 0040 BFF34F8F 	   dsb                                                     
 4216 0044 62B6     	   cpsie i                                                 
 4217              	
 4218              	@ 0 "" 2
 4219              		.thumb
 4220              		.syntax unified
 4221 0046 FB60     		str	r3, [r7, #12]
 4222 0048 00BF     		nop
 4223              	.L333:
 4224 004a 00BF     		nop
 4225 004c FDE7     		b	.L333
 4226              	.L332:
 4227 004e FFF7FEFF 		bl	vPortEnterCritical
 4228 0052 1F4B     		ldr	r3, .L339
 4229 0054 1B68     		ldr	r3, [r3]
 4230 0056 BB61     		str	r3, [r7, #24]
 4231 0058 7B68     		ldr	r3, [r7, #4]
 4232 005a 5B68     		ldr	r3, [r3, #4]
 4233 005c BA69     		ldr	r2, [r7, #24]
 4234 005e D31A     		subs	r3, r2, r3
 4235 0060 7B61     		str	r3, [r7, #20]
 4236 0062 3B68     		ldr	r3, [r7]
 4237 0064 1B68     		ldr	r3, [r3]
 4238 0066 B3F1FF3F 		cmp	r3, #-1
 4239 006a 02D1     		bne	.L334
 4240 006c 0023     		movs	r3, #0
 4241 006e FB61     		str	r3, [r7, #28]
 4242 0070 26E0     		b	.L335
 4243              	.L334:
 4244 0072 7B68     		ldr	r3, [r7, #4]
 4245 0074 1A68     		ldr	r2, [r3]
 4246 0076 174B     		ldr	r3, .L339+4
 4247 0078 1B68     		ldr	r3, [r3]
 4248 007a 9A42     		cmp	r2, r3
 4249 007c 0AD0     		beq	.L336
 4250 007e 7B68     		ldr	r3, [r7, #4]
 4251 0080 5B68     		ldr	r3, [r3, #4]
 4252 0082 BA69     		ldr	r2, [r7, #24]
 4253 0084 9A42     		cmp	r2, r3
 4254 0086 05D3     		bcc	.L336
 4255 0088 0123     		movs	r3, #1
ARM GAS  C:\msys64\tmp\cc2KM9Cz.s 			page 74


 4256 008a FB61     		str	r3, [r7, #28]
 4257 008c 3B68     		ldr	r3, [r7]
 4258 008e 0022     		movs	r2, #0
 4259 0090 1A60     		str	r2, [r3]
 4260 0092 15E0     		b	.L335
 4261              	.L336:
 4262 0094 3B68     		ldr	r3, [r7]
 4263 0096 1B68     		ldr	r3, [r3]
 4264 0098 7A69     		ldr	r2, [r7, #20]
 4265 009a 9A42     		cmp	r2, r3
 4266 009c 0BD2     		bcs	.L337
 4267 009e 3B68     		ldr	r3, [r7]
 4268 00a0 1A68     		ldr	r2, [r3]
 4269 00a2 7B69     		ldr	r3, [r7, #20]
 4270 00a4 D21A     		subs	r2, r2, r3
 4271 00a6 3B68     		ldr	r3, [r7]
 4272 00a8 1A60     		str	r2, [r3]
 4273 00aa 7868     		ldr	r0, [r7, #4]
 4274 00ac FFF7FEFF 		bl	vTaskInternalSetTimeOutState
 4275 00b0 0023     		movs	r3, #0
 4276 00b2 FB61     		str	r3, [r7, #28]
 4277 00b4 04E0     		b	.L335
 4278              	.L337:
 4279 00b6 3B68     		ldr	r3, [r7]
 4280 00b8 0022     		movs	r2, #0
 4281 00ba 1A60     		str	r2, [r3]
 4282 00bc 0123     		movs	r3, #1
 4283 00be FB61     		str	r3, [r7, #28]
 4284              	.L335:
 4285 00c0 FFF7FEFF 		bl	vPortExitCritical
 4286 00c4 FB69     		ldr	r3, [r7, #28]
 4287 00c6 1846     		mov	r0, r3
 4288 00c8 2037     		adds	r7, r7, #32
 4289 00ca BD46     		mov	sp, r7
 4290              		@ sp needed
 4291 00cc 80BD     		pop	{r7, pc}
 4292              	.L340:
 4293 00ce 00BF     		.align	2
 4294              	.L339:
 4295 00d0 00000000 		.word	xTickCount
 4296 00d4 00000000 		.word	xNumOfOverflows
 4298              		.section	.text.vTaskMissedYield,"ax",%progbits
 4299              		.align	1
 4300              		.global	vTaskMissedYield
 4301              		.syntax unified
 4302              		.thumb
 4303              		.thumb_func
 4305              	vTaskMissedYield:
 4306              		@ args = 0, pretend = 0, frame = 0
 4307              		@ frame_needed = 1, uses_anonymous_args = 0
 4308              		@ link register save eliminated.
 4309 0000 80B4     		push	{r7}
 4310 0002 00AF     		add	r7, sp, #0
 4311 0004 034B     		ldr	r3, .L342
 4312 0006 0122     		movs	r2, #1
 4313 0008 1A60     		str	r2, [r3]
 4314 000a 00BF     		nop
ARM GAS  C:\msys64\tmp\cc2KM9Cz.s 			page 75


 4315 000c BD46     		mov	sp, r7
 4316              		@ sp needed
 4317 000e 5DF8047B 		ldr	r7, [sp], #4
 4318 0012 7047     		bx	lr
 4319              	.L343:
 4320              		.align	2
 4321              	.L342:
 4322 0014 00000000 		.word	xYieldPendings
 4324              		.section	.text.prvIdleTask,"ax",%progbits
 4325              		.align	1
 4326              		.syntax unified
 4327              		.thumb
 4328              		.thumb_func
 4330              	prvIdleTask:
 4331              		@ args = 0, pretend = 0, frame = 8
 4332              		@ frame_needed = 1, uses_anonymous_args = 0
 4333 0000 80B5     		push	{r7, lr}
 4334 0002 82B0     		sub	sp, sp, #8
 4335 0004 00AF     		add	r7, sp, #0
 4336 0006 7860     		str	r0, [r7, #4]
 4337              	.L346:
 4338 0008 FFF7FEFF 		bl	prvCheckTasksWaitingTermination
 4339 000c 064B     		ldr	r3, .L347
 4340 000e 1B68     		ldr	r3, [r3]
 4341 0010 012B     		cmp	r3, #1
 4342 0012 F9D9     		bls	.L346
 4343 0014 054B     		ldr	r3, .L347+4
 4344 0016 4FF08052 		mov	r2, #268435456
 4345 001a 1A60     		str	r2, [r3]
 4346              		.syntax unified
 4347              	@ 5852 "Middlewares/stm32f746_lwip_withos_porting/FreeRTOS/Core/Src/tasks.c" 1
 4348 001c BFF34F8F 		dsb
 4349              	@ 0 "" 2
 4350              	@ 5852 "Middlewares/stm32f746_lwip_withos_porting/FreeRTOS/Core/Src/tasks.c" 1
 4351 0020 BFF36F8F 		isb
 4352              	@ 0 "" 2
 4353              		.thumb
 4354              		.syntax unified
 4355 0024 F0E7     		b	.L346
 4356              	.L348:
 4357 0026 00BF     		.align	2
 4358              	.L347:
 4359 0028 00000000 		.word	pxReadyTasksLists
 4360 002c 04ED00E0 		.word	-536810236
 4362              		.section	.text.prvInitialiseTaskLists,"ax",%progbits
 4363              		.align	1
 4364              		.syntax unified
 4365              		.thumb
 4366              		.thumb_func
 4368              	prvInitialiseTaskLists:
 4369              		@ args = 0, pretend = 0, frame = 8
 4370              		@ frame_needed = 1, uses_anonymous_args = 0
 4371 0000 80B5     		push	{r7, lr}
 4372 0002 82B0     		sub	sp, sp, #8
 4373 0004 00AF     		add	r7, sp, #0
 4374 0006 0023     		movs	r3, #0
 4375 0008 7B60     		str	r3, [r7, #4]
ARM GAS  C:\msys64\tmp\cc2KM9Cz.s 			page 76


 4376 000a 0CE0     		b	.L350
 4377              	.L351:
 4378 000c 7A68     		ldr	r2, [r7, #4]
 4379 000e 1346     		mov	r3, r2
 4380 0010 9B00     		lsls	r3, r3, #2
 4381 0012 1344     		add	r3, r3, r2
 4382 0014 9B00     		lsls	r3, r3, #2
 4383 0016 124A     		ldr	r2, .L352
 4384 0018 1344     		add	r3, r3, r2
 4385 001a 1846     		mov	r0, r3
 4386 001c FFF7FEFF 		bl	vListInitialise
 4387 0020 7B68     		ldr	r3, [r7, #4]
 4388 0022 0133     		adds	r3, r3, #1
 4389 0024 7B60     		str	r3, [r7, #4]
 4390              	.L350:
 4391 0026 7B68     		ldr	r3, [r7, #4]
 4392 0028 062B     		cmp	r3, #6
 4393 002a EFD9     		bls	.L351
 4394 002c 0D48     		ldr	r0, .L352+4
 4395 002e FFF7FEFF 		bl	vListInitialise
 4396 0032 0D48     		ldr	r0, .L352+8
 4397 0034 FFF7FEFF 		bl	vListInitialise
 4398 0038 0C48     		ldr	r0, .L352+12
 4399 003a FFF7FEFF 		bl	vListInitialise
 4400 003e 0C48     		ldr	r0, .L352+16
 4401 0040 FFF7FEFF 		bl	vListInitialise
 4402 0044 0B48     		ldr	r0, .L352+20
 4403 0046 FFF7FEFF 		bl	vListInitialise
 4404 004a 0B4B     		ldr	r3, .L352+24
 4405 004c 054A     		ldr	r2, .L352+4
 4406 004e 1A60     		str	r2, [r3]
 4407 0050 0A4B     		ldr	r3, .L352+28
 4408 0052 054A     		ldr	r2, .L352+8
 4409 0054 1A60     		str	r2, [r3]
 4410 0056 00BF     		nop
 4411 0058 0837     		adds	r7, r7, #8
 4412 005a BD46     		mov	sp, r7
 4413              		@ sp needed
 4414 005c 80BD     		pop	{r7, pc}
 4415              	.L353:
 4416 005e 00BF     		.align	2
 4417              	.L352:
 4418 0060 00000000 		.word	pxReadyTasksLists
 4419 0064 00000000 		.word	xDelayedTaskList1
 4420 0068 00000000 		.word	xDelayedTaskList2
 4421 006c 00000000 		.word	xPendingReadyList
 4422 0070 00000000 		.word	xTasksWaitingTermination
 4423 0074 00000000 		.word	xSuspendedTaskList
 4424 0078 00000000 		.word	pxDelayedTaskList
 4425 007c 00000000 		.word	pxOverflowDelayedTaskList
 4427              		.section	.text.prvCheckTasksWaitingTermination,"ax",%progbits
 4428              		.align	1
 4429              		.syntax unified
 4430              		.thumb
 4431              		.thumb_func
 4433              	prvCheckTasksWaitingTermination:
 4434              		@ args = 0, pretend = 0, frame = 8
ARM GAS  C:\msys64\tmp\cc2KM9Cz.s 			page 77


 4435              		@ frame_needed = 1, uses_anonymous_args = 0
 4436 0000 80B5     		push	{r7, lr}
 4437 0002 82B0     		sub	sp, sp, #8
 4438 0004 00AF     		add	r7, sp, #0
 4439 0006 19E0     		b	.L355
 4440              	.L356:
 4441 0008 FFF7FEFF 		bl	vPortEnterCritical
 4442 000c 104B     		ldr	r3, .L357
 4443 000e DB68     		ldr	r3, [r3, #12]
 4444 0010 DB68     		ldr	r3, [r3, #12]
 4445 0012 7B60     		str	r3, [r7, #4]
 4446 0014 7B68     		ldr	r3, [r7, #4]
 4447 0016 0433     		adds	r3, r3, #4
 4448 0018 1846     		mov	r0, r3
 4449 001a FFF7FEFF 		bl	uxListRemove
 4450 001e 0D4B     		ldr	r3, .L357+4
 4451 0020 1B68     		ldr	r3, [r3]
 4452 0022 013B     		subs	r3, r3, #1
 4453 0024 0B4A     		ldr	r2, .L357+4
 4454 0026 1360     		str	r3, [r2]
 4455 0028 0B4B     		ldr	r3, .L357+8
 4456 002a 1B68     		ldr	r3, [r3]
 4457 002c 013B     		subs	r3, r3, #1
 4458 002e 0A4A     		ldr	r2, .L357+8
 4459 0030 1360     		str	r3, [r2]
 4460 0032 FFF7FEFF 		bl	vPortExitCritical
 4461 0036 7868     		ldr	r0, [r7, #4]
 4462 0038 FFF7FEFF 		bl	prvDeleteTCB
 4463              	.L355:
 4464 003c 064B     		ldr	r3, .L357+8
 4465 003e 1B68     		ldr	r3, [r3]
 4466 0040 002B     		cmp	r3, #0
 4467 0042 E1D1     		bne	.L356
 4468 0044 00BF     		nop
 4469 0046 00BF     		nop
 4470 0048 0837     		adds	r7, r7, #8
 4471 004a BD46     		mov	sp, r7
 4472              		@ sp needed
 4473 004c 80BD     		pop	{r7, pc}
 4474              	.L358:
 4475 004e 00BF     		.align	2
 4476              	.L357:
 4477 0050 00000000 		.word	xTasksWaitingTermination
 4478 0054 00000000 		.word	uxCurrentNumberOfTasks
 4479 0058 00000000 		.word	uxDeletedTasksWaitingCleanUp
 4481              		.section	.text.prvDeleteTCB,"ax",%progbits
 4482              		.align	1
 4483              		.syntax unified
 4484              		.thumb
 4485              		.thumb_func
 4487              	prvDeleteTCB:
 4488              		@ args = 0, pretend = 0, frame = 8
 4489              		@ frame_needed = 1, uses_anonymous_args = 0
 4490 0000 80B5     		push	{r7, lr}
 4491 0002 82B0     		sub	sp, sp, #8
 4492 0004 00AF     		add	r7, sp, #0
 4493 0006 7860     		str	r0, [r7, #4]
ARM GAS  C:\msys64\tmp\cc2KM9Cz.s 			page 78


 4494 0008 7B68     		ldr	r3, [r7, #4]
 4495 000a 1B6B     		ldr	r3, [r3, #48]
 4496 000c 1846     		mov	r0, r3
 4497 000e FFF7FEFF 		bl	vPortFree
 4498 0012 7868     		ldr	r0, [r7, #4]
 4499 0014 FFF7FEFF 		bl	vPortFree
 4500 0018 00BF     		nop
 4501 001a 0837     		adds	r7, r7, #8
 4502 001c BD46     		mov	sp, r7
 4503              		@ sp needed
 4504 001e 80BD     		pop	{r7, pc}
 4506              		.section	.text.prvResetNextTaskUnblockTime,"ax",%progbits
 4507              		.align	1
 4508              		.syntax unified
 4509              		.thumb
 4510              		.thumb_func
 4512              	prvResetNextTaskUnblockTime:
 4513              		@ args = 0, pretend = 0, frame = 0
 4514              		@ frame_needed = 1, uses_anonymous_args = 0
 4515              		@ link register save eliminated.
 4516 0000 80B4     		push	{r7}
 4517 0002 00AF     		add	r7, sp, #0
 4518 0004 0A4B     		ldr	r3, .L364
 4519 0006 1B68     		ldr	r3, [r3]
 4520 0008 1B68     		ldr	r3, [r3]
 4521 000a 002B     		cmp	r3, #0
 4522 000c 04D1     		bne	.L361
 4523 000e 094B     		ldr	r3, .L364+4
 4524 0010 4FF0FF32 		mov	r2, #-1
 4525 0014 1A60     		str	r2, [r3]
 4526 0016 05E0     		b	.L363
 4527              	.L361:
 4528 0018 054B     		ldr	r3, .L364
 4529 001a 1B68     		ldr	r3, [r3]
 4530 001c DB68     		ldr	r3, [r3, #12]
 4531 001e 1B68     		ldr	r3, [r3]
 4532 0020 044A     		ldr	r2, .L364+4
 4533 0022 1360     		str	r3, [r2]
 4534              	.L363:
 4535 0024 00BF     		nop
 4536 0026 BD46     		mov	sp, r7
 4537              		@ sp needed
 4538 0028 5DF8047B 		ldr	r7, [sp], #4
 4539 002c 7047     		bx	lr
 4540              	.L365:
 4541 002e 00BF     		.align	2
 4542              	.L364:
 4543 0030 00000000 		.word	pxDelayedTaskList
 4544 0034 00000000 		.word	xNextTaskUnblockTime
 4546              		.section	.text.xTaskGetCurrentTaskHandle,"ax",%progbits
 4547              		.align	1
 4548              		.global	xTaskGetCurrentTaskHandle
 4549              		.syntax unified
 4550              		.thumb
 4551              		.thumb_func
 4553              	xTaskGetCurrentTaskHandle:
 4554              		@ args = 0, pretend = 0, frame = 8
ARM GAS  C:\msys64\tmp\cc2KM9Cz.s 			page 79


 4555              		@ frame_needed = 1, uses_anonymous_args = 0
 4556              		@ link register save eliminated.
 4557 0000 80B4     		push	{r7}
 4558 0002 83B0     		sub	sp, sp, #12
 4559 0004 00AF     		add	r7, sp, #0
 4560 0006 054B     		ldr	r3, .L368
 4561 0008 1B68     		ldr	r3, [r3]
 4562 000a 7B60     		str	r3, [r7, #4]
 4563 000c 7B68     		ldr	r3, [r7, #4]
 4564 000e 1846     		mov	r0, r3
 4565 0010 0C37     		adds	r7, r7, #12
 4566 0012 BD46     		mov	sp, r7
 4567              		@ sp needed
 4568 0014 5DF8047B 		ldr	r7, [sp], #4
 4569 0018 7047     		bx	lr
 4570              	.L369:
 4571 001a 00BF     		.align	2
 4572              	.L368:
 4573 001c 00000000 		.word	pxCurrentTCB
 4575              		.section	.text.xTaskGetCurrentTaskHandleForCore,"ax",%progbits
 4576              		.align	1
 4577              		.global	xTaskGetCurrentTaskHandleForCore
 4578              		.syntax unified
 4579              		.thumb
 4580              		.thumb_func
 4582              	xTaskGetCurrentTaskHandleForCore:
 4583              		@ args = 0, pretend = 0, frame = 16
 4584              		@ frame_needed = 1, uses_anonymous_args = 0
 4585              		@ link register save eliminated.
 4586 0000 80B4     		push	{r7}
 4587 0002 85B0     		sub	sp, sp, #20
 4588 0004 00AF     		add	r7, sp, #0
 4589 0006 7860     		str	r0, [r7, #4]
 4590 0008 0023     		movs	r3, #0
 4591 000a FB60     		str	r3, [r7, #12]
 4592 000c 7B68     		ldr	r3, [r7, #4]
 4593 000e 002B     		cmp	r3, #0
 4594 0010 05DB     		blt	.L371
 4595 0012 7B68     		ldr	r3, [r7, #4]
 4596 0014 002B     		cmp	r3, #0
 4597 0016 02DC     		bgt	.L371
 4598 0018 044B     		ldr	r3, .L373
 4599 001a 1B68     		ldr	r3, [r3]
 4600 001c FB60     		str	r3, [r7, #12]
 4601              	.L371:
 4602 001e FB68     		ldr	r3, [r7, #12]
 4603 0020 1846     		mov	r0, r3
 4604 0022 1437     		adds	r7, r7, #20
 4605 0024 BD46     		mov	sp, r7
 4606              		@ sp needed
 4607 0026 5DF8047B 		ldr	r7, [sp], #4
 4608 002a 7047     		bx	lr
 4609              	.L374:
 4610              		.align	2
 4611              	.L373:
 4612 002c 00000000 		.word	pxCurrentTCB
 4614              		.section	.text.xTaskGetSchedulerState,"ax",%progbits
ARM GAS  C:\msys64\tmp\cc2KM9Cz.s 			page 80


 4615              		.align	1
 4616              		.global	xTaskGetSchedulerState
 4617              		.syntax unified
 4618              		.thumb
 4619              		.thumb_func
 4621              	xTaskGetSchedulerState:
 4622              		@ args = 0, pretend = 0, frame = 8
 4623              		@ frame_needed = 1, uses_anonymous_args = 0
 4624              		@ link register save eliminated.
 4625 0000 80B4     		push	{r7}
 4626 0002 83B0     		sub	sp, sp, #12
 4627 0004 00AF     		add	r7, sp, #0
 4628 0006 0B4B     		ldr	r3, .L380
 4629 0008 1B68     		ldr	r3, [r3]
 4630 000a 002B     		cmp	r3, #0
 4631 000c 02D1     		bne	.L376
 4632 000e 0123     		movs	r3, #1
 4633 0010 7B60     		str	r3, [r7, #4]
 4634 0012 08E0     		b	.L377
 4635              	.L376:
 4636 0014 084B     		ldr	r3, .L380+4
 4637 0016 1B68     		ldr	r3, [r3]
 4638 0018 002B     		cmp	r3, #0
 4639 001a 02D1     		bne	.L378
 4640 001c 0223     		movs	r3, #2
 4641 001e 7B60     		str	r3, [r7, #4]
 4642 0020 01E0     		b	.L377
 4643              	.L378:
 4644 0022 0023     		movs	r3, #0
 4645 0024 7B60     		str	r3, [r7, #4]
 4646              	.L377:
 4647 0026 7B68     		ldr	r3, [r7, #4]
 4648 0028 1846     		mov	r0, r3
 4649 002a 0C37     		adds	r7, r7, #12
 4650 002c BD46     		mov	sp, r7
 4651              		@ sp needed
 4652 002e 5DF8047B 		ldr	r7, [sp], #4
 4653 0032 7047     		bx	lr
 4654              	.L381:
 4655              		.align	2
 4656              	.L380:
 4657 0034 00000000 		.word	xSchedulerRunning
 4658 0038 00000000 		.word	uxSchedulerSuspended
 4660              		.section	.text.xTaskPriorityInherit,"ax",%progbits
 4661              		.align	1
 4662              		.global	xTaskPriorityInherit
 4663              		.syntax unified
 4664              		.thumb
 4665              		.thumb_func
 4667              	xTaskPriorityInherit:
 4668              		@ args = 0, pretend = 0, frame = 24
 4669              		@ frame_needed = 1, uses_anonymous_args = 0
 4670 0000 80B5     		push	{r7, lr}
 4671 0002 86B0     		sub	sp, sp, #24
 4672 0004 00AF     		add	r7, sp, #0
 4673 0006 7860     		str	r0, [r7, #4]
 4674 0008 7B68     		ldr	r3, [r7, #4]
ARM GAS  C:\msys64\tmp\cc2KM9Cz.s 			page 81


 4675 000a 3B61     		str	r3, [r7, #16]
 4676 000c 0023     		movs	r3, #0
 4677 000e 7B61     		str	r3, [r7, #20]
 4678 0010 7B68     		ldr	r3, [r7, #4]
 4679 0012 002B     		cmp	r3, #0
 4680 0014 00F08980 		beq	.L383
 4681 0018 3B69     		ldr	r3, [r7, #16]
 4682 001a DA6A     		ldr	r2, [r3, #44]
 4683 001c 454B     		ldr	r3, .L390
 4684 001e 1B68     		ldr	r3, [r3]
 4685 0020 DB6A     		ldr	r3, [r3, #44]
 4686 0022 9A42     		cmp	r2, r3
 4687 0024 78D2     		bcs	.L384
 4688 0026 3B69     		ldr	r3, [r7, #16]
 4689 0028 9B69     		ldr	r3, [r3, #24]
 4690 002a 002B     		cmp	r3, #0
 4691 002c 06DB     		blt	.L385
 4692 002e 414B     		ldr	r3, .L390
 4693 0030 1B68     		ldr	r3, [r3]
 4694 0032 DB6A     		ldr	r3, [r3, #44]
 4695 0034 C3F10702 		rsb	r2, r3, #7
 4696 0038 3B69     		ldr	r3, [r7, #16]
 4697 003a 9A61     		str	r2, [r3, #24]
 4698              	.L385:
 4699 003c 3B69     		ldr	r3, [r7, #16]
 4700 003e 5969     		ldr	r1, [r3, #20]
 4701 0040 3B69     		ldr	r3, [r7, #16]
 4702 0042 DA6A     		ldr	r2, [r3, #44]
 4703 0044 1346     		mov	r3, r2
 4704 0046 9B00     		lsls	r3, r3, #2
 4705 0048 1344     		add	r3, r3, r2
 4706 004a 9B00     		lsls	r3, r3, #2
 4707 004c 3A4A     		ldr	r2, .L390+4
 4708 004e 1344     		add	r3, r3, r2
 4709 0050 9942     		cmp	r1, r3
 4710 0052 59D1     		bne	.L386
 4711 0054 3B69     		ldr	r3, [r7, #16]
 4712 0056 0433     		adds	r3, r3, #4
 4713 0058 1846     		mov	r0, r3
 4714 005a FFF7FEFF 		bl	uxListRemove
 4715 005e 0346     		mov	r3, r0
 4716 0060 002B     		cmp	r3, #0
 4717 0062 0AD1     		bne	.L387
 4718 0064 3B69     		ldr	r3, [r7, #16]
 4719 0066 DB6A     		ldr	r3, [r3, #44]
 4720 0068 0122     		movs	r2, #1
 4721 006a 02FA03F3 		lsl	r3, r2, r3
 4722 006e DA43     		mvns	r2, r3
 4723 0070 324B     		ldr	r3, .L390+8
 4724 0072 1B68     		ldr	r3, [r3]
 4725 0074 1340     		ands	r3, r3, r2
 4726 0076 314A     		ldr	r2, .L390+8
 4727 0078 1360     		str	r3, [r2]
 4728              	.L387:
 4729 007a 2E4B     		ldr	r3, .L390
 4730 007c 1B68     		ldr	r3, [r3]
 4731 007e DA6A     		ldr	r2, [r3, #44]
ARM GAS  C:\msys64\tmp\cc2KM9Cz.s 			page 82


 4732 0080 3B69     		ldr	r3, [r7, #16]
 4733 0082 DA62     		str	r2, [r3, #44]
 4734 0084 3B69     		ldr	r3, [r7, #16]
 4735 0086 DB6A     		ldr	r3, [r3, #44]
 4736 0088 0122     		movs	r2, #1
 4737 008a 9A40     		lsls	r2, r2, r3
 4738 008c 2B4B     		ldr	r3, .L390+8
 4739 008e 1B68     		ldr	r3, [r3]
 4740 0090 1343     		orrs	r3, r3, r2
 4741 0092 2A4A     		ldr	r2, .L390+8
 4742 0094 1360     		str	r3, [r2]
 4743 0096 3B69     		ldr	r3, [r7, #16]
 4744 0098 DA6A     		ldr	r2, [r3, #44]
 4745 009a 2749     		ldr	r1, .L390+4
 4746 009c 1346     		mov	r3, r2
 4747 009e 9B00     		lsls	r3, r3, #2
 4748 00a0 1344     		add	r3, r3, r2
 4749 00a2 9B00     		lsls	r3, r3, #2
 4750 00a4 0B44     		add	r3, r3, r1
 4751 00a6 0433     		adds	r3, r3, #4
 4752 00a8 1B68     		ldr	r3, [r3]
 4753 00aa FB60     		str	r3, [r7, #12]
 4754 00ac 3B69     		ldr	r3, [r7, #16]
 4755 00ae FA68     		ldr	r2, [r7, #12]
 4756 00b0 9A60     		str	r2, [r3, #8]
 4757 00b2 FB68     		ldr	r3, [r7, #12]
 4758 00b4 9A68     		ldr	r2, [r3, #8]
 4759 00b6 3B69     		ldr	r3, [r7, #16]
 4760 00b8 DA60     		str	r2, [r3, #12]
 4761 00ba FB68     		ldr	r3, [r7, #12]
 4762 00bc 9B68     		ldr	r3, [r3, #8]
 4763 00be 3A69     		ldr	r2, [r7, #16]
 4764 00c0 0432     		adds	r2, r2, #4
 4765 00c2 5A60     		str	r2, [r3, #4]
 4766 00c4 3B69     		ldr	r3, [r7, #16]
 4767 00c6 1A1D     		adds	r2, r3, #4
 4768 00c8 FB68     		ldr	r3, [r7, #12]
 4769 00ca 9A60     		str	r2, [r3, #8]
 4770 00cc 3B69     		ldr	r3, [r7, #16]
 4771 00ce DA6A     		ldr	r2, [r3, #44]
 4772 00d0 1346     		mov	r3, r2
 4773 00d2 9B00     		lsls	r3, r3, #2
 4774 00d4 1344     		add	r3, r3, r2
 4775 00d6 9B00     		lsls	r3, r3, #2
 4776 00d8 174A     		ldr	r2, .L390+4
 4777 00da 1A44     		add	r2, r2, r3
 4778 00dc 3B69     		ldr	r3, [r7, #16]
 4779 00de 5A61     		str	r2, [r3, #20]
 4780 00e0 3B69     		ldr	r3, [r7, #16]
 4781 00e2 DA6A     		ldr	r2, [r3, #44]
 4782 00e4 1449     		ldr	r1, .L390+4
 4783 00e6 1346     		mov	r3, r2
 4784 00e8 9B00     		lsls	r3, r3, #2
 4785 00ea 1344     		add	r3, r3, r2
 4786 00ec 9B00     		lsls	r3, r3, #2
 4787 00ee 0B44     		add	r3, r3, r1
 4788 00f0 1B68     		ldr	r3, [r3]
ARM GAS  C:\msys64\tmp\cc2KM9Cz.s 			page 83


 4789 00f2 3A69     		ldr	r2, [r7, #16]
 4790 00f4 D26A     		ldr	r2, [r2, #44]
 4791 00f6 591C     		adds	r1, r3, #1
 4792 00f8 0F48     		ldr	r0, .L390+4
 4793 00fa 1346     		mov	r3, r2
 4794 00fc 9B00     		lsls	r3, r3, #2
 4795 00fe 1344     		add	r3, r3, r2
 4796 0100 9B00     		lsls	r3, r3, #2
 4797 0102 0344     		add	r3, r3, r0
 4798 0104 1960     		str	r1, [r3]
 4799 0106 04E0     		b	.L388
 4800              	.L386:
 4801 0108 0A4B     		ldr	r3, .L390
 4802 010a 1B68     		ldr	r3, [r3]
 4803 010c DA6A     		ldr	r2, [r3, #44]
 4804 010e 3B69     		ldr	r3, [r7, #16]
 4805 0110 DA62     		str	r2, [r3, #44]
 4806              	.L388:
 4807 0112 0123     		movs	r3, #1
 4808 0114 7B61     		str	r3, [r7, #20]
 4809 0116 08E0     		b	.L383
 4810              	.L384:
 4811 0118 3B69     		ldr	r3, [r7, #16]
 4812 011a 5A6C     		ldr	r2, [r3, #68]
 4813 011c 054B     		ldr	r3, .L390
 4814 011e 1B68     		ldr	r3, [r3]
 4815 0120 DB6A     		ldr	r3, [r3, #44]
 4816 0122 9A42     		cmp	r2, r3
 4817 0124 01D2     		bcs	.L383
 4818 0126 0123     		movs	r3, #1
 4819 0128 7B61     		str	r3, [r7, #20]
 4820              	.L383:
 4821 012a 7B69     		ldr	r3, [r7, #20]
 4822 012c 1846     		mov	r0, r3
 4823 012e 1837     		adds	r7, r7, #24
 4824 0130 BD46     		mov	sp, r7
 4825              		@ sp needed
 4826 0132 80BD     		pop	{r7, pc}
 4827              	.L391:
 4828              		.align	2
 4829              	.L390:
 4830 0134 00000000 		.word	pxCurrentTCB
 4831 0138 00000000 		.word	pxReadyTasksLists
 4832 013c 00000000 		.word	uxTopReadyPriority
 4834              		.section	.text.xTaskPriorityDisinherit,"ax",%progbits
 4835              		.align	1
 4836              		.global	xTaskPriorityDisinherit
 4837              		.syntax unified
 4838              		.thumb
 4839              		.thumb_func
 4841              	xTaskPriorityDisinherit:
 4842              		@ args = 0, pretend = 0, frame = 32
 4843              		@ frame_needed = 1, uses_anonymous_args = 0
 4844 0000 80B5     		push	{r7, lr}
 4845 0002 88B0     		sub	sp, sp, #32
 4846 0004 00AF     		add	r7, sp, #0
 4847 0006 7860     		str	r0, [r7, #4]
ARM GAS  C:\msys64\tmp\cc2KM9Cz.s 			page 84


 4848 0008 7B68     		ldr	r3, [r7, #4]
 4849 000a BB61     		str	r3, [r7, #24]
 4850 000c 0023     		movs	r3, #0
 4851 000e FB61     		str	r3, [r7, #28]
 4852 0010 7B68     		ldr	r3, [r7, #4]
 4853 0012 002B     		cmp	r3, #0
 4854 0014 00F09480 		beq	.L393
 4855 0018 4C4B     		ldr	r3, .L400
 4856 001a 1B68     		ldr	r3, [r3]
 4857 001c BA69     		ldr	r2, [r7, #24]
 4858 001e 9A42     		cmp	r2, r3
 4859 0020 0DD0     		beq	.L394
 4860              		.syntax unified
 4861              	@ 214 "Middlewares/stm32f746_lwip_withos_porting/FreeRTOS/portable/GCC/ARM_CM7/r0p1/portmacro.h" 1
 4862 0022 4FF05003 		   mov r3, #80                                              
 4863 0026 72B6     	   cpsid i                                                 
 4864 0028 83F31188 	   msr basepri, r3                                         
 4865 002c BFF36F8F 	   isb                                                     
 4866 0030 BFF34F8F 	   dsb                                                     
 4867 0034 62B6     	   cpsie i                                                 
 4868              	
 4869              	@ 0 "" 2
 4870              		.thumb
 4871              		.syntax unified
 4872 0036 3B61     		str	r3, [r7, #16]
 4873 0038 00BF     		nop
 4874              	.L395:
 4875 003a 00BF     		nop
 4876 003c FDE7     		b	.L395
 4877              	.L394:
 4878 003e BB69     		ldr	r3, [r7, #24]
 4879 0040 9B6C     		ldr	r3, [r3, #72]
 4880 0042 002B     		cmp	r3, #0
 4881 0044 0DD1     		bne	.L396
 4882              		.syntax unified
 4883              	@ 214 "Middlewares/stm32f746_lwip_withos_porting/FreeRTOS/portable/GCC/ARM_CM7/r0p1/portmacro.h" 1
 4884 0046 4FF05003 		   mov r3, #80                                              
 4885 004a 72B6     	   cpsid i                                                 
 4886 004c 83F31188 	   msr basepri, r3                                         
 4887 0050 BFF36F8F 	   isb                                                     
 4888 0054 BFF34F8F 	   dsb                                                     
 4889 0058 62B6     	   cpsie i                                                 
 4890              	
 4891              	@ 0 "" 2
 4892              		.thumb
 4893              		.syntax unified
 4894 005a FB60     		str	r3, [r7, #12]
 4895 005c 00BF     		nop
 4896              	.L397:
 4897 005e 00BF     		nop
 4898 0060 FDE7     		b	.L397
 4899              	.L396:
 4900 0062 BB69     		ldr	r3, [r7, #24]
 4901 0064 9B6C     		ldr	r3, [r3, #72]
 4902 0066 5A1E     		subs	r2, r3, #1
 4903 0068 BB69     		ldr	r3, [r7, #24]
 4904 006a 9A64     		str	r2, [r3, #72]
ARM GAS  C:\msys64\tmp\cc2KM9Cz.s 			page 85


 4905 006c BB69     		ldr	r3, [r7, #24]
 4906 006e DA6A     		ldr	r2, [r3, #44]
 4907 0070 BB69     		ldr	r3, [r7, #24]
 4908 0072 5B6C     		ldr	r3, [r3, #68]
 4909 0074 9A42     		cmp	r2, r3
 4910 0076 63D0     		beq	.L393
 4911 0078 BB69     		ldr	r3, [r7, #24]
 4912 007a 9B6C     		ldr	r3, [r3, #72]
 4913 007c 002B     		cmp	r3, #0
 4914 007e 5FD1     		bne	.L393
 4915 0080 BB69     		ldr	r3, [r7, #24]
 4916 0082 0433     		adds	r3, r3, #4
 4917 0084 1846     		mov	r0, r3
 4918 0086 FFF7FEFF 		bl	uxListRemove
 4919 008a 0346     		mov	r3, r0
 4920 008c 002B     		cmp	r3, #0
 4921 008e 0AD1     		bne	.L398
 4922 0090 BB69     		ldr	r3, [r7, #24]
 4923 0092 DB6A     		ldr	r3, [r3, #44]
 4924 0094 0122     		movs	r2, #1
 4925 0096 02FA03F3 		lsl	r3, r2, r3
 4926 009a DA43     		mvns	r2, r3
 4927 009c 2C4B     		ldr	r3, .L400+4
 4928 009e 1B68     		ldr	r3, [r3]
 4929 00a0 1340     		ands	r3, r3, r2
 4930 00a2 2B4A     		ldr	r2, .L400+4
 4931 00a4 1360     		str	r3, [r2]
 4932              	.L398:
 4933 00a6 BB69     		ldr	r3, [r7, #24]
 4934 00a8 5A6C     		ldr	r2, [r3, #68]
 4935 00aa BB69     		ldr	r3, [r7, #24]
 4936 00ac DA62     		str	r2, [r3, #44]
 4937 00ae BB69     		ldr	r3, [r7, #24]
 4938 00b0 DB6A     		ldr	r3, [r3, #44]
 4939 00b2 C3F10702 		rsb	r2, r3, #7
 4940 00b6 BB69     		ldr	r3, [r7, #24]
 4941 00b8 9A61     		str	r2, [r3, #24]
 4942 00ba BB69     		ldr	r3, [r7, #24]
 4943 00bc DB6A     		ldr	r3, [r3, #44]
 4944 00be 0122     		movs	r2, #1
 4945 00c0 9A40     		lsls	r2, r2, r3
 4946 00c2 234B     		ldr	r3, .L400+4
 4947 00c4 1B68     		ldr	r3, [r3]
 4948 00c6 1343     		orrs	r3, r3, r2
 4949 00c8 214A     		ldr	r2, .L400+4
 4950 00ca 1360     		str	r3, [r2]
 4951 00cc BB69     		ldr	r3, [r7, #24]
 4952 00ce DA6A     		ldr	r2, [r3, #44]
 4953 00d0 2049     		ldr	r1, .L400+8
 4954 00d2 1346     		mov	r3, r2
 4955 00d4 9B00     		lsls	r3, r3, #2
 4956 00d6 1344     		add	r3, r3, r2
 4957 00d8 9B00     		lsls	r3, r3, #2
 4958 00da 0B44     		add	r3, r3, r1
 4959 00dc 0433     		adds	r3, r3, #4
 4960 00de 1B68     		ldr	r3, [r3]
 4961 00e0 7B61     		str	r3, [r7, #20]
ARM GAS  C:\msys64\tmp\cc2KM9Cz.s 			page 86


 4962 00e2 BB69     		ldr	r3, [r7, #24]
 4963 00e4 7A69     		ldr	r2, [r7, #20]
 4964 00e6 9A60     		str	r2, [r3, #8]
 4965 00e8 7B69     		ldr	r3, [r7, #20]
 4966 00ea 9A68     		ldr	r2, [r3, #8]
 4967 00ec BB69     		ldr	r3, [r7, #24]
 4968 00ee DA60     		str	r2, [r3, #12]
 4969 00f0 7B69     		ldr	r3, [r7, #20]
 4970 00f2 9B68     		ldr	r3, [r3, #8]
 4971 00f4 BA69     		ldr	r2, [r7, #24]
 4972 00f6 0432     		adds	r2, r2, #4
 4973 00f8 5A60     		str	r2, [r3, #4]
 4974 00fa BB69     		ldr	r3, [r7, #24]
 4975 00fc 1A1D     		adds	r2, r3, #4
 4976 00fe 7B69     		ldr	r3, [r7, #20]
 4977 0100 9A60     		str	r2, [r3, #8]
 4978 0102 BB69     		ldr	r3, [r7, #24]
 4979 0104 DA6A     		ldr	r2, [r3, #44]
 4980 0106 1346     		mov	r3, r2
 4981 0108 9B00     		lsls	r3, r3, #2
 4982 010a 1344     		add	r3, r3, r2
 4983 010c 9B00     		lsls	r3, r3, #2
 4984 010e 114A     		ldr	r2, .L400+8
 4985 0110 1A44     		add	r2, r2, r3
 4986 0112 BB69     		ldr	r3, [r7, #24]
 4987 0114 5A61     		str	r2, [r3, #20]
 4988 0116 BB69     		ldr	r3, [r7, #24]
 4989 0118 DA6A     		ldr	r2, [r3, #44]
 4990 011a 0E49     		ldr	r1, .L400+8
 4991 011c 1346     		mov	r3, r2
 4992 011e 9B00     		lsls	r3, r3, #2
 4993 0120 1344     		add	r3, r3, r2
 4994 0122 9B00     		lsls	r3, r3, #2
 4995 0124 0B44     		add	r3, r3, r1
 4996 0126 1B68     		ldr	r3, [r3]
 4997 0128 BA69     		ldr	r2, [r7, #24]
 4998 012a D26A     		ldr	r2, [r2, #44]
 4999 012c 591C     		adds	r1, r3, #1
 5000 012e 0948     		ldr	r0, .L400+8
 5001 0130 1346     		mov	r3, r2
 5002 0132 9B00     		lsls	r3, r3, #2
 5003 0134 1344     		add	r3, r3, r2
 5004 0136 9B00     		lsls	r3, r3, #2
 5005 0138 0344     		add	r3, r3, r0
 5006 013a 1960     		str	r1, [r3]
 5007 013c 0123     		movs	r3, #1
 5008 013e FB61     		str	r3, [r7, #28]
 5009              	.L393:
 5010 0140 FB69     		ldr	r3, [r7, #28]
 5011 0142 1846     		mov	r0, r3
 5012 0144 2037     		adds	r7, r7, #32
 5013 0146 BD46     		mov	sp, r7
 5014              		@ sp needed
 5015 0148 80BD     		pop	{r7, pc}
 5016              	.L401:
 5017 014a 00BF     		.align	2
 5018              	.L400:
ARM GAS  C:\msys64\tmp\cc2KM9Cz.s 			page 87


 5019 014c 00000000 		.word	pxCurrentTCB
 5020 0150 00000000 		.word	uxTopReadyPriority
 5021 0154 00000000 		.word	pxReadyTasksLists
 5023              		.section	.text.vTaskPriorityDisinheritAfterTimeout,"ax",%progbits
 5024              		.align	1
 5025              		.global	vTaskPriorityDisinheritAfterTimeout
 5026              		.syntax unified
 5027              		.thumb
 5028              		.thumb_func
 5030              	vTaskPriorityDisinheritAfterTimeout:
 5031              		@ args = 0, pretend = 0, frame = 40
 5032              		@ frame_needed = 1, uses_anonymous_args = 0
 5033 0000 80B5     		push	{r7, lr}
 5034 0002 8AB0     		sub	sp, sp, #40
 5035 0004 00AF     		add	r7, sp, #0
 5036 0006 7860     		str	r0, [r7, #4]
 5037 0008 3960     		str	r1, [r7]
 5038 000a 7B68     		ldr	r3, [r7, #4]
 5039 000c 3B62     		str	r3, [r7, #32]
 5040 000e 0123     		movs	r3, #1
 5041 0010 FB61     		str	r3, [r7, #28]
 5042 0012 7B68     		ldr	r3, [r7, #4]
 5043 0014 002B     		cmp	r3, #0
 5044 0016 00F0AA80 		beq	.L412
 5045 001a 3B6A     		ldr	r3, [r7, #32]
 5046 001c 9B6C     		ldr	r3, [r3, #72]
 5047 001e 002B     		cmp	r3, #0
 5048 0020 0DD1     		bne	.L404
 5049              		.syntax unified
 5050              	@ 214 "Middlewares/stm32f746_lwip_withos_porting/FreeRTOS/portable/GCC/ARM_CM7/r0p1/portmacro.h" 1
 5051 0022 4FF05003 		   mov r3, #80                                              
 5052 0026 72B6     	   cpsid i                                                 
 5053 0028 83F31188 	   msr basepri, r3                                         
 5054 002c BFF36F8F 	   isb                                                     
 5055 0030 BFF34F8F 	   dsb                                                     
 5056 0034 62B6     	   cpsie i                                                 
 5057              	
 5058              	@ 0 "" 2
 5059              		.thumb
 5060              		.syntax unified
 5061 0036 3B61     		str	r3, [r7, #16]
 5062 0038 00BF     		nop
 5063              	.L405:
 5064 003a 00BF     		nop
 5065 003c FDE7     		b	.L405
 5066              	.L404:
 5067 003e 3B6A     		ldr	r3, [r7, #32]
 5068 0040 5B6C     		ldr	r3, [r3, #68]
 5069 0042 3A68     		ldr	r2, [r7]
 5070 0044 9A42     		cmp	r2, r3
 5071 0046 02D9     		bls	.L406
 5072 0048 3B68     		ldr	r3, [r7]
 5073 004a 7B62     		str	r3, [r7, #36]
 5074 004c 02E0     		b	.L407
 5075              	.L406:
 5076 004e 3B6A     		ldr	r3, [r7, #32]
 5077 0050 5B6C     		ldr	r3, [r3, #68]
ARM GAS  C:\msys64\tmp\cc2KM9Cz.s 			page 88


 5078 0052 7B62     		str	r3, [r7, #36]
 5079              	.L407:
 5080 0054 3B6A     		ldr	r3, [r7, #32]
 5081 0056 DB6A     		ldr	r3, [r3, #44]
 5082 0058 7A6A     		ldr	r2, [r7, #36]
 5083 005a 9A42     		cmp	r2, r3
 5084 005c 00F08780 		beq	.L412
 5085 0060 3B6A     		ldr	r3, [r7, #32]
 5086 0062 9B6C     		ldr	r3, [r3, #72]
 5087 0064 FA69     		ldr	r2, [r7, #28]
 5088 0066 9A42     		cmp	r2, r3
 5089 0068 40F08180 		bne	.L412
 5090 006c 424B     		ldr	r3, .L413
 5091 006e 1B68     		ldr	r3, [r3]
 5092 0070 3A6A     		ldr	r2, [r7, #32]
 5093 0072 9A42     		cmp	r2, r3
 5094 0074 0DD1     		bne	.L408
 5095              		.syntax unified
 5096              	@ 214 "Middlewares/stm32f746_lwip_withos_porting/FreeRTOS/portable/GCC/ARM_CM7/r0p1/portmacro.h" 1
 5097 0076 4FF05003 		   mov r3, #80                                              
 5098 007a 72B6     	   cpsid i                                                 
 5099 007c 83F31188 	   msr basepri, r3                                         
 5100 0080 BFF36F8F 	   isb                                                     
 5101 0084 BFF34F8F 	   dsb                                                     
 5102 0088 62B6     	   cpsie i                                                 
 5103              	
 5104              	@ 0 "" 2
 5105              		.thumb
 5106              		.syntax unified
 5107 008a FB60     		str	r3, [r7, #12]
 5108 008c 00BF     		nop
 5109              	.L409:
 5110 008e 00BF     		nop
 5111 0090 FDE7     		b	.L409
 5112              	.L408:
 5113 0092 3B6A     		ldr	r3, [r7, #32]
 5114 0094 DB6A     		ldr	r3, [r3, #44]
 5115 0096 BB61     		str	r3, [r7, #24]
 5116 0098 3B6A     		ldr	r3, [r7, #32]
 5117 009a 7A6A     		ldr	r2, [r7, #36]
 5118 009c DA62     		str	r2, [r3, #44]
 5119 009e 3B6A     		ldr	r3, [r7, #32]
 5120 00a0 9B69     		ldr	r3, [r3, #24]
 5121 00a2 002B     		cmp	r3, #0
 5122 00a4 04DB     		blt	.L410
 5123 00a6 7B6A     		ldr	r3, [r7, #36]
 5124 00a8 C3F10702 		rsb	r2, r3, #7
 5125 00ac 3B6A     		ldr	r3, [r7, #32]
 5126 00ae 9A61     		str	r2, [r3, #24]
 5127              	.L410:
 5128 00b0 3B6A     		ldr	r3, [r7, #32]
 5129 00b2 5969     		ldr	r1, [r3, #20]
 5130 00b4 BA69     		ldr	r2, [r7, #24]
 5131 00b6 1346     		mov	r3, r2
 5132 00b8 9B00     		lsls	r3, r3, #2
 5133 00ba 1344     		add	r3, r3, r2
 5134 00bc 9B00     		lsls	r3, r3, #2
ARM GAS  C:\msys64\tmp\cc2KM9Cz.s 			page 89


 5135 00be 2F4A     		ldr	r2, .L413+4
 5136 00c0 1344     		add	r3, r3, r2
 5137 00c2 9942     		cmp	r1, r3
 5138 00c4 53D1     		bne	.L412
 5139 00c6 3B6A     		ldr	r3, [r7, #32]
 5140 00c8 0433     		adds	r3, r3, #4
 5141 00ca 1846     		mov	r0, r3
 5142 00cc FFF7FEFF 		bl	uxListRemove
 5143 00d0 0346     		mov	r3, r0
 5144 00d2 002B     		cmp	r3, #0
 5145 00d4 0AD1     		bne	.L411
 5146 00d6 3B6A     		ldr	r3, [r7, #32]
 5147 00d8 DB6A     		ldr	r3, [r3, #44]
 5148 00da 0122     		movs	r2, #1
 5149 00dc 02FA03F3 		lsl	r3, r2, r3
 5150 00e0 DA43     		mvns	r2, r3
 5151 00e2 274B     		ldr	r3, .L413+8
 5152 00e4 1B68     		ldr	r3, [r3]
 5153 00e6 1340     		ands	r3, r3, r2
 5154 00e8 254A     		ldr	r2, .L413+8
 5155 00ea 1360     		str	r3, [r2]
 5156              	.L411:
 5157 00ec 3B6A     		ldr	r3, [r7, #32]
 5158 00ee DB6A     		ldr	r3, [r3, #44]
 5159 00f0 0122     		movs	r2, #1
 5160 00f2 9A40     		lsls	r2, r2, r3
 5161 00f4 224B     		ldr	r3, .L413+8
 5162 00f6 1B68     		ldr	r3, [r3]
 5163 00f8 1343     		orrs	r3, r3, r2
 5164 00fa 214A     		ldr	r2, .L413+8
 5165 00fc 1360     		str	r3, [r2]
 5166 00fe 3B6A     		ldr	r3, [r7, #32]
 5167 0100 DA6A     		ldr	r2, [r3, #44]
 5168 0102 1E49     		ldr	r1, .L413+4
 5169 0104 1346     		mov	r3, r2
 5170 0106 9B00     		lsls	r3, r3, #2
 5171 0108 1344     		add	r3, r3, r2
 5172 010a 9B00     		lsls	r3, r3, #2
 5173 010c 0B44     		add	r3, r3, r1
 5174 010e 0433     		adds	r3, r3, #4
 5175 0110 1B68     		ldr	r3, [r3]
 5176 0112 7B61     		str	r3, [r7, #20]
 5177 0114 3B6A     		ldr	r3, [r7, #32]
 5178 0116 7A69     		ldr	r2, [r7, #20]
 5179 0118 9A60     		str	r2, [r3, #8]
 5180 011a 7B69     		ldr	r3, [r7, #20]
 5181 011c 9A68     		ldr	r2, [r3, #8]
 5182 011e 3B6A     		ldr	r3, [r7, #32]
 5183 0120 DA60     		str	r2, [r3, #12]
 5184 0122 7B69     		ldr	r3, [r7, #20]
 5185 0124 9B68     		ldr	r3, [r3, #8]
 5186 0126 3A6A     		ldr	r2, [r7, #32]
 5187 0128 0432     		adds	r2, r2, #4
 5188 012a 5A60     		str	r2, [r3, #4]
 5189 012c 3B6A     		ldr	r3, [r7, #32]
 5190 012e 1A1D     		adds	r2, r3, #4
 5191 0130 7B69     		ldr	r3, [r7, #20]
ARM GAS  C:\msys64\tmp\cc2KM9Cz.s 			page 90


 5192 0132 9A60     		str	r2, [r3, #8]
 5193 0134 3B6A     		ldr	r3, [r7, #32]
 5194 0136 DA6A     		ldr	r2, [r3, #44]
 5195 0138 1346     		mov	r3, r2
 5196 013a 9B00     		lsls	r3, r3, #2
 5197 013c 1344     		add	r3, r3, r2
 5198 013e 9B00     		lsls	r3, r3, #2
 5199 0140 0E4A     		ldr	r2, .L413+4
 5200 0142 1A44     		add	r2, r2, r3
 5201 0144 3B6A     		ldr	r3, [r7, #32]
 5202 0146 5A61     		str	r2, [r3, #20]
 5203 0148 3B6A     		ldr	r3, [r7, #32]
 5204 014a DA6A     		ldr	r2, [r3, #44]
 5205 014c 0B49     		ldr	r1, .L413+4
 5206 014e 1346     		mov	r3, r2
 5207 0150 9B00     		lsls	r3, r3, #2
 5208 0152 1344     		add	r3, r3, r2
 5209 0154 9B00     		lsls	r3, r3, #2
 5210 0156 0B44     		add	r3, r3, r1
 5211 0158 1B68     		ldr	r3, [r3]
 5212 015a 3A6A     		ldr	r2, [r7, #32]
 5213 015c D26A     		ldr	r2, [r2, #44]
 5214 015e 591C     		adds	r1, r3, #1
 5215 0160 0648     		ldr	r0, .L413+4
 5216 0162 1346     		mov	r3, r2
 5217 0164 9B00     		lsls	r3, r3, #2
 5218 0166 1344     		add	r3, r3, r2
 5219 0168 9B00     		lsls	r3, r3, #2
 5220 016a 0344     		add	r3, r3, r0
 5221 016c 1960     		str	r1, [r3]
 5222              	.L412:
 5223 016e 00BF     		nop
 5224 0170 2837     		adds	r7, r7, #40
 5225 0172 BD46     		mov	sp, r7
 5226              		@ sp needed
 5227 0174 80BD     		pop	{r7, pc}
 5228              	.L414:
 5229 0176 00BF     		.align	2
 5230              	.L413:
 5231 0178 00000000 		.word	pxCurrentTCB
 5232 017c 00000000 		.word	pxReadyTasksLists
 5233 0180 00000000 		.word	uxTopReadyPriority
 5235              		.section	.text.uxTaskResetEventItemValue,"ax",%progbits
 5236              		.align	1
 5237              		.global	uxTaskResetEventItemValue
 5238              		.syntax unified
 5239              		.thumb
 5240              		.thumb_func
 5242              	uxTaskResetEventItemValue:
 5243              		@ args = 0, pretend = 0, frame = 8
 5244              		@ frame_needed = 1, uses_anonymous_args = 0
 5245              		@ link register save eliminated.
 5246 0000 80B4     		push	{r7}
 5247 0002 83B0     		sub	sp, sp, #12
 5248 0004 00AF     		add	r7, sp, #0
 5249 0006 094B     		ldr	r3, .L417
 5250 0008 1B68     		ldr	r3, [r3]
ARM GAS  C:\msys64\tmp\cc2KM9Cz.s 			page 91


 5251 000a 9B69     		ldr	r3, [r3, #24]
 5252 000c 7B60     		str	r3, [r7, #4]
 5253 000e 074B     		ldr	r3, .L417
 5254 0010 1B68     		ldr	r3, [r3]
 5255 0012 DA6A     		ldr	r2, [r3, #44]
 5256 0014 054B     		ldr	r3, .L417
 5257 0016 1B68     		ldr	r3, [r3]
 5258 0018 C2F10702 		rsb	r2, r2, #7
 5259 001c 9A61     		str	r2, [r3, #24]
 5260 001e 7B68     		ldr	r3, [r7, #4]
 5261 0020 1846     		mov	r0, r3
 5262 0022 0C37     		adds	r7, r7, #12
 5263 0024 BD46     		mov	sp, r7
 5264              		@ sp needed
 5265 0026 5DF8047B 		ldr	r7, [sp], #4
 5266 002a 7047     		bx	lr
 5267              	.L418:
 5268              		.align	2
 5269              	.L417:
 5270 002c 00000000 		.word	pxCurrentTCB
 5272              		.section	.text.pvTaskIncrementMutexHeldCount,"ax",%progbits
 5273              		.align	1
 5274              		.global	pvTaskIncrementMutexHeldCount
 5275              		.syntax unified
 5276              		.thumb
 5277              		.thumb_func
 5279              	pvTaskIncrementMutexHeldCount:
 5280              		@ args = 0, pretend = 0, frame = 8
 5281              		@ frame_needed = 1, uses_anonymous_args = 0
 5282              		@ link register save eliminated.
 5283 0000 80B4     		push	{r7}
 5284 0002 83B0     		sub	sp, sp, #12
 5285 0004 00AF     		add	r7, sp, #0
 5286 0006 094B     		ldr	r3, .L422
 5287 0008 1B68     		ldr	r3, [r3]
 5288 000a 7B60     		str	r3, [r7, #4]
 5289 000c 7B68     		ldr	r3, [r7, #4]
 5290 000e 002B     		cmp	r3, #0
 5291 0010 04D0     		beq	.L420
 5292 0012 7B68     		ldr	r3, [r7, #4]
 5293 0014 9B6C     		ldr	r3, [r3, #72]
 5294 0016 5A1C     		adds	r2, r3, #1
 5295 0018 7B68     		ldr	r3, [r7, #4]
 5296 001a 9A64     		str	r2, [r3, #72]
 5297              	.L420:
 5298 001c 7B68     		ldr	r3, [r7, #4]
 5299 001e 1846     		mov	r0, r3
 5300 0020 0C37     		adds	r7, r7, #12
 5301 0022 BD46     		mov	sp, r7
 5302              		@ sp needed
 5303 0024 5DF8047B 		ldr	r7, [sp], #4
 5304 0028 7047     		bx	lr
 5305              	.L423:
 5306 002a 00BF     		.align	2
 5307              	.L422:
 5308 002c 00000000 		.word	pxCurrentTCB
 5310              		.section	.text.ulTaskGenericNotifyTake,"ax",%progbits
ARM GAS  C:\msys64\tmp\cc2KM9Cz.s 			page 92


 5311              		.align	1
 5312              		.global	ulTaskGenericNotifyTake
 5313              		.syntax unified
 5314              		.thumb
 5315              		.thumb_func
 5317              	ulTaskGenericNotifyTake:
 5318              		@ args = 0, pretend = 0, frame = 32
 5319              		@ frame_needed = 1, uses_anonymous_args = 0
 5320 0000 80B5     		push	{r7, lr}
 5321 0002 88B0     		sub	sp, sp, #32
 5322 0004 00AF     		add	r7, sp, #0
 5323 0006 F860     		str	r0, [r7, #12]
 5324 0008 B960     		str	r1, [r7, #8]
 5325 000a 7A60     		str	r2, [r7, #4]
 5326 000c 0023     		movs	r3, #0
 5327 000e FB61     		str	r3, [r7, #28]
 5328 0010 FB68     		ldr	r3, [r7, #12]
 5329 0012 002B     		cmp	r3, #0
 5330 0014 0DD0     		beq	.L425
 5331              		.syntax unified
 5332              	@ 214 "Middlewares/stm32f746_lwip_withos_porting/FreeRTOS/portable/GCC/ARM_CM7/r0p1/portmacro.h" 1
 5333 0016 4FF05003 		   mov r3, #80                                              
 5334 001a 72B6     	   cpsid i                                                 
 5335 001c 83F31188 	   msr basepri, r3                                         
 5336 0020 BFF36F8F 	   isb                                                     
 5337 0024 BFF34F8F 	   dsb                                                     
 5338 0028 62B6     	   cpsie i                                                 
 5339              	
 5340              	@ 0 "" 2
 5341              		.thumb
 5342              		.syntax unified
 5343 002a 3B61     		str	r3, [r7, #16]
 5344 002c 00BF     		nop
 5345              	.L426:
 5346 002e 00BF     		nop
 5347 0030 FDE7     		b	.L426
 5348              	.L425:
 5349 0032 334B     		ldr	r3, .L433
 5350 0034 1B68     		ldr	r3, [r3]
 5351 0036 FA68     		ldr	r2, [r7, #12]
 5352 0038 1432     		adds	r2, r2, #20
 5353 003a 53F82230 		ldr	r3, [r3, r2, lsl #2]
 5354 003e 002B     		cmp	r3, #0
 5355 0040 31D1     		bne	.L427
 5356 0042 7B68     		ldr	r3, [r7, #4]
 5357 0044 002B     		cmp	r3, #0
 5358 0046 2ED0     		beq	.L427
 5359 0048 FFF7FEFF 		bl	vTaskSuspendAll
 5360 004c FFF7FEFF 		bl	vPortEnterCritical
 5361 0050 2B4B     		ldr	r3, .L433
 5362 0052 1B68     		ldr	r3, [r3]
 5363 0054 FA68     		ldr	r2, [r7, #12]
 5364 0056 1432     		adds	r2, r2, #20
 5365 0058 53F82230 		ldr	r3, [r3, r2, lsl #2]
 5366 005c 002B     		cmp	r3, #0
 5367 005e 08D1     		bne	.L428
 5368 0060 274B     		ldr	r3, .L433
ARM GAS  C:\msys64\tmp\cc2KM9Cz.s 			page 93


 5369 0062 1A68     		ldr	r2, [r3]
 5370 0064 FB68     		ldr	r3, [r7, #12]
 5371 0066 1344     		add	r3, r3, r2
 5372 0068 5433     		adds	r3, r3, #84
 5373 006a 0122     		movs	r2, #1
 5374 006c 1A70     		strb	r2, [r3]
 5375 006e 0123     		movs	r3, #1
 5376 0070 FB61     		str	r3, [r7, #28]
 5377              	.L428:
 5378 0072 FFF7FEFF 		bl	vPortExitCritical
 5379 0076 FB69     		ldr	r3, [r7, #28]
 5380 0078 012B     		cmp	r3, #1
 5381 007a 03D1     		bne	.L429
 5382 007c 0121     		movs	r1, #1
 5383 007e 7868     		ldr	r0, [r7, #4]
 5384 0080 FFF7FEFF 		bl	prvAddCurrentTaskToDelayedList
 5385              	.L429:
 5386 0084 FFF7FEFF 		bl	xTaskResumeAll
 5387 0088 B861     		str	r0, [r7, #24]
 5388 008a FB69     		ldr	r3, [r7, #28]
 5389 008c 012B     		cmp	r3, #1
 5390 008e 0AD1     		bne	.L427
 5391 0090 BB69     		ldr	r3, [r7, #24]
 5392 0092 002B     		cmp	r3, #0
 5393 0094 07D1     		bne	.L427
 5394 0096 1B4B     		ldr	r3, .L433+4
 5395 0098 4FF08052 		mov	r2, #268435456
 5396 009c 1A60     		str	r2, [r3]
 5397              		.syntax unified
 5398              	@ 7750 "Middlewares/stm32f746_lwip_withos_porting/FreeRTOS/Core/Src/tasks.c" 1
 5399 009e BFF34F8F 		dsb
 5400              	@ 0 "" 2
 5401              	@ 7750 "Middlewares/stm32f746_lwip_withos_porting/FreeRTOS/Core/Src/tasks.c" 1
 5402 00a2 BFF36F8F 		isb
 5403              	@ 0 "" 2
 5404              		.thumb
 5405              		.syntax unified
 5406              	.L427:
 5407 00a6 FFF7FEFF 		bl	vPortEnterCritical
 5408 00aa 154B     		ldr	r3, .L433
 5409 00ac 1B68     		ldr	r3, [r3]
 5410 00ae FA68     		ldr	r2, [r7, #12]
 5411 00b0 1432     		adds	r2, r2, #20
 5412 00b2 53F82230 		ldr	r3, [r3, r2, lsl #2]
 5413 00b6 7B61     		str	r3, [r7, #20]
 5414 00b8 7B69     		ldr	r3, [r7, #20]
 5415 00ba 002B     		cmp	r3, #0
 5416 00bc 12D0     		beq	.L430
 5417 00be BB68     		ldr	r3, [r7, #8]
 5418 00c0 002B     		cmp	r3, #0
 5419 00c2 07D0     		beq	.L431
 5420 00c4 0E4B     		ldr	r3, .L433
 5421 00c6 1B68     		ldr	r3, [r3]
 5422 00c8 FA68     		ldr	r2, [r7, #12]
 5423 00ca 1432     		adds	r2, r2, #20
 5424 00cc 0021     		movs	r1, #0
 5425 00ce 43F82210 		str	r1, [r3, r2, lsl #2]
ARM GAS  C:\msys64\tmp\cc2KM9Cz.s 			page 94


 5426 00d2 07E0     		b	.L430
 5427              	.L431:
 5428 00d4 0A4B     		ldr	r3, .L433
 5429 00d6 1B68     		ldr	r3, [r3]
 5430 00d8 7A69     		ldr	r2, [r7, #20]
 5431 00da 511E     		subs	r1, r2, #1
 5432 00dc FA68     		ldr	r2, [r7, #12]
 5433 00de 1432     		adds	r2, r2, #20
 5434 00e0 43F82210 		str	r1, [r3, r2, lsl #2]
 5435              	.L430:
 5436 00e4 064B     		ldr	r3, .L433
 5437 00e6 1A68     		ldr	r2, [r3]
 5438 00e8 FB68     		ldr	r3, [r7, #12]
 5439 00ea 1344     		add	r3, r3, r2
 5440 00ec 5433     		adds	r3, r3, #84
 5441 00ee 0022     		movs	r2, #0
 5442 00f0 1A70     		strb	r2, [r3]
 5443 00f2 FFF7FEFF 		bl	vPortExitCritical
 5444 00f6 7B69     		ldr	r3, [r7, #20]
 5445 00f8 1846     		mov	r0, r3
 5446 00fa 2037     		adds	r7, r7, #32
 5447 00fc BD46     		mov	sp, r7
 5448              		@ sp needed
 5449 00fe 80BD     		pop	{r7, pc}
 5450              	.L434:
 5451              		.align	2
 5452              	.L433:
 5453 0100 00000000 		.word	pxCurrentTCB
 5454 0104 04ED00E0 		.word	-536810236
 5456              		.section	.text.xTaskGenericNotifyWait,"ax",%progbits
 5457              		.align	1
 5458              		.global	xTaskGenericNotifyWait
 5459              		.syntax unified
 5460              		.thumb
 5461              		.thumb_func
 5463              	xTaskGenericNotifyWait:
 5464              		@ args = 4, pretend = 0, frame = 32
 5465              		@ frame_needed = 1, uses_anonymous_args = 0
 5466 0000 80B5     		push	{r7, lr}
 5467 0002 88B0     		sub	sp, sp, #32
 5468 0004 00AF     		add	r7, sp, #0
 5469 0006 F860     		str	r0, [r7, #12]
 5470 0008 B960     		str	r1, [r7, #8]
 5471 000a 7A60     		str	r2, [r7, #4]
 5472 000c 3B60     		str	r3, [r7]
 5473 000e 0023     		movs	r3, #0
 5474 0010 BB61     		str	r3, [r7, #24]
 5475 0012 FB68     		ldr	r3, [r7, #12]
 5476 0014 002B     		cmp	r3, #0
 5477 0016 0DD0     		beq	.L436
 5478              		.syntax unified
 5479              	@ 214 "Middlewares/stm32f746_lwip_withos_porting/FreeRTOS/portable/GCC/ARM_CM7/r0p1/portmacro.h" 1
 5480 0018 4FF05003 		   mov r3, #80                                              
 5481 001c 72B6     	   cpsid i                                                 
 5482 001e 83F31188 	   msr basepri, r3                                         
 5483 0022 BFF36F8F 	   isb                                                     
 5484 0026 BFF34F8F 	   dsb                                                     
ARM GAS  C:\msys64\tmp\cc2KM9Cz.s 			page 95


 5485 002a 62B6     	   cpsie i                                                 
 5486              	
 5487              	@ 0 "" 2
 5488              		.thumb
 5489              		.syntax unified
 5490 002c 3B61     		str	r3, [r7, #16]
 5491 002e 00BF     		nop
 5492              	.L437:
 5493 0030 00BF     		nop
 5494 0032 FDE7     		b	.L437
 5495              	.L436:
 5496 0034 3F4B     		ldr	r3, .L445
 5497 0036 1A68     		ldr	r2, [r3]
 5498 0038 FB68     		ldr	r3, [r7, #12]
 5499 003a 1344     		add	r3, r3, r2
 5500 003c 5433     		adds	r3, r3, #84
 5501 003e 1B78     		ldrb	r3, [r3]
 5502 0040 DBB2     		uxtb	r3, r3
 5503 0042 022B     		cmp	r3, #2
 5504 0044 3FD0     		beq	.L438
 5505 0046 BB6A     		ldr	r3, [r7, #40]
 5506 0048 002B     		cmp	r3, #0
 5507 004a 3CD0     		beq	.L438
 5508 004c FFF7FEFF 		bl	vTaskSuspendAll
 5509 0050 FFF7FEFF 		bl	vPortEnterCritical
 5510 0054 374B     		ldr	r3, .L445
 5511 0056 1A68     		ldr	r2, [r3]
 5512 0058 FB68     		ldr	r3, [r7, #12]
 5513 005a 1344     		add	r3, r3, r2
 5514 005c 5433     		adds	r3, r3, #84
 5515 005e 1B78     		ldrb	r3, [r3]
 5516 0060 DBB2     		uxtb	r3, r3
 5517 0062 022B     		cmp	r3, #2
 5518 0064 15D0     		beq	.L439
 5519 0066 334B     		ldr	r3, .L445
 5520 0068 1B68     		ldr	r3, [r3]
 5521 006a FA68     		ldr	r2, [r7, #12]
 5522 006c 1432     		adds	r2, r2, #20
 5523 006e 53F82210 		ldr	r1, [r3, r2, lsl #2]
 5524 0072 BA68     		ldr	r2, [r7, #8]
 5525 0074 D243     		mvns	r2, r2
 5526 0076 1140     		ands	r1, r1, r2
 5527 0078 FA68     		ldr	r2, [r7, #12]
 5528 007a 1432     		adds	r2, r2, #20
 5529 007c 43F82210 		str	r1, [r3, r2, lsl #2]
 5530 0080 2C4B     		ldr	r3, .L445
 5531 0082 1A68     		ldr	r2, [r3]
 5532 0084 FB68     		ldr	r3, [r7, #12]
 5533 0086 1344     		add	r3, r3, r2
 5534 0088 5433     		adds	r3, r3, #84
 5535 008a 0122     		movs	r2, #1
 5536 008c 1A70     		strb	r2, [r3]
 5537 008e 0123     		movs	r3, #1
 5538 0090 BB61     		str	r3, [r7, #24]
 5539              	.L439:
 5540 0092 FFF7FEFF 		bl	vPortExitCritical
 5541 0096 BB69     		ldr	r3, [r7, #24]
ARM GAS  C:\msys64\tmp\cc2KM9Cz.s 			page 96


 5542 0098 012B     		cmp	r3, #1
 5543 009a 03D1     		bne	.L440
 5544 009c 0121     		movs	r1, #1
 5545 009e B86A     		ldr	r0, [r7, #40]
 5546 00a0 FFF7FEFF 		bl	prvAddCurrentTaskToDelayedList
 5547              	.L440:
 5548 00a4 FFF7FEFF 		bl	xTaskResumeAll
 5549 00a8 7861     		str	r0, [r7, #20]
 5550 00aa BB69     		ldr	r3, [r7, #24]
 5551 00ac 012B     		cmp	r3, #1
 5552 00ae 0AD1     		bne	.L438
 5553 00b0 7B69     		ldr	r3, [r7, #20]
 5554 00b2 002B     		cmp	r3, #0
 5555 00b4 07D1     		bne	.L438
 5556 00b6 204B     		ldr	r3, .L445+4
 5557 00b8 4FF08052 		mov	r2, #268435456
 5558 00bc 1A60     		str	r2, [r3]
 5559              		.syntax unified
 5560              	@ 7857 "Middlewares/stm32f746_lwip_withos_porting/FreeRTOS/Core/Src/tasks.c" 1
 5561 00be BFF34F8F 		dsb
 5562              	@ 0 "" 2
 5563              	@ 7857 "Middlewares/stm32f746_lwip_withos_porting/FreeRTOS/Core/Src/tasks.c" 1
 5564 00c2 BFF36F8F 		isb
 5565              	@ 0 "" 2
 5566              		.thumb
 5567              		.syntax unified
 5568              	.L438:
 5569 00c6 FFF7FEFF 		bl	vPortEnterCritical
 5570 00ca 3B68     		ldr	r3, [r7]
 5571 00cc 002B     		cmp	r3, #0
 5572 00ce 07D0     		beq	.L441
 5573 00d0 184B     		ldr	r3, .L445
 5574 00d2 1B68     		ldr	r3, [r3]
 5575 00d4 FA68     		ldr	r2, [r7, #12]
 5576 00d6 1432     		adds	r2, r2, #20
 5577 00d8 53F82220 		ldr	r2, [r3, r2, lsl #2]
 5578 00dc 3B68     		ldr	r3, [r7]
 5579 00de 1A60     		str	r2, [r3]
 5580              	.L441:
 5581 00e0 144B     		ldr	r3, .L445
 5582 00e2 1A68     		ldr	r2, [r3]
 5583 00e4 FB68     		ldr	r3, [r7, #12]
 5584 00e6 1344     		add	r3, r3, r2
 5585 00e8 5433     		adds	r3, r3, #84
 5586 00ea 1B78     		ldrb	r3, [r3]
 5587 00ec DBB2     		uxtb	r3, r3
 5588 00ee 022B     		cmp	r3, #2
 5589 00f0 02D0     		beq	.L442
 5590 00f2 0023     		movs	r3, #0
 5591 00f4 FB61     		str	r3, [r7, #28]
 5592 00f6 0EE0     		b	.L443
 5593              	.L442:
 5594 00f8 0E4B     		ldr	r3, .L445
 5595 00fa 1B68     		ldr	r3, [r3]
 5596 00fc FA68     		ldr	r2, [r7, #12]
 5597 00fe 1432     		adds	r2, r2, #20
 5598 0100 53F82210 		ldr	r1, [r3, r2, lsl #2]
ARM GAS  C:\msys64\tmp\cc2KM9Cz.s 			page 97


 5599 0104 7A68     		ldr	r2, [r7, #4]
 5600 0106 D243     		mvns	r2, r2
 5601 0108 1140     		ands	r1, r1, r2
 5602 010a FA68     		ldr	r2, [r7, #12]
 5603 010c 1432     		adds	r2, r2, #20
 5604 010e 43F82210 		str	r1, [r3, r2, lsl #2]
 5605 0112 0123     		movs	r3, #1
 5606 0114 FB61     		str	r3, [r7, #28]
 5607              	.L443:
 5608 0116 074B     		ldr	r3, .L445
 5609 0118 1A68     		ldr	r2, [r3]
 5610 011a FB68     		ldr	r3, [r7, #12]
 5611 011c 1344     		add	r3, r3, r2
 5612 011e 5433     		adds	r3, r3, #84
 5613 0120 0022     		movs	r2, #0
 5614 0122 1A70     		strb	r2, [r3]
 5615 0124 FFF7FEFF 		bl	vPortExitCritical
 5616 0128 FB69     		ldr	r3, [r7, #28]
 5617 012a 1846     		mov	r0, r3
 5618 012c 2037     		adds	r7, r7, #32
 5619 012e BD46     		mov	sp, r7
 5620              		@ sp needed
 5621 0130 80BD     		pop	{r7, pc}
 5622              	.L446:
 5623 0132 00BF     		.align	2
 5624              	.L445:
 5625 0134 00000000 		.word	pxCurrentTCB
 5626 0138 04ED00E0 		.word	-536810236
 5628              		.section	.text.xTaskGenericNotify,"ax",%progbits
 5629              		.align	1
 5630              		.global	xTaskGenericNotify
 5631              		.syntax unified
 5632              		.thumb
 5633              		.thumb_func
 5635              	xTaskGenericNotify:
 5636              		@ args = 4, pretend = 0, frame = 56
 5637              		@ frame_needed = 1, uses_anonymous_args = 0
 5638 0000 80B5     		push	{r7, lr}
 5639 0002 8EB0     		sub	sp, sp, #56
 5640 0004 00AF     		add	r7, sp, #0
 5641 0006 F860     		str	r0, [r7, #12]
 5642 0008 B960     		str	r1, [r7, #8]
 5643 000a 7A60     		str	r2, [r7, #4]
 5644 000c FB70     		strb	r3, [r7, #3]
 5645 000e 0123     		movs	r3, #1
 5646 0010 7B63     		str	r3, [r7, #52]
 5647 0012 BB68     		ldr	r3, [r7, #8]
 5648 0014 002B     		cmp	r3, #0
 5649 0016 0DD0     		beq	.L448
 5650              		.syntax unified
 5651              	@ 214 "Middlewares/stm32f746_lwip_withos_porting/FreeRTOS/portable/GCC/ARM_CM7/r0p1/portmacro.h" 1
 5652 0018 4FF05003 		   mov r3, #80                                              
 5653 001c 72B6     	   cpsid i                                                 
 5654 001e 83F31188 	   msr basepri, r3                                         
 5655 0022 BFF36F8F 	   isb                                                     
 5656 0026 BFF34F8F 	   dsb                                                     
 5657 002a 62B6     	   cpsie i                                                 
ARM GAS  C:\msys64\tmp\cc2KM9Cz.s 			page 98


 5658              	
 5659              	@ 0 "" 2
 5660              		.thumb
 5661              		.syntax unified
 5662 002c 3B62     		str	r3, [r7, #32]
 5663 002e 00BF     		nop
 5664              	.L449:
 5665 0030 00BF     		nop
 5666 0032 FDE7     		b	.L449
 5667              	.L448:
 5668 0034 FB68     		ldr	r3, [r7, #12]
 5669 0036 002B     		cmp	r3, #0
 5670 0038 0DD1     		bne	.L450
 5671              		.syntax unified
 5672              	@ 214 "Middlewares/stm32f746_lwip_withos_porting/FreeRTOS/portable/GCC/ARM_CM7/r0p1/portmacro.h" 1
 5673 003a 4FF05003 		   mov r3, #80                                              
 5674 003e 72B6     	   cpsid i                                                 
 5675 0040 83F31188 	   msr basepri, r3                                         
 5676 0044 BFF36F8F 	   isb                                                     
 5677 0048 BFF34F8F 	   dsb                                                     
 5678 004c 62B6     	   cpsie i                                                 
 5679              	
 5680              	@ 0 "" 2
 5681              		.thumb
 5682              		.syntax unified
 5683 004e FB61     		str	r3, [r7, #28]
 5684 0050 00BF     		nop
 5685              	.L451:
 5686 0052 00BF     		nop
 5687 0054 FDE7     		b	.L451
 5688              	.L450:
 5689 0056 FB68     		ldr	r3, [r7, #12]
 5690 0058 3B63     		str	r3, [r7, #48]
 5691 005a FFF7FEFF 		bl	vPortEnterCritical
 5692 005e 3B6C     		ldr	r3, [r7, #64]
 5693 0060 002B     		cmp	r3, #0
 5694 0062 06D0     		beq	.L452
 5695 0064 3B6B     		ldr	r3, [r7, #48]
 5696 0066 BA68     		ldr	r2, [r7, #8]
 5697 0068 1432     		adds	r2, r2, #20
 5698 006a 53F82220 		ldr	r2, [r3, r2, lsl #2]
 5699 006e 3B6C     		ldr	r3, [r7, #64]
 5700 0070 1A60     		str	r2, [r3]
 5701              	.L452:
 5702 0072 3A6B     		ldr	r2, [r7, #48]
 5703 0074 BB68     		ldr	r3, [r7, #8]
 5704 0076 1344     		add	r3, r3, r2
 5705 0078 5433     		adds	r3, r3, #84
 5706 007a 1B78     		ldrb	r3, [r3]
 5707 007c 87F82F30 		strb	r3, [r7, #47]
 5708 0080 3A6B     		ldr	r2, [r7, #48]
 5709 0082 BB68     		ldr	r3, [r7, #8]
 5710 0084 1344     		add	r3, r3, r2
 5711 0086 5433     		adds	r3, r3, #84
 5712 0088 0222     		movs	r2, #2
 5713 008a 1A70     		strb	r2, [r3]
 5714 008c FB78     		ldrb	r3, [r7, #3]	@ zero_extendqisi2
ARM GAS  C:\msys64\tmp\cc2KM9Cz.s 			page 99


 5715 008e 042B     		cmp	r3, #4
 5716 0090 3BD8     		bhi	.L453
 5717 0092 01A2     		adr	r2, .L455
 5718 0094 52F823F0 		ldr	pc, [r2, r3, lsl #2]
 5719              		.p2align 2
 5720              	.L455:
 5721 0098 2F010000 		.word	.L470+1
 5722 009c AD000000 		.word	.L458+1
 5723 00a0 C9000000 		.word	.L457+1
 5724 00a4 E1000000 		.word	.L456+1
 5725 00a8 EF000000 		.word	.L454+1
 5726              		.p2align 1
 5727              	.L458:
 5728 00ac 3B6B     		ldr	r3, [r7, #48]
 5729 00ae BA68     		ldr	r2, [r7, #8]
 5730 00b0 1432     		adds	r2, r2, #20
 5731 00b2 53F82220 		ldr	r2, [r3, r2, lsl #2]
 5732 00b6 7B68     		ldr	r3, [r7, #4]
 5733 00b8 42EA0301 		orr	r1, r2, r3
 5734 00bc 3B6B     		ldr	r3, [r7, #48]
 5735 00be BA68     		ldr	r2, [r7, #8]
 5736 00c0 1432     		adds	r2, r2, #20
 5737 00c2 43F82210 		str	r1, [r3, r2, lsl #2]
 5738 00c6 35E0     		b	.L460
 5739              	.L457:
 5740 00c8 3B6B     		ldr	r3, [r7, #48]
 5741 00ca BA68     		ldr	r2, [r7, #8]
 5742 00cc 1432     		adds	r2, r2, #20
 5743 00ce 53F82230 		ldr	r3, [r3, r2, lsl #2]
 5744 00d2 591C     		adds	r1, r3, #1
 5745 00d4 3B6B     		ldr	r3, [r7, #48]
 5746 00d6 BA68     		ldr	r2, [r7, #8]
 5747 00d8 1432     		adds	r2, r2, #20
 5748 00da 43F82210 		str	r1, [r3, r2, lsl #2]
 5749 00de 29E0     		b	.L460
 5750              	.L456:
 5751 00e0 3B6B     		ldr	r3, [r7, #48]
 5752 00e2 BA68     		ldr	r2, [r7, #8]
 5753 00e4 1432     		adds	r2, r2, #20
 5754 00e6 7968     		ldr	r1, [r7, #4]
 5755 00e8 43F82210 		str	r1, [r3, r2, lsl #2]
 5756 00ec 22E0     		b	.L460
 5757              	.L454:
 5758 00ee 97F82F30 		ldrb	r3, [r7, #47]	@ zero_extendqisi2
 5759 00f2 022B     		cmp	r3, #2
 5760 00f4 06D0     		beq	.L461
 5761 00f6 3B6B     		ldr	r3, [r7, #48]
 5762 00f8 BA68     		ldr	r2, [r7, #8]
 5763 00fa 1432     		adds	r2, r2, #20
 5764 00fc 7968     		ldr	r1, [r7, #4]
 5765 00fe 43F82210 		str	r1, [r3, r2, lsl #2]
 5766 0102 17E0     		b	.L460
 5767              	.L461:
 5768 0104 0023     		movs	r3, #0
 5769 0106 7B63     		str	r3, [r7, #52]
 5770 0108 14E0     		b	.L460
 5771              	.L453:
ARM GAS  C:\msys64\tmp\cc2KM9Cz.s 			page 100


 5772 010a 514B     		ldr	r3, .L472
 5773 010c 1B68     		ldr	r3, [r3]
 5774 010e 002B     		cmp	r3, #0
 5775 0110 0FD0     		beq	.L471
 5776              		.syntax unified
 5777              	@ 214 "Middlewares/stm32f746_lwip_withos_porting/FreeRTOS/portable/GCC/ARM_CM7/r0p1/portmacro.h" 1
 5778 0112 4FF05003 		   mov r3, #80                                              
 5779 0116 72B6     	   cpsid i                                                 
 5780 0118 83F31188 	   msr basepri, r3                                         
 5781 011c BFF36F8F 	   isb                                                     
 5782 0120 BFF34F8F 	   dsb                                                     
 5783 0124 62B6     	   cpsie i                                                 
 5784              	
 5785              	@ 0 "" 2
 5786              		.thumb
 5787              		.syntax unified
 5788 0126 BB61     		str	r3, [r7, #24]
 5789 0128 00BF     		nop
 5790              	.L464:
 5791 012a 00BF     		nop
 5792 012c FDE7     		b	.L464
 5793              	.L470:
 5794 012e 00BF     		nop
 5795 0130 00E0     		b	.L460
 5796              	.L471:
 5797 0132 00BF     		nop
 5798              	.L460:
 5799 0134 97F82F30 		ldrb	r3, [r7, #47]	@ zero_extendqisi2
 5800 0138 012B     		cmp	r3, #1
 5801 013a 40F08180 		bne	.L465
 5802 013e 3B6B     		ldr	r3, [r7, #48]
 5803 0140 5B69     		ldr	r3, [r3, #20]
 5804 0142 BB62     		str	r3, [r7, #40]
 5805 0144 3B6B     		ldr	r3, [r7, #48]
 5806 0146 9B68     		ldr	r3, [r3, #8]
 5807 0148 3A6B     		ldr	r2, [r7, #48]
 5808 014a D268     		ldr	r2, [r2, #12]
 5809 014c 9A60     		str	r2, [r3, #8]
 5810 014e 3B6B     		ldr	r3, [r7, #48]
 5811 0150 DB68     		ldr	r3, [r3, #12]
 5812 0152 3A6B     		ldr	r2, [r7, #48]
 5813 0154 9268     		ldr	r2, [r2, #8]
 5814 0156 5A60     		str	r2, [r3, #4]
 5815 0158 BB6A     		ldr	r3, [r7, #40]
 5816 015a 5A68     		ldr	r2, [r3, #4]
 5817 015c 3B6B     		ldr	r3, [r7, #48]
 5818 015e 0433     		adds	r3, r3, #4
 5819 0160 9A42     		cmp	r2, r3
 5820 0162 03D1     		bne	.L466
 5821 0164 3B6B     		ldr	r3, [r7, #48]
 5822 0166 DA68     		ldr	r2, [r3, #12]
 5823 0168 BB6A     		ldr	r3, [r7, #40]
 5824 016a 5A60     		str	r2, [r3, #4]
 5825              	.L466:
 5826 016c 3B6B     		ldr	r3, [r7, #48]
 5827 016e 0022     		movs	r2, #0
 5828 0170 5A61     		str	r2, [r3, #20]
ARM GAS  C:\msys64\tmp\cc2KM9Cz.s 			page 101


 5829 0172 BB6A     		ldr	r3, [r7, #40]
 5830 0174 1B68     		ldr	r3, [r3]
 5831 0176 5A1E     		subs	r2, r3, #1
 5832 0178 BB6A     		ldr	r3, [r7, #40]
 5833 017a 1A60     		str	r2, [r3]
 5834 017c 3B6B     		ldr	r3, [r7, #48]
 5835 017e DB6A     		ldr	r3, [r3, #44]
 5836 0180 0122     		movs	r2, #1
 5837 0182 9A40     		lsls	r2, r2, r3
 5838 0184 334B     		ldr	r3, .L472+4
 5839 0186 1B68     		ldr	r3, [r3]
 5840 0188 1343     		orrs	r3, r3, r2
 5841 018a 324A     		ldr	r2, .L472+4
 5842 018c 1360     		str	r3, [r2]
 5843 018e 3B6B     		ldr	r3, [r7, #48]
 5844 0190 DA6A     		ldr	r2, [r3, #44]
 5845 0192 3149     		ldr	r1, .L472+8
 5846 0194 1346     		mov	r3, r2
 5847 0196 9B00     		lsls	r3, r3, #2
 5848 0198 1344     		add	r3, r3, r2
 5849 019a 9B00     		lsls	r3, r3, #2
 5850 019c 0B44     		add	r3, r3, r1
 5851 019e 0433     		adds	r3, r3, #4
 5852 01a0 1B68     		ldr	r3, [r3]
 5853 01a2 7B62     		str	r3, [r7, #36]
 5854 01a4 3B6B     		ldr	r3, [r7, #48]
 5855 01a6 7A6A     		ldr	r2, [r7, #36]
 5856 01a8 9A60     		str	r2, [r3, #8]
 5857 01aa 7B6A     		ldr	r3, [r7, #36]
 5858 01ac 9A68     		ldr	r2, [r3, #8]
 5859 01ae 3B6B     		ldr	r3, [r7, #48]
 5860 01b0 DA60     		str	r2, [r3, #12]
 5861 01b2 7B6A     		ldr	r3, [r7, #36]
 5862 01b4 9B68     		ldr	r3, [r3, #8]
 5863 01b6 3A6B     		ldr	r2, [r7, #48]
 5864 01b8 0432     		adds	r2, r2, #4
 5865 01ba 5A60     		str	r2, [r3, #4]
 5866 01bc 3B6B     		ldr	r3, [r7, #48]
 5867 01be 1A1D     		adds	r2, r3, #4
 5868 01c0 7B6A     		ldr	r3, [r7, #36]
 5869 01c2 9A60     		str	r2, [r3, #8]
 5870 01c4 3B6B     		ldr	r3, [r7, #48]
 5871 01c6 DA6A     		ldr	r2, [r3, #44]
 5872 01c8 1346     		mov	r3, r2
 5873 01ca 9B00     		lsls	r3, r3, #2
 5874 01cc 1344     		add	r3, r3, r2
 5875 01ce 9B00     		lsls	r3, r3, #2
 5876 01d0 214A     		ldr	r2, .L472+8
 5877 01d2 1A44     		add	r2, r2, r3
 5878 01d4 3B6B     		ldr	r3, [r7, #48]
 5879 01d6 5A61     		str	r2, [r3, #20]
 5880 01d8 3B6B     		ldr	r3, [r7, #48]
 5881 01da DA6A     		ldr	r2, [r3, #44]
 5882 01dc 1E49     		ldr	r1, .L472+8
 5883 01de 1346     		mov	r3, r2
 5884 01e0 9B00     		lsls	r3, r3, #2
 5885 01e2 1344     		add	r3, r3, r2
ARM GAS  C:\msys64\tmp\cc2KM9Cz.s 			page 102


 5886 01e4 9B00     		lsls	r3, r3, #2
 5887 01e6 0B44     		add	r3, r3, r1
 5888 01e8 1B68     		ldr	r3, [r3]
 5889 01ea 3A6B     		ldr	r2, [r7, #48]
 5890 01ec D26A     		ldr	r2, [r2, #44]
 5891 01ee 591C     		adds	r1, r3, #1
 5892 01f0 1948     		ldr	r0, .L472+8
 5893 01f2 1346     		mov	r3, r2
 5894 01f4 9B00     		lsls	r3, r3, #2
 5895 01f6 1344     		add	r3, r3, r2
 5896 01f8 9B00     		lsls	r3, r3, #2
 5897 01fa 0344     		add	r3, r3, r0
 5898 01fc 1960     		str	r1, [r3]
 5899 01fe 3B6B     		ldr	r3, [r7, #48]
 5900 0200 9B6A     		ldr	r3, [r3, #40]
 5901 0202 002B     		cmp	r3, #0
 5902 0204 0DD0     		beq	.L467
 5903              		.syntax unified
 5904              	@ 214 "Middlewares/stm32f746_lwip_withos_porting/FreeRTOS/portable/GCC/ARM_CM7/r0p1/portmacro.h" 1
 5905 0206 4FF05003 		   mov r3, #80                                              
 5906 020a 72B6     	   cpsid i                                                 
 5907 020c 83F31188 	   msr basepri, r3                                         
 5908 0210 BFF36F8F 	   isb                                                     
 5909 0214 BFF34F8F 	   dsb                                                     
 5910 0218 62B6     	   cpsie i                                                 
 5911              	
 5912              	@ 0 "" 2
 5913              		.thumb
 5914              		.syntax unified
 5915 021a 7B61     		str	r3, [r7, #20]
 5916 021c 00BF     		nop
 5917              	.L468:
 5918 021e 00BF     		nop
 5919 0220 FDE7     		b	.L468
 5920              	.L467:
 5921 0222 0E4B     		ldr	r3, .L472+12
 5922 0224 1B68     		ldr	r3, [r3]
 5923 0226 DA6A     		ldr	r2, [r3, #44]
 5924 0228 3B6B     		ldr	r3, [r7, #48]
 5925 022a DB6A     		ldr	r3, [r3, #44]
 5926 022c 9A42     		cmp	r2, r3
 5927 022e 07D2     		bcs	.L465
 5928 0230 0B4B     		ldr	r3, .L472+16
 5929 0232 4FF08052 		mov	r2, #268435456
 5930 0236 1A60     		str	r2, [r3]
 5931              		.syntax unified
 5932              	@ 8008 "Middlewares/stm32f746_lwip_withos_porting/FreeRTOS/Core/Src/tasks.c" 1
 5933 0238 BFF34F8F 		dsb
 5934              	@ 0 "" 2
 5935              	@ 8008 "Middlewares/stm32f746_lwip_withos_porting/FreeRTOS/Core/Src/tasks.c" 1
 5936 023c BFF36F8F 		isb
 5937              	@ 0 "" 2
 5938              		.thumb
 5939              		.syntax unified
 5940              	.L465:
 5941 0240 FFF7FEFF 		bl	vPortExitCritical
 5942 0244 7B6B     		ldr	r3, [r7, #52]
ARM GAS  C:\msys64\tmp\cc2KM9Cz.s 			page 103


 5943 0246 1846     		mov	r0, r3
 5944 0248 3837     		adds	r7, r7, #56
 5945 024a BD46     		mov	sp, r7
 5946              		@ sp needed
 5947 024c 80BD     		pop	{r7, pc}
 5948              	.L473:
 5949 024e 00BF     		.align	2
 5950              	.L472:
 5951 0250 00000000 		.word	xTickCount
 5952 0254 00000000 		.word	uxTopReadyPriority
 5953 0258 00000000 		.word	pxReadyTasksLists
 5954 025c 00000000 		.word	pxCurrentTCB
 5955 0260 04ED00E0 		.word	-536810236
 5957              		.section	.text.xTaskGenericNotifyFromISR,"ax",%progbits
 5958              		.align	1
 5959              		.global	xTaskGenericNotifyFromISR
 5960              		.syntax unified
 5961              		.thumb
 5962              		.thumb_func
 5964              	xTaskGenericNotifyFromISR:
 5965              		@ args = 8, pretend = 0, frame = 72
 5966              		@ frame_needed = 1, uses_anonymous_args = 0
 5967 0000 80B5     		push	{r7, lr}
 5968 0002 92B0     		sub	sp, sp, #72
 5969 0004 00AF     		add	r7, sp, #0
 5970 0006 F860     		str	r0, [r7, #12]
 5971 0008 B960     		str	r1, [r7, #8]
 5972 000a 7A60     		str	r2, [r7, #4]
 5973 000c FB70     		strb	r3, [r7, #3]
 5974 000e 0123     		movs	r3, #1
 5975 0010 7B64     		str	r3, [r7, #68]
 5976 0012 FB68     		ldr	r3, [r7, #12]
 5977 0014 002B     		cmp	r3, #0
 5978 0016 0DD1     		bne	.L475
 5979              		.syntax unified
 5980              	@ 214 "Middlewares/stm32f746_lwip_withos_porting/FreeRTOS/portable/GCC/ARM_CM7/r0p1/portmacro.h" 1
 5981 0018 4FF05003 		   mov r3, #80                                              
 5982 001c 72B6     	   cpsid i                                                 
 5983 001e 83F31188 	   msr basepri, r3                                         
 5984 0022 BFF36F8F 	   isb                                                     
 5985 0026 BFF34F8F 	   dsb                                                     
 5986 002a 62B6     	   cpsie i                                                 
 5987              	
 5988              	@ 0 "" 2
 5989              		.thumb
 5990              		.syntax unified
 5991 002c BB62     		str	r3, [r7, #40]
 5992 002e 00BF     		nop
 5993              	.L476:
 5994 0030 00BF     		nop
 5995 0032 FDE7     		b	.L476
 5996              	.L475:
 5997 0034 BB68     		ldr	r3, [r7, #8]
 5998 0036 002B     		cmp	r3, #0
 5999 0038 0DD0     		beq	.L477
 6000              		.syntax unified
 6001              	@ 214 "Middlewares/stm32f746_lwip_withos_porting/FreeRTOS/portable/GCC/ARM_CM7/r0p1/portmacro.h" 1
ARM GAS  C:\msys64\tmp\cc2KM9Cz.s 			page 104


 6002 003a 4FF05003 		   mov r3, #80                                              
 6003 003e 72B6     	   cpsid i                                                 
 6004 0040 83F31188 	   msr basepri, r3                                         
 6005 0044 BFF36F8F 	   isb                                                     
 6006 0048 BFF34F8F 	   dsb                                                     
 6007 004c 62B6     	   cpsie i                                                 
 6008              	
 6009              	@ 0 "" 2
 6010              		.thumb
 6011              		.syntax unified
 6012 004e 7B62     		str	r3, [r7, #36]
 6013 0050 00BF     		nop
 6014              	.L478:
 6015 0052 00BF     		nop
 6016 0054 FDE7     		b	.L478
 6017              	.L477:
 6018 0056 FFF7FEFF 		bl	vPortValidateInterruptPriority
 6019 005a FB68     		ldr	r3, [r7, #12]
 6020 005c 3B64     		str	r3, [r7, #64]
 6021              		.syntax unified
 6022              	@ 232 "Middlewares/stm32f746_lwip_withos_porting/FreeRTOS/portable/GCC/ARM_CM7/r0p1/portmacro.h" 1
 6023 005e EFF31182 		   mrs r2, basepri                                         
 6024 0062 4FF05003 	   mov r3, #80                                              
 6025 0066 72B6     	   cpsid i                                                 
 6026 0068 83F31188 	   msr basepri, r3                                         
 6027 006c BFF36F8F 	   isb                                                     
 6028 0070 BFF34F8F 	   dsb                                                     
 6029 0074 62B6     	   cpsie i                                                 
 6030              	
 6031              	@ 0 "" 2
 6032              		.thumb
 6033              		.syntax unified
 6034 0076 3A62     		str	r2, [r7, #32]
 6035 0078 FB61     		str	r3, [r7, #28]
 6036 007a 3B6A     		ldr	r3, [r7, #32]
 6037 007c FB63     		str	r3, [r7, #60]
 6038 007e 3B6D     		ldr	r3, [r7, #80]
 6039 0080 002B     		cmp	r3, #0
 6040 0082 06D0     		beq	.L480
 6041 0084 3B6C     		ldr	r3, [r7, #64]
 6042 0086 BA68     		ldr	r2, [r7, #8]
 6043 0088 1432     		adds	r2, r2, #20
 6044 008a 53F82220 		ldr	r2, [r3, r2, lsl #2]
 6045 008e 3B6D     		ldr	r3, [r7, #80]
 6046 0090 1A60     		str	r2, [r3]
 6047              	.L480:
 6048 0092 3A6C     		ldr	r2, [r7, #64]
 6049 0094 BB68     		ldr	r3, [r7, #8]
 6050 0096 1344     		add	r3, r3, r2
 6051 0098 5433     		adds	r3, r3, #84
 6052 009a 1B78     		ldrb	r3, [r3]
 6053 009c 87F83B30 		strb	r3, [r7, #59]
 6054 00a0 3A6C     		ldr	r2, [r7, #64]
 6055 00a2 BB68     		ldr	r3, [r7, #8]
 6056 00a4 1344     		add	r3, r3, r2
 6057 00a6 5433     		adds	r3, r3, #84
 6058 00a8 0222     		movs	r2, #2
ARM GAS  C:\msys64\tmp\cc2KM9Cz.s 			page 105


 6059 00aa 1A70     		strb	r2, [r3]
 6060 00ac FB78     		ldrb	r3, [r7, #3]	@ zero_extendqisi2
 6061 00ae 042B     		cmp	r3, #4
 6062 00b0 3BD8     		bhi	.L481
 6063 00b2 01A2     		adr	r2, .L483
 6064 00b4 52F823F0 		ldr	pc, [r2, r3, lsl #2]
 6065              		.p2align 2
 6066              	.L483:
 6067 00b8 4F010000 		.word	.L501+1
 6068 00bc CD000000 		.word	.L486+1
 6069 00c0 E9000000 		.word	.L485+1
 6070 00c4 01010000 		.word	.L484+1
 6071 00c8 0F010000 		.word	.L482+1
 6072              		.p2align 1
 6073              	.L486:
 6074 00cc 3B6C     		ldr	r3, [r7, #64]
 6075 00ce BA68     		ldr	r2, [r7, #8]
 6076 00d0 1432     		adds	r2, r2, #20
 6077 00d2 53F82220 		ldr	r2, [r3, r2, lsl #2]
 6078 00d6 7B68     		ldr	r3, [r7, #4]
 6079 00d8 42EA0301 		orr	r1, r2, r3
 6080 00dc 3B6C     		ldr	r3, [r7, #64]
 6081 00de BA68     		ldr	r2, [r7, #8]
 6082 00e0 1432     		adds	r2, r2, #20
 6083 00e2 43F82210 		str	r1, [r3, r2, lsl #2]
 6084 00e6 35E0     		b	.L488
 6085              	.L485:
 6086 00e8 3B6C     		ldr	r3, [r7, #64]
 6087 00ea BA68     		ldr	r2, [r7, #8]
 6088 00ec 1432     		adds	r2, r2, #20
 6089 00ee 53F82230 		ldr	r3, [r3, r2, lsl #2]
 6090 00f2 591C     		adds	r1, r3, #1
 6091 00f4 3B6C     		ldr	r3, [r7, #64]
 6092 00f6 BA68     		ldr	r2, [r7, #8]
 6093 00f8 1432     		adds	r2, r2, #20
 6094 00fa 43F82210 		str	r1, [r3, r2, lsl #2]
 6095 00fe 29E0     		b	.L488
 6096              	.L484:
 6097 0100 3B6C     		ldr	r3, [r7, #64]
 6098 0102 BA68     		ldr	r2, [r7, #8]
 6099 0104 1432     		adds	r2, r2, #20
 6100 0106 7968     		ldr	r1, [r7, #4]
 6101 0108 43F82210 		str	r1, [r3, r2, lsl #2]
 6102 010c 22E0     		b	.L488
 6103              	.L482:
 6104 010e 97F83B30 		ldrb	r3, [r7, #59]	@ zero_extendqisi2
 6105 0112 022B     		cmp	r3, #2
 6106 0114 06D0     		beq	.L489
 6107 0116 3B6C     		ldr	r3, [r7, #64]
 6108 0118 BA68     		ldr	r2, [r7, #8]
 6109 011a 1432     		adds	r2, r2, #20
 6110 011c 7968     		ldr	r1, [r7, #4]
 6111 011e 43F82210 		str	r1, [r3, r2, lsl #2]
 6112 0122 17E0     		b	.L488
 6113              	.L489:
 6114 0124 0023     		movs	r3, #0
 6115 0126 7B64     		str	r3, [r7, #68]
ARM GAS  C:\msys64\tmp\cc2KM9Cz.s 			page 106


 6116 0128 14E0     		b	.L488
 6117              	.L481:
 6118 012a 644B     		ldr	r3, .L503
 6119 012c 1B68     		ldr	r3, [r3]
 6120 012e 002B     		cmp	r3, #0
 6121 0130 0FD0     		beq	.L502
 6122              		.syntax unified
 6123              	@ 214 "Middlewares/stm32f746_lwip_withos_porting/FreeRTOS/portable/GCC/ARM_CM7/r0p1/portmacro.h" 1
 6124 0132 4FF05003 		   mov r3, #80                                              
 6125 0136 72B6     	   cpsid i                                                 
 6126 0138 83F31188 	   msr basepri, r3                                         
 6127 013c BFF36F8F 	   isb                                                     
 6128 0140 BFF34F8F 	   dsb                                                     
 6129 0144 62B6     	   cpsie i                                                 
 6130              	
 6131              	@ 0 "" 2
 6132              		.thumb
 6133              		.syntax unified
 6134 0146 BB61     		str	r3, [r7, #24]
 6135 0148 00BF     		nop
 6136              	.L492:
 6137 014a 00BF     		nop
 6138 014c FDE7     		b	.L492
 6139              	.L501:
 6140 014e 00BF     		nop
 6141 0150 00E0     		b	.L488
 6142              	.L502:
 6143 0152 00BF     		nop
 6144              	.L488:
 6145 0154 97F83B30 		ldrb	r3, [r7, #59]	@ zero_extendqisi2
 6146 0158 012B     		cmp	r3, #1
 6147 015a 40F0A380 		bne	.L493
 6148 015e 3B6C     		ldr	r3, [r7, #64]
 6149 0160 9B6A     		ldr	r3, [r3, #40]
 6150 0162 002B     		cmp	r3, #0
 6151 0164 0DD0     		beq	.L494
 6152              		.syntax unified
 6153              	@ 214 "Middlewares/stm32f746_lwip_withos_porting/FreeRTOS/portable/GCC/ARM_CM7/r0p1/portmacro.h" 1
 6154 0166 4FF05003 		   mov r3, #80                                              
 6155 016a 72B6     	   cpsid i                                                 
 6156 016c 83F31188 	   msr basepri, r3                                         
 6157 0170 BFF36F8F 	   isb                                                     
 6158 0174 BFF34F8F 	   dsb                                                     
 6159 0178 62B6     	   cpsie i                                                 
 6160              	
 6161              	@ 0 "" 2
 6162              		.thumb
 6163              		.syntax unified
 6164 017a 7B61     		str	r3, [r7, #20]
 6165 017c 00BF     		nop
 6166              	.L495:
 6167 017e 00BF     		nop
 6168 0180 FDE7     		b	.L495
 6169              	.L494:
 6170 0182 4F4B     		ldr	r3, .L503+4
 6171 0184 1B68     		ldr	r3, [r3]
 6172 0186 002B     		cmp	r3, #0
ARM GAS  C:\msys64\tmp\cc2KM9Cz.s 			page 107


 6173 0188 60D1     		bne	.L496
 6174 018a 3B6C     		ldr	r3, [r7, #64]
 6175 018c 5B69     		ldr	r3, [r3, #20]
 6176 018e 3B63     		str	r3, [r7, #48]
 6177 0190 3B6C     		ldr	r3, [r7, #64]
 6178 0192 9B68     		ldr	r3, [r3, #8]
 6179 0194 3A6C     		ldr	r2, [r7, #64]
 6180 0196 D268     		ldr	r2, [r2, #12]
 6181 0198 9A60     		str	r2, [r3, #8]
 6182 019a 3B6C     		ldr	r3, [r7, #64]
 6183 019c DB68     		ldr	r3, [r3, #12]
 6184 019e 3A6C     		ldr	r2, [r7, #64]
 6185 01a0 9268     		ldr	r2, [r2, #8]
 6186 01a2 5A60     		str	r2, [r3, #4]
 6187 01a4 3B6B     		ldr	r3, [r7, #48]
 6188 01a6 5A68     		ldr	r2, [r3, #4]
 6189 01a8 3B6C     		ldr	r3, [r7, #64]
 6190 01aa 0433     		adds	r3, r3, #4
 6191 01ac 9A42     		cmp	r2, r3
 6192 01ae 03D1     		bne	.L497
 6193 01b0 3B6C     		ldr	r3, [r7, #64]
 6194 01b2 DA68     		ldr	r2, [r3, #12]
 6195 01b4 3B6B     		ldr	r3, [r7, #48]
 6196 01b6 5A60     		str	r2, [r3, #4]
 6197              	.L497:
 6198 01b8 3B6C     		ldr	r3, [r7, #64]
 6199 01ba 0022     		movs	r2, #0
 6200 01bc 5A61     		str	r2, [r3, #20]
 6201 01be 3B6B     		ldr	r3, [r7, #48]
 6202 01c0 1B68     		ldr	r3, [r3]
 6203 01c2 5A1E     		subs	r2, r3, #1
 6204 01c4 3B6B     		ldr	r3, [r7, #48]
 6205 01c6 1A60     		str	r2, [r3]
 6206 01c8 3B6C     		ldr	r3, [r7, #64]
 6207 01ca DB6A     		ldr	r3, [r3, #44]
 6208 01cc 0122     		movs	r2, #1
 6209 01ce 9A40     		lsls	r2, r2, r3
 6210 01d0 3C4B     		ldr	r3, .L503+8
 6211 01d2 1B68     		ldr	r3, [r3]
 6212 01d4 1343     		orrs	r3, r3, r2
 6213 01d6 3B4A     		ldr	r2, .L503+8
 6214 01d8 1360     		str	r3, [r2]
 6215 01da 3B6C     		ldr	r3, [r7, #64]
 6216 01dc DA6A     		ldr	r2, [r3, #44]
 6217 01de 3A49     		ldr	r1, .L503+12
 6218 01e0 1346     		mov	r3, r2
 6219 01e2 9B00     		lsls	r3, r3, #2
 6220 01e4 1344     		add	r3, r3, r2
 6221 01e6 9B00     		lsls	r3, r3, #2
 6222 01e8 0B44     		add	r3, r3, r1
 6223 01ea 0433     		adds	r3, r3, #4
 6224 01ec 1B68     		ldr	r3, [r3]
 6225 01ee FB62     		str	r3, [r7, #44]
 6226 01f0 3B6C     		ldr	r3, [r7, #64]
 6227 01f2 FA6A     		ldr	r2, [r7, #44]
 6228 01f4 9A60     		str	r2, [r3, #8]
 6229 01f6 FB6A     		ldr	r3, [r7, #44]
ARM GAS  C:\msys64\tmp\cc2KM9Cz.s 			page 108


 6230 01f8 9A68     		ldr	r2, [r3, #8]
 6231 01fa 3B6C     		ldr	r3, [r7, #64]
 6232 01fc DA60     		str	r2, [r3, #12]
 6233 01fe FB6A     		ldr	r3, [r7, #44]
 6234 0200 9B68     		ldr	r3, [r3, #8]
 6235 0202 3A6C     		ldr	r2, [r7, #64]
 6236 0204 0432     		adds	r2, r2, #4
 6237 0206 5A60     		str	r2, [r3, #4]
 6238 0208 3B6C     		ldr	r3, [r7, #64]
 6239 020a 1A1D     		adds	r2, r3, #4
 6240 020c FB6A     		ldr	r3, [r7, #44]
 6241 020e 9A60     		str	r2, [r3, #8]
 6242 0210 3B6C     		ldr	r3, [r7, #64]
 6243 0212 DA6A     		ldr	r2, [r3, #44]
