ARM GAS  C:\msys64\tmp\ccvCkYBE.s 			page 1


   1              		.cpu cortex-m7
   2              		.arch armv7e-m
   3              		.fpu fpv5-sp-d16
   4              		.eabi_attribute 27, 1
   5              		.eabi_attribute 28, 1
   6              		.eabi_attribute 20, 1
   7              		.eabi_attribute 21, 1
   8              		.eabi_attribute 23, 3
   9              		.eabi_attribute 24, 1
  10              		.eabi_attribute 25, 1
  11              		.eabi_attribute 26, 1
  12              		.eabi_attribute 30, 6
  13              		.eabi_attribute 34, 1
  14              		.eabi_attribute 18, 4
  15              		.file	"sys_arch.c"
  16              		.text
  17              		.section	.text.sys_init,"ax",%progbits
  18              		.align	1
  19              		.global	sys_init
  20              		.syntax unified
  21              		.thumb
  22              		.thumb_func
  24              	sys_init:
  25              		@ args = 0, pretend = 0, frame = 0
  26              		@ frame_needed = 1, uses_anonymous_args = 0
  27              		@ link register save eliminated.
  28 0000 80B4     		push	{r7}
  29 0002 00AF     		add	r7, sp, #0
  30 0004 00BF     		nop
  31 0006 BD46     		mov	sp, r7
  32              		@ sp needed
  33 0008 5DF8047B 		ldr	r7, [sp], #4
  34 000c 7047     		bx	lr
  36              		.section	.text.sys_jiffies,"ax",%progbits
  37              		.align	1
  38              		.global	sys_jiffies
  39              		.syntax unified
  40              		.thumb
  41              		.thumb_func
  43              	sys_jiffies:
  44              		@ args = 0, pretend = 0, frame = 0
  45              		@ frame_needed = 1, uses_anonymous_args = 0
  46 0000 80B5     		push	{r7, lr}
  47 0002 00AF     		add	r7, sp, #0
  48 0004 FFF7FEFF 		bl	xTaskGetTickCount
  49 0008 0346     		mov	r3, r0
  50 000a 1846     		mov	r0, r3
  51 000c 80BD     		pop	{r7, pc}
  53              		.section	.text.sys_arch_protect,"ax",%progbits
  54              		.align	1
  55              		.global	sys_arch_protect
  56              		.syntax unified
  57              		.thumb
  58              		.thumb_func
  60              	sys_arch_protect:
  61              		@ args = 0, pretend = 0, frame = 0
  62              		@ frame_needed = 1, uses_anonymous_args = 0
ARM GAS  C:\msys64\tmp\ccvCkYBE.s 			page 2


  63 0000 80B5     		push	{r7, lr}
  64 0002 00AF     		add	r7, sp, #0
  65 0004 FFF7FEFF 		bl	vPortEnterCritical
  66 0008 0123     		movs	r3, #1
  67 000a 1846     		mov	r0, r3
  68 000c 80BD     		pop	{r7, pc}
  70              		.section	.text.sys_arch_unprotect,"ax",%progbits
  71              		.align	1
  72              		.global	sys_arch_unprotect
  73              		.syntax unified
  74              		.thumb
  75              		.thumb_func
  77              	sys_arch_unprotect:
  78              		@ args = 0, pretend = 0, frame = 8
  79              		@ frame_needed = 1, uses_anonymous_args = 0
  80 0000 80B5     		push	{r7, lr}
  81 0002 82B0     		sub	sp, sp, #8
  82 0004 00AF     		add	r7, sp, #0
  83 0006 7860     		str	r0, [r7, #4]
  84 0008 FFF7FEFF 		bl	vPortExitCritical
  85 000c 00BF     		nop
  86 000e 0837     		adds	r7, r7, #8
  87 0010 BD46     		mov	sp, r7
  88              		@ sp needed
  89 0012 80BD     		pop	{r7, pc}
  91              		.section	.text.sys_arch_msleep,"ax",%progbits
  92              		.align	1
  93              		.global	sys_arch_msleep
  94              		.syntax unified
  95              		.thumb
  96              		.thumb_func
  98              	sys_arch_msleep:
  99              		@ args = 0, pretend = 0, frame = 16
 100              		@ frame_needed = 1, uses_anonymous_args = 0
 101 0000 80B5     		push	{r7, lr}
 102 0002 84B0     		sub	sp, sp, #16
 103 0004 00AF     		add	r7, sp, #0
 104 0006 7860     		str	r0, [r7, #4]
 105 0008 7B68     		ldr	r3, [r7, #4]
 106 000a FB60     		str	r3, [r7, #12]
 107 000c F868     		ldr	r0, [r7, #12]
 108 000e FFF7FEFF 		bl	vTaskDelay
 109 0012 00BF     		nop
 110 0014 1037     		adds	r7, r7, #16
 111 0016 BD46     		mov	sp, r7
 112              		@ sp needed
 113 0018 80BD     		pop	{r7, pc}
 115              		.section	.rodata
 116              		.align	2
 117              	.LC0:
 118 0000 4D696464 		.ascii	"Middlewares/stm32f746_lwip_withos_porting/LWIP/OS_p"
 118      6C657761 
 118      7265732F 
 118      73746D33 
 118      32663734 
 119 0033 6F727461 		.ascii	"ortable/sys_arch.c\000"
 119      626C652F 
ARM GAS  C:\msys64\tmp\ccvCkYBE.s 			page 3


 119      7379735F 
 119      61726368 
 119      2E6300
 120 0046 0000     		.align	2
 121              	.LC1:
 122 0048 6D757465 		.ascii	"mutex != NULL\000"
 122      7820213D 
 122      204E554C 
 122      4C00
 123 0056 0000     		.align	2
 124              	.LC2:
 125 0058 41737365 		.ascii	"Assertion \"%s\" failed at line %d in %s\012\000"
 125      7274696F 
 125      6E202225 
 125      73222066 
 125      61696C65 
 126              		.section	.text.sys_mutex_new,"ax",%progbits
 127              		.align	1
 128              		.global	sys_mutex_new
 129              		.syntax unified
 130              		.thumb
 131              		.thumb_func
 133              	sys_mutex_new:
 134              		@ args = 0, pretend = 0, frame = 8
 135              		@ frame_needed = 1, uses_anonymous_args = 0
 136 0000 80B5     		push	{r7, lr}
 137 0002 82B0     		sub	sp, sp, #8
 138 0004 00AF     		add	r7, sp, #0
 139 0006 7860     		str	r0, [r7, #4]
 140 0008 7B68     		ldr	r3, [r7, #4]
 141 000a 002B     		cmp	r3, #0
 142 000c 05D1     		bne	.L9
 143 000e 0C4B     		ldr	r3, .L12
 144 0010 CC22     		movs	r2, #204
 145 0012 0C49     		ldr	r1, .L12+4
 146 0014 0C48     		ldr	r0, .L12+8
 147 0016 FFF7FEFF 		bl	printf
 148              	.L9:
 149 001a 0420     		movs	r0, #4
 150 001c FFF7FEFF 		bl	xQueueCreateMutex
 151 0020 0246     		mov	r2, r0
 152 0022 7B68     		ldr	r3, [r7, #4]
 153 0024 1A60     		str	r2, [r3]
 154 0026 7B68     		ldr	r3, [r7, #4]
 155 0028 1B68     		ldr	r3, [r3]
 156 002a 002B     		cmp	r3, #0
 157 002c 02D1     		bne	.L10
 158 002e 4FF0FF33 		mov	r3, #-1
 159 0032 00E0     		b	.L11
 160              	.L10:
 161 0034 0023     		movs	r3, #0
 162              	.L11:
 163 0036 1846     		mov	r0, r3
 164 0038 0837     		adds	r7, r7, #8
 165 003a BD46     		mov	sp, r7
 166              		@ sp needed
 167 003c 80BD     		pop	{r7, pc}
ARM GAS  C:\msys64\tmp\ccvCkYBE.s 			page 4


 168              	.L13:
 169 003e 00BF     		.align	2
 170              	.L12:
 171 0040 00000000 		.word	.LC0
 172 0044 48000000 		.word	.LC1
 173 0048 58000000 		.word	.LC2
 175              		.section	.rodata
 176              		.align	2
 177              	.LC3:
 178 0080 6D757465 		.ascii	"mutex->mut != NULL\000"
 178      782D3E6D 
 178      75742021 
 178      3D204E55 
 178      4C4C00
 179 0093 00       		.align	2
 180              	.LC4:
 181 0094 6661696C 		.ascii	"failed to take the mutex\000"
 181      65642074 
 181      6F207461 
 181      6B652074 
 181      6865206D 
 182              		.section	.text.sys_mutex_lock,"ax",%progbits
 183              		.align	1
 184              		.global	sys_mutex_lock
 185              		.syntax unified
 186              		.thumb
 187              		.thumb_func
 189              	sys_mutex_lock:
 190              		@ args = 0, pretend = 0, frame = 16
 191              		@ frame_needed = 1, uses_anonymous_args = 0
 192 0000 80B5     		push	{r7, lr}
 193 0002 84B0     		sub	sp, sp, #16
 194 0004 00AF     		add	r7, sp, #0
 195 0006 7860     		str	r0, [r7, #4]
 196 0008 7B68     		ldr	r3, [r7, #4]
 197 000a 002B     		cmp	r3, #0
 198 000c 05D1     		bne	.L15
 199 000e 124B     		ldr	r3, .L19
 200 0010 DB22     		movs	r2, #219
 201 0012 1249     		ldr	r1, .L19+4
 202 0014 1248     		ldr	r0, .L19+8
 203 0016 FFF7FEFF 		bl	printf
 204              	.L15:
 205 001a 7B68     		ldr	r3, [r7, #4]
 206 001c 1B68     		ldr	r3, [r3]
 207 001e 002B     		cmp	r3, #0
 208 0020 05D1     		bne	.L16
 209 0022 0D4B     		ldr	r3, .L19
 210 0024 DC22     		movs	r2, #220
 211 0026 0F49     		ldr	r1, .L19+12
 212 0028 0D48     		ldr	r0, .L19+8
 213 002a FFF7FEFF 		bl	printf
 214              	.L16:
 215 002e 7B68     		ldr	r3, [r7, #4]
 216 0030 1B68     		ldr	r3, [r3]
 217 0032 4FF0FF31 		mov	r1, #-1
 218 0036 1846     		mov	r0, r3
ARM GAS  C:\msys64\tmp\ccvCkYBE.s 			page 5


 219 0038 FFF7FEFF 		bl	xQueueTakeMutexRecursive
 220 003c F860     		str	r0, [r7, #12]
 221 003e FB68     		ldr	r3, [r7, #12]
 222 0040 012B     		cmp	r3, #1
 223 0042 05D0     		beq	.L18
 224 0044 044B     		ldr	r3, .L19
 225 0046 DF22     		movs	r2, #223
 226 0048 0749     		ldr	r1, .L19+16
 227 004a 0548     		ldr	r0, .L19+8
 228 004c FFF7FEFF 		bl	printf
 229              	.L18:
 230 0050 00BF     		nop
 231 0052 1037     		adds	r7, r7, #16
 232 0054 BD46     		mov	sp, r7
 233              		@ sp needed
 234 0056 80BD     		pop	{r7, pc}
 235              	.L20:
 236              		.align	2
 237              	.L19:
 238 0058 00000000 		.word	.LC0
 239 005c 48000000 		.word	.LC1
 240 0060 58000000 		.word	.LC2
 241 0064 80000000 		.word	.LC3
 242 0068 94000000 		.word	.LC4
 244              		.section	.rodata
 245 00ad 000000   		.align	2
 246              	.LC5:
 247 00b0 6661696C 		.ascii	"failed to give the mutex\000"
 247      65642074 
 247      6F206769 
 247      76652074 
 247      6865206D 
 248              		.section	.text.sys_mutex_unlock,"ax",%progbits
 249              		.align	1
 250              		.global	sys_mutex_unlock
 251              		.syntax unified
 252              		.thumb
 253              		.thumb_func
 255              	sys_mutex_unlock:
 256              		@ args = 0, pretend = 0, frame = 16
 257              		@ frame_needed = 1, uses_anonymous_args = 0
 258 0000 80B5     		push	{r7, lr}
 259 0002 84B0     		sub	sp, sp, #16
 260 0004 00AF     		add	r7, sp, #0
 261 0006 7860     		str	r0, [r7, #4]
 262 0008 7B68     		ldr	r3, [r7, #4]
 263 000a 002B     		cmp	r3, #0
 264 000c 05D1     		bne	.L22
 265 000e 114B     		ldr	r3, .L26
 266 0010 E622     		movs	r2, #230
 267 0012 1149     		ldr	r1, .L26+4
 268 0014 1148     		ldr	r0, .L26+8
 269 0016 FFF7FEFF 		bl	printf
 270              	.L22:
 271 001a 7B68     		ldr	r3, [r7, #4]
 272 001c 1B68     		ldr	r3, [r3]
 273 001e 002B     		cmp	r3, #0
ARM GAS  C:\msys64\tmp\ccvCkYBE.s 			page 6


 274 0020 05D1     		bne	.L23
 275 0022 0C4B     		ldr	r3, .L26
 276 0024 E722     		movs	r2, #231
 277 0026 0E49     		ldr	r1, .L26+12
 278 0028 0C48     		ldr	r0, .L26+8
 279 002a FFF7FEFF 		bl	printf
 280              	.L23:
 281 002e 7B68     		ldr	r3, [r7, #4]
 282 0030 1B68     		ldr	r3, [r3]
 283 0032 1846     		mov	r0, r3
 284 0034 FFF7FEFF 		bl	xQueueGiveMutexRecursive
 285 0038 F860     		str	r0, [r7, #12]
 286 003a FB68     		ldr	r3, [r7, #12]
 287 003c 012B     		cmp	r3, #1
 288 003e 05D0     		beq	.L25
 289 0040 044B     		ldr	r3, .L26
 290 0042 EA22     		movs	r2, #234
 291 0044 0749     		ldr	r1, .L26+16
 292 0046 0548     		ldr	r0, .L26+8
 293 0048 FFF7FEFF 		bl	printf
 294              	.L25:
 295 004c 00BF     		nop
 296 004e 1037     		adds	r7, r7, #16
 297 0050 BD46     		mov	sp, r7
 298              		@ sp needed
 299 0052 80BD     		pop	{r7, pc}
 300              	.L27:
 301              		.align	2
 302              	.L26:
 303 0054 00000000 		.word	.LC0
 304 0058 48000000 		.word	.LC1
 305 005c 58000000 		.word	.LC2
 306 0060 80000000 		.word	.LC3
 307 0064 B0000000 		.word	.LC5
 309              		.section	.text.sys_mutex_free,"ax",%progbits
 310              		.align	1
 311              		.global	sys_mutex_free
 312              		.syntax unified
 313              		.thumb
 314              		.thumb_func
 316              	sys_mutex_free:
 317              		@ args = 0, pretend = 0, frame = 8
 318              		@ frame_needed = 1, uses_anonymous_args = 0
 319 0000 80B5     		push	{r7, lr}
 320 0002 82B0     		sub	sp, sp, #8
 321 0004 00AF     		add	r7, sp, #0
 322 0006 7860     		str	r0, [r7, #4]
 323 0008 7B68     		ldr	r3, [r7, #4]
 324 000a 002B     		cmp	r3, #0
 325 000c 05D1     		bne	.L29
 326 000e 0E4B     		ldr	r3, .L31
 327 0010 F022     		movs	r2, #240
 328 0012 0E49     		ldr	r1, .L31+4
 329 0014 0E48     		ldr	r0, .L31+8
 330 0016 FFF7FEFF 		bl	printf
 331              	.L29:
 332 001a 7B68     		ldr	r3, [r7, #4]
ARM GAS  C:\msys64\tmp\ccvCkYBE.s 			page 7


 333 001c 1B68     		ldr	r3, [r3]
 334 001e 002B     		cmp	r3, #0
 335 0020 05D1     		bne	.L30
 336 0022 094B     		ldr	r3, .L31
 337 0024 F122     		movs	r2, #241
 338 0026 0B49     		ldr	r1, .L31+12
 339 0028 0948     		ldr	r0, .L31+8
 340 002a FFF7FEFF 		bl	printf
 341              	.L30:
 342 002e 7B68     		ldr	r3, [r7, #4]
 343 0030 1B68     		ldr	r3, [r3]
 344 0032 1846     		mov	r0, r3
 345 0034 FFF7FEFF 		bl	vQueueDelete
 346 0038 7B68     		ldr	r3, [r7, #4]
 347 003a 0022     		movs	r2, #0
 348 003c 1A60     		str	r2, [r3]
 349 003e 00BF     		nop
 350 0040 0837     		adds	r7, r7, #8
 351 0042 BD46     		mov	sp, r7
 352              		@ sp needed
 353 0044 80BD     		pop	{r7, pc}
 354              	.L32:
 355 0046 00BF     		.align	2
 356              	.L31:
 357 0048 00000000 		.word	.LC0
 358 004c 48000000 		.word	.LC1
 359 0050 58000000 		.word	.LC2
 360 0054 80000000 		.word	.LC3
 362              		.section	.rodata
 363 00c9 000000   		.align	2
 364              	.LC6:
 365 00cc 73656D20 		.ascii	"sem != NULL\000"
 365      213D204E 
 365      554C4C00 
 366              		.align	2
 367              	.LC7:
 368 00d8 696E6974 		.ascii	"initial_count invalid (not 0 or 1)\000"
 368      69616C5F 
 368      636F756E 
 368      7420696E 
 368      76616C69 
 369 00fb 00       		.align	2
 370              	.LC8:
 371 00fc 7379735F 		.ascii	"sys_sem_new: initial give failed\000"
 371      73656D5F 
 371      6E65773A 
 371      20696E69 
 371      7469616C 
 372              		.section	.text.sys_sem_new,"ax",%progbits
 373              		.align	1
 374              		.global	sys_sem_new
 375              		.syntax unified
 376              		.thumb
 377              		.thumb_func
 379              	sys_sem_new:
 380              		@ args = 0, pretend = 0, frame = 16
 381              		@ frame_needed = 1, uses_anonymous_args = 0
ARM GAS  C:\msys64\tmp\ccvCkYBE.s 			page 8


 382 0000 80B5     		push	{r7, lr}
 383 0002 84B0     		sub	sp, sp, #16
 384 0004 00AF     		add	r7, sp, #0
 385 0006 7860     		str	r0, [r7, #4]
 386 0008 0B46     		mov	r3, r1
 387 000a FB70     		strb	r3, [r7, #3]
 388 000c 7B68     		ldr	r3, [r7, #4]
 389 000e 002B     		cmp	r3, #0
 390 0010 05D1     		bne	.L34
 391 0012 1D4B     		ldr	r3, .L39
 392 0014 FD22     		movs	r2, #253
 393 0016 1D49     		ldr	r1, .L39+4
 394 0018 1D48     		ldr	r0, .L39+8
 395 001a FFF7FEFF 		bl	printf
 396              	.L34:
 397 001e FB78     		ldrb	r3, [r7, #3]	@ zero_extendqisi2
 398 0020 002B     		cmp	r3, #0
 399 0022 08D0     		beq	.L35
 400 0024 FB78     		ldrb	r3, [r7, #3]	@ zero_extendqisi2
 401 0026 012B     		cmp	r3, #1
 402 0028 05D0     		beq	.L35
 403 002a 174B     		ldr	r3, .L39
 404 002c FE22     		movs	r2, #254
 405 002e 1949     		ldr	r1, .L39+12
 406 0030 1748     		ldr	r0, .L39+8
 407 0032 FFF7FEFF 		bl	printf
 408              	.L35:
 409 0036 0322     		movs	r2, #3
 410 0038 0021     		movs	r1, #0
 411 003a 0120     		movs	r0, #1
 412 003c FFF7FEFF 		bl	xQueueGenericCreate
 413 0040 0246     		mov	r2, r0
 414 0042 7B68     		ldr	r3, [r7, #4]
 415 0044 1A60     		str	r2, [r3]
 416 0046 7B68     		ldr	r3, [r7, #4]
 417 0048 1B68     		ldr	r3, [r3]
 418 004a 002B     		cmp	r3, #0
 419 004c 02D1     		bne	.L36
 420 004e 4FF0FF33 		mov	r3, #-1
 421 0052 15E0     		b	.L37
 422              	.L36:
 423 0054 FB78     		ldrb	r3, [r7, #3]	@ zero_extendqisi2
 424 0056 012B     		cmp	r3, #1
 425 0058 11D1     		bne	.L38
 426 005a 7B68     		ldr	r3, [r7, #4]
 427 005c 1868     		ldr	r0, [r3]
 428 005e 0023     		movs	r3, #0
 429 0060 0022     		movs	r2, #0
 430 0062 0021     		movs	r1, #0
 431 0064 FFF7FEFF 		bl	xQueueGenericSend
 432 0068 F860     		str	r0, [r7, #12]
 433 006a FB68     		ldr	r3, [r7, #12]
 434 006c 012B     		cmp	r3, #1
 435 006e 06D0     		beq	.L38
 436 0070 054B     		ldr	r3, .L39
 437 0072 4FF48572 		mov	r2, #266
 438 0076 0849     		ldr	r1, .L39+16
ARM GAS  C:\msys64\tmp\ccvCkYBE.s 			page 9


 439 0078 0548     		ldr	r0, .L39+8
 440 007a FFF7FEFF 		bl	printf
 441              	.L38:
 442 007e 0023     		movs	r3, #0
 443              	.L37:
 444 0080 1846     		mov	r0, r3
 445 0082 1037     		adds	r7, r7, #16
 446 0084 BD46     		mov	sp, r7
 447              		@ sp needed
 448 0086 80BD     		pop	{r7, pc}
 449              	.L40:
 450              		.align	2
 451              	.L39:
 452 0088 00000000 		.word	.LC0
 453 008c CC000000 		.word	.LC6
 454 0090 58000000 		.word	.LC2
 455 0094 D8000000 		.word	.LC7
 456 0098 FC000000 		.word	.LC8
 458              		.section	.rodata
 459 011d 000000   		.align	2
 460              	.LC9:
 461 0120 73656D2D 		.ascii	"sem->sem != NULL\000"
 461      3E73656D 
 461      20213D20 
 461      4E554C4C 
 461      00
 462 0131 000000   		.align	2
 463              	.LC10:
 464 0134 7379735F 		.ascii	"sys_sem_signal: sane return value\000"
 464      73656D5F 
 464      7369676E 
 464      616C3A20 
 464      73616E65 
 465              		.section	.text.sys_sem_signal,"ax",%progbits
 466              		.align	1
 467              		.global	sys_sem_signal
 468              		.syntax unified
 469              		.thumb
 470              		.thumb_func
 472              	sys_sem_signal:
 473              		@ args = 0, pretend = 0, frame = 16
 474              		@ frame_needed = 1, uses_anonymous_args = 0
 475 0000 80B5     		push	{r7, lr}
 476 0002 84B0     		sub	sp, sp, #16
 477 0004 00AF     		add	r7, sp, #0
 478 0006 7860     		str	r0, [r7, #4]
 479 0008 7B68     		ldr	r3, [r7, #4]
 480 000a 002B     		cmp	r3, #0
 481 000c 06D1     		bne	.L42
 482 000e 154B     		ldr	r3, .L46
 483 0010 40F21312 		movw	r2, #275
 484 0014 1449     		ldr	r1, .L46+4
 485 0016 1548     		ldr	r0, .L46+8
 486 0018 FFF7FEFF 		bl	printf
 487              	.L42:
 488 001c 7B68     		ldr	r3, [r7, #4]
 489 001e 1B68     		ldr	r3, [r3]
ARM GAS  C:\msys64\tmp\ccvCkYBE.s 			page 10


 490 0020 002B     		cmp	r3, #0
 491 0022 06D1     		bne	.L43
 492 0024 0F4B     		ldr	r3, .L46
 493 0026 4FF48A72 		mov	r2, #276
 494 002a 1149     		ldr	r1, .L46+12
 495 002c 0F48     		ldr	r0, .L46+8
 496 002e FFF7FEFF 		bl	printf
 497              	.L43:
 498 0032 7B68     		ldr	r3, [r7, #4]
 499 0034 1868     		ldr	r0, [r3]
 500 0036 0023     		movs	r3, #0
 501 0038 0022     		movs	r2, #0
 502 003a 0021     		movs	r1, #0
 503 003c FFF7FEFF 		bl	xQueueGenericSend
 504 0040 F860     		str	r0, [r7, #12]
 505 0042 FB68     		ldr	r3, [r7, #12]
 506 0044 012B     		cmp	r3, #1
 507 0046 09D0     		beq	.L45
 508 0048 FB68     		ldr	r3, [r7, #12]
 509 004a 002B     		cmp	r3, #0
 510 004c 06D0     		beq	.L45
 511 004e 054B     		ldr	r3, .L46
 512 0050 4FF48C72 		mov	r2, #280
 513 0054 0749     		ldr	r1, .L46+16
 514 0056 0548     		ldr	r0, .L46+8
 515 0058 FFF7FEFF 		bl	printf
 516              	.L45:
 517 005c 00BF     		nop
 518 005e 1037     		adds	r7, r7, #16
 519 0060 BD46     		mov	sp, r7
 520              		@ sp needed
 521 0062 80BD     		pop	{r7, pc}
 522              	.L47:
 523              		.align	2
 524              	.L46:
 525 0064 00000000 		.word	.LC0
 526 0068 CC000000 		.word	.LC6
 527 006c 58000000 		.word	.LC2
 528 0070 20010000 		.word	.LC9
 529 0074 34010000 		.word	.LC10
 531              		.section	.rodata
 532 0156 0000     		.align	2
 533              	.LC11:
 534 0158 74616B69 		.ascii	"taking semaphore failed\000"
 534      6E672073 
 534      656D6170 
 534      686F7265 
 534      20666169 
 535              		.section	.text.sys_arch_sem_wait,"ax",%progbits
 536              		.align	1
 537              		.global	sys_arch_sem_wait
 538              		.syntax unified
 539              		.thumb
 540              		.thumb_func
 542              	sys_arch_sem_wait:
 543              		@ args = 0, pretend = 0, frame = 16
 544              		@ frame_needed = 1, uses_anonymous_args = 0
ARM GAS  C:\msys64\tmp\ccvCkYBE.s 			page 11


 545 0000 80B5     		push	{r7, lr}
 546 0002 84B0     		sub	sp, sp, #16
 547 0004 00AF     		add	r7, sp, #0
 548 0006 7860     		str	r0, [r7, #4]
 549 0008 3960     		str	r1, [r7]
 550 000a 7B68     		ldr	r3, [r7, #4]
 551 000c 002B     		cmp	r3, #0
 552 000e 06D1     		bne	.L49
 553 0010 224B     		ldr	r3, .L55
 554 0012 4FF49072 		mov	r2, #288
 555 0016 2249     		ldr	r1, .L55+4
 556 0018 2248     		ldr	r0, .L55+8
 557 001a FFF7FEFF 		bl	printf
 558              	.L49:
 559 001e 7B68     		ldr	r3, [r7, #4]
 560 0020 1B68     		ldr	r3, [r3]
 561 0022 002B     		cmp	r3, #0
 562 0024 06D1     		bne	.L50
 563 0026 1D4B     		ldr	r3, .L55
 564 0028 40F22112 		movw	r2, #289
 565 002c 1E49     		ldr	r1, .L55+12
 566 002e 1D48     		ldr	r0, .L55+8
 567 0030 FFF7FEFF 		bl	printf
 568              	.L50:
 569 0034 3B68     		ldr	r3, [r7]
 570 0036 002B     		cmp	r3, #0
 571 0038 12D1     		bne	.L51
 572 003a 7B68     		ldr	r3, [r7, #4]
 573 003c 1B68     		ldr	r3, [r3]
 574 003e 4FF0FF31 		mov	r1, #-1
 575 0042 1846     		mov	r0, r3
 576 0044 FFF7FEFF 		bl	xQueueSemaphoreTake
 577 0048 B860     		str	r0, [r7, #8]
 578 004a BB68     		ldr	r3, [r7, #8]
 579 004c 012B     		cmp	r3, #1
 580 004e 20D0     		beq	.L52
 581 0050 124B     		ldr	r3, .L55
 582 0052 4FF49372 		mov	r2, #294
 583 0056 1549     		ldr	r1, .L55+16
 584 0058 1248     		ldr	r0, .L55+8
 585 005a FFF7FEFF 		bl	printf
 586 005e 18E0     		b	.L52
 587              	.L51:
 588 0060 3B68     		ldr	r3, [r7]
 589 0062 FB60     		str	r3, [r7, #12]
 590 0064 7B68     		ldr	r3, [r7, #4]
 591 0066 1B68     		ldr	r3, [r3]
 592 0068 F968     		ldr	r1, [r7, #12]
 593 006a 1846     		mov	r0, r3
 594 006c FFF7FEFF 		bl	xQueueSemaphoreTake
 595 0070 B860     		str	r0, [r7, #8]
 596 0072 BB68     		ldr	r3, [r7, #8]
 597 0074 002B     		cmp	r3, #0
 598 0076 02D1     		bne	.L53
 599 0078 4FF0FF33 		mov	r3, #-1
 600 007c 0AE0     		b	.L54
 601              	.L53:
ARM GAS  C:\msys64\tmp\ccvCkYBE.s 			page 12


 602 007e BB68     		ldr	r3, [r7, #8]
 603 0080 012B     		cmp	r3, #1
 604 0082 06D0     		beq	.L52
 605 0084 054B     		ldr	r3, .L55
 606 0086 4FF49772 		mov	r2, #302
 607 008a 0849     		ldr	r1, .L55+16
 608 008c 0548     		ldr	r0, .L55+8
 609 008e FFF7FEFF 		bl	printf
 610              	.L52:
 611 0092 0123     		movs	r3, #1
 612              	.L54:
 613 0094 1846     		mov	r0, r3
 614 0096 1037     		adds	r7, r7, #16
 615 0098 BD46     		mov	sp, r7
 616              		@ sp needed
 617 009a 80BD     		pop	{r7, pc}
 618              	.L56:
 619              		.align	2
 620              	.L55:
 621 009c 00000000 		.word	.LC0
 622 00a0 CC000000 		.word	.LC6
 623 00a4 58000000 		.word	.LC2
 624 00a8 20010000 		.word	.LC9
 625 00ac 58010000 		.word	.LC11
 627              		.section	.text.sys_sem_free,"ax",%progbits
 628              		.align	1
 629              		.global	sys_sem_free
 630              		.syntax unified
 631              		.thumb
 632              		.thumb_func
 634              	sys_sem_free:
 635              		@ args = 0, pretend = 0, frame = 8
 636              		@ frame_needed = 1, uses_anonymous_args = 0
 637 0000 80B5     		push	{r7, lr}
 638 0002 82B0     		sub	sp, sp, #8
 639 0004 00AF     		add	r7, sp, #0
 640 0006 7860     		str	r0, [r7, #4]
 641 0008 7B68     		ldr	r3, [r7, #4]
 642 000a 002B     		cmp	r3, #0
 643 000c 06D1     		bne	.L58
 644 000e 0F4B     		ldr	r3, .L60
 645 0010 4FF49D72 		mov	r2, #314
 646 0014 0E49     		ldr	r1, .L60+4
 647 0016 0F48     		ldr	r0, .L60+8
 648 0018 FFF7FEFF 		bl	printf
 649              	.L58:
 650 001c 7B68     		ldr	r3, [r7, #4]
 651 001e 1B68     		ldr	r3, [r3]
 652 0020 002B     		cmp	r3, #0
 653 0022 06D1     		bne	.L59
 654 0024 094B     		ldr	r3, .L60
 655 0026 40F23B12 		movw	r2, #315
 656 002a 0B49     		ldr	r1, .L60+12
 657 002c 0948     		ldr	r0, .L60+8
 658 002e FFF7FEFF 		bl	printf
 659              	.L59:
 660 0032 7B68     		ldr	r3, [r7, #4]
ARM GAS  C:\msys64\tmp\ccvCkYBE.s 			page 13


 661 0034 1B68     		ldr	r3, [r3]
 662 0036 1846     		mov	r0, r3
 663 0038 FFF7FEFF 		bl	vQueueDelete
 664 003c 7B68     		ldr	r3, [r7, #4]
 665 003e 0022     		movs	r2, #0
 666 0040 1A60     		str	r2, [r3]
 667 0042 00BF     		nop
 668 0044 0837     		adds	r7, r7, #8
 669 0046 BD46     		mov	sp, r7
 670              		@ sp needed
 671 0048 80BD     		pop	{r7, pc}
 672              	.L61:
 673 004a 00BF     		.align	2
 674              	.L60:
 675 004c 00000000 		.word	.LC0
 676 0050 CC000000 		.word	.LC6
 677 0054 58000000 		.word	.LC2
 678 0058 20010000 		.word	.LC9
 680              		.section	.rodata
 681              		.align	2
 682              	.LC12:
 683 0170 6D626F78 		.ascii	"mbox != NULL\000"
 683      20213D20 
 683      4E554C4C 
 683      00
 684 017d 000000   		.align	2
 685              	.LC13:
 686 0180 73697A65 		.ascii	"size > 0\000"
 686      203E2030 
 686      00
 687              		.section	.text.sys_mbox_new,"ax",%progbits
 688              		.align	1
 689              		.global	sys_mbox_new
 690              		.syntax unified
 691              		.thumb
 692              		.thumb_func
 694              	sys_mbox_new:
 695              		@ args = 0, pretend = 0, frame = 8
 696              		@ frame_needed = 1, uses_anonymous_args = 0
 697 0000 80B5     		push	{r7, lr}
 698 0002 82B0     		sub	sp, sp, #8
 699 0004 00AF     		add	r7, sp, #0
 700 0006 7860     		str	r0, [r7, #4]
 701 0008 3960     		str	r1, [r7]
 702 000a 7B68     		ldr	r3, [r7, #4]
 703 000c 002B     		cmp	r3, #0
 704 000e 06D1     		bne	.L63
 705 0010 124B     		ldr	r3, .L67
 706 0012 40F24512 		movw	r2, #325
 707 0016 1249     		ldr	r1, .L67+4
 708 0018 1248     		ldr	r0, .L67+8
 709 001a FFF7FEFF 		bl	printf
 710              	.L63:
 711 001e 3B68     		ldr	r3, [r7]
 712 0020 002B     		cmp	r3, #0
 713 0022 06DC     		bgt	.L64
 714 0024 0D4B     		ldr	r3, .L67
ARM GAS  C:\msys64\tmp\ccvCkYBE.s 			page 14


 715 0026 4FF4A372 		mov	r2, #326
 716 002a 0F49     		ldr	r1, .L67+12
 717 002c 0D48     		ldr	r0, .L67+8
 718 002e FFF7FEFF 		bl	printf
 719              	.L64:
 720 0032 3B68     		ldr	r3, [r7]
 721 0034 0022     		movs	r2, #0
 722 0036 0421     		movs	r1, #4
 723 0038 1846     		mov	r0, r3
 724 003a FFF7FEFF 		bl	xQueueGenericCreate
 725 003e 0246     		mov	r2, r0
 726 0040 7B68     		ldr	r3, [r7, #4]
 727 0042 1A60     		str	r2, [r3]
 728 0044 7B68     		ldr	r3, [r7, #4]
 729 0046 1B68     		ldr	r3, [r3]
 730 0048 002B     		cmp	r3, #0
 731 004a 02D1     		bne	.L65
 732 004c 4FF0FF33 		mov	r3, #-1
 733 0050 00E0     		b	.L66
 734              	.L65:
 735 0052 0023     		movs	r3, #0
 736              	.L66:
 737 0054 1846     		mov	r0, r3
 738 0056 0837     		adds	r7, r7, #8
 739 0058 BD46     		mov	sp, r7
 740              		@ sp needed
 741 005a 80BD     		pop	{r7, pc}
 742              	.L68:
 743              		.align	2
 744              	.L67:
 745 005c 00000000 		.word	.LC0
 746 0060 70010000 		.word	.LC12
 747 0064 58000000 		.word	.LC2
 748 0068 80010000 		.word	.LC13
 750              		.section	.rodata
 751 0189 000000   		.align	2
 752              	.LC14:
 753 018c 6D626F78 		.ascii	"mbox->mbx != NULL\000"
 753      2D3E6D62 
 753      7820213D 
 753      204E554C 
 753      4C00
 754 019e 0000     		.align	2
 755              	.LC15:
 756 01a0 6D626F78 		.ascii	"mbox post failed\000"
 756      20706F73 
 756      74206661 
 756      696C6564 
 756      00
 757              		.section	.text.sys_mbox_post,"ax",%progbits
 758              		.align	1
 759              		.global	sys_mbox_post
 760              		.syntax unified
 761              		.thumb
 762              		.thumb_func
 764              	sys_mbox_post:
 765              		@ args = 0, pretend = 0, frame = 16
ARM GAS  C:\msys64\tmp\ccvCkYBE.s 			page 15


 766              		@ frame_needed = 1, uses_anonymous_args = 0
 767 0000 80B5     		push	{r7, lr}
 768 0002 84B0     		sub	sp, sp, #16
 769 0004 00AF     		add	r7, sp, #0
 770 0006 7860     		str	r0, [r7, #4]
 771 0008 3960     		str	r1, [r7]
 772 000a 7B68     		ldr	r3, [r7, #4]
 773 000c 002B     		cmp	r3, #0
 774 000e 06D1     		bne	.L70
 775 0010 144B     		ldr	r3, .L74
 776 0012 40F25512 		movw	r2, #341
 777 0016 1449     		ldr	r1, .L74+4
 778 0018 1448     		ldr	r0, .L74+8
 779 001a FFF7FEFF 		bl	printf
 780              	.L70:
 781 001e 7B68     		ldr	r3, [r7, #4]
 782 0020 1B68     		ldr	r3, [r3]
 783 0022 002B     		cmp	r3, #0
 784 0024 06D1     		bne	.L71
 785 0026 0F4B     		ldr	r3, .L74
 786 0028 4FF4AB72 		mov	r2, #342
 787 002c 1049     		ldr	r1, .L74+12
 788 002e 0F48     		ldr	r0, .L74+8
 789 0030 FFF7FEFF 		bl	printf
 790              	.L71:
 791 0034 7B68     		ldr	r3, [r7, #4]
 792 0036 1868     		ldr	r0, [r3]
 793 0038 3946     		mov	r1, r7
 794 003a 0023     		movs	r3, #0
 795 003c 4FF0FF32 		mov	r2, #-1
 796 0040 FFF7FEFF 		bl	xQueueGenericSend
 797 0044 F860     		str	r0, [r7, #12]
 798 0046 FB68     		ldr	r3, [r7, #12]
 799 0048 012B     		cmp	r3, #1
 800 004a 06D0     		beq	.L73
 801 004c 054B     		ldr	r3, .L74
 802 004e 40F25912 		movw	r2, #345
 803 0052 0849     		ldr	r1, .L74+16
 804 0054 0548     		ldr	r0, .L74+8
 805 0056 FFF7FEFF 		bl	printf
 806              	.L73:
 807 005a 00BF     		nop
 808 005c 1037     		adds	r7, r7, #16
 809 005e BD46     		mov	sp, r7
 810              		@ sp needed
 811 0060 80BD     		pop	{r7, pc}
 812              	.L75:
 813 0062 00BF     		.align	2
 814              	.L74:
 815 0064 00000000 		.word	.LC0
 816 0068 70010000 		.word	.LC12
 817 006c 58000000 		.word	.LC2
 818 0070 8C010000 		.word	.LC14
 819 0074 A0010000 		.word	.LC15
 821              		.section	.rodata
 822 01b1 000000   		.align	2
 823              	.LC16:
ARM GAS  C:\msys64\tmp\ccvCkYBE.s 			page 16


 824 01b4 6D626F78 		.ascii	"mbox trypost failed\000"
 824      20747279 
 824      706F7374 
 824      20666169 
 824      6C656400 
 825              		.section	.text.sys_mbox_trypost,"ax",%progbits
 826              		.align	1
 827              		.global	sys_mbox_trypost
 828              		.syntax unified
 829              		.thumb
 830              		.thumb_func
 832              	sys_mbox_trypost:
 833              		@ args = 0, pretend = 0, frame = 16
 834              		@ frame_needed = 1, uses_anonymous_args = 0
 835 0000 80B5     		push	{r7, lr}
 836 0002 84B0     		sub	sp, sp, #16
 837 0004 00AF     		add	r7, sp, #0
 838 0006 7860     		str	r0, [r7, #4]
 839 0008 3960     		str	r1, [r7]
 840 000a 7B68     		ldr	r3, [r7, #4]
 841 000c 002B     		cmp	r3, #0
 842 000e 06D1     		bne	.L77
 843 0010 174B     		ldr	r3, .L82
 844 0012 4FF4B072 		mov	r2, #352
 845 0016 1749     		ldr	r1, .L82+4
 846 0018 1748     		ldr	r0, .L82+8
 847 001a FFF7FEFF 		bl	printf
 848              	.L77:
 849 001e 7B68     		ldr	r3, [r7, #4]
 850 0020 1B68     		ldr	r3, [r3]
 851 0022 002B     		cmp	r3, #0
 852 0024 06D1     		bne	.L78
 853 0026 124B     		ldr	r3, .L82
 854 0028 40F26112 		movw	r2, #353
 855 002c 1349     		ldr	r1, .L82+12
 856 002e 1248     		ldr	r0, .L82+8
 857 0030 FFF7FEFF 		bl	printf
 858              	.L78:
 859 0034 7B68     		ldr	r3, [r7, #4]
 860 0036 1868     		ldr	r0, [r3]
 861 0038 3946     		mov	r1, r7
 862 003a 0023     		movs	r3, #0
 863 003c 0022     		movs	r2, #0
 864 003e FFF7FEFF 		bl	xQueueGenericSend
 865 0042 F860     		str	r0, [r7, #12]
 866 0044 FB68     		ldr	r3, [r7, #12]
 867 0046 012B     		cmp	r3, #1
 868 0048 01D1     		bne	.L79
 869 004a 0023     		movs	r3, #0
 870 004c 0BE0     		b	.L80
 871              	.L79:
 872 004e FB68     		ldr	r3, [r7, #12]
 873 0050 002B     		cmp	r3, #0
 874 0052 06D0     		beq	.L81
 875 0054 064B     		ldr	r3, .L82
 876 0056 40F26712 		movw	r2, #359
 877 005a 0949     		ldr	r1, .L82+16
ARM GAS  C:\msys64\tmp\ccvCkYBE.s 			page 17


 878 005c 0648     		ldr	r0, .L82+8
 879 005e FFF7FEFF 		bl	printf
 880              	.L81:
 881 0062 4FF0FF33 		mov	r3, #-1
 882              	.L80:
 883 0066 1846     		mov	r0, r3
 884 0068 1037     		adds	r7, r7, #16
 885 006a BD46     		mov	sp, r7
 886              		@ sp needed
 887 006c 80BD     		pop	{r7, pc}
 888              	.L83:
 889 006e 00BF     		.align	2
 890              	.L82:
 891 0070 00000000 		.word	.LC0
 892 0074 70010000 		.word	.LC12
 893 0078 58000000 		.word	.LC2
 894 007c 8C010000 		.word	.LC14
 895 0080 B4010000 		.word	.LC16
 897              		.section	.text.sys_mbox_trypost_fromisr,"ax",%progbits
 898              		.align	1
 899              		.global	sys_mbox_trypost_fromisr
 900              		.syntax unified
 901              		.thumb
 902              		.thumb_func
 904              	sys_mbox_trypost_fromisr:
 905              		@ args = 0, pretend = 0, frame = 16
 906              		@ frame_needed = 1, uses_anonymous_args = 0
 907 0000 80B5     		push	{r7, lr}
 908 0002 84B0     		sub	sp, sp, #16
 909 0004 00AF     		add	r7, sp, #0
 910 0006 7860     		str	r0, [r7, #4]
 911 0008 3960     		str	r1, [r7]
 912 000a 0023     		movs	r3, #0
 913 000c BB60     		str	r3, [r7, #8]
 914 000e 7B68     		ldr	r3, [r7, #4]
 915 0010 002B     		cmp	r3, #0
 916 0012 06D1     		bne	.L85
 917 0014 1A4B     		ldr	r3, .L92
 918 0016 4FF4B972 		mov	r2, #370
 919 001a 1A49     		ldr	r1, .L92+4
 920 001c 1A48     		ldr	r0, .L92+8
 921 001e FFF7FEFF 		bl	printf
 922              	.L85:
 923 0022 7B68     		ldr	r3, [r7, #4]
 924 0024 1B68     		ldr	r3, [r3]
 925 0026 002B     		cmp	r3, #0
 926 0028 06D1     		bne	.L86
 927 002a 154B     		ldr	r3, .L92
 928 002c 40F27312 		movw	r2, #371
 929 0030 1649     		ldr	r1, .L92+12
 930 0032 1548     		ldr	r0, .L92+8
 931 0034 FFF7FEFF 		bl	printf
 932              	.L86:
 933 0038 7B68     		ldr	r3, [r7, #4]
 934 003a 1868     		ldr	r0, [r3]
 935 003c 07F10802 		add	r2, r7, #8
 936 0040 3946     		mov	r1, r7
ARM GAS  C:\msys64\tmp\ccvCkYBE.s 			page 18


 937 0042 0023     		movs	r3, #0
 938 0044 FFF7FEFF 		bl	xQueueGenericSendFromISR
 939 0048 F860     		str	r0, [r7, #12]
 940 004a FB68     		ldr	r3, [r7, #12]
 941 004c 012B     		cmp	r3, #1
 942 004e 06D1     		bne	.L87
 943 0050 BB68     		ldr	r3, [r7, #8]
 944 0052 012B     		cmp	r3, #1
 945 0054 01D1     		bne	.L88
 946 0056 7B23     		movs	r3, #123
 947 0058 0DE0     		b	.L91
 948              	.L88:
 949 005a 0023     		movs	r3, #0
 950 005c 0BE0     		b	.L91
 951              	.L87:
 952 005e FB68     		ldr	r3, [r7, #12]
 953 0060 002B     		cmp	r3, #0
 954 0062 06D0     		beq	.L90
 955 0064 064B     		ldr	r3, .L92
 956 0066 4FF4BE72 		mov	r2, #380
 957 006a 0949     		ldr	r1, .L92+16
 958 006c 0648     		ldr	r0, .L92+8
 959 006e FFF7FEFF 		bl	printf
 960              	.L90:
 961 0072 4FF0FF33 		mov	r3, #-1
 962              	.L91:
 963 0076 1846     		mov	r0, r3
 964 0078 1037     		adds	r7, r7, #16
 965 007a BD46     		mov	sp, r7
 966              		@ sp needed
 967 007c 80BD     		pop	{r7, pc}
 968              	.L93:
 969 007e 00BF     		.align	2
 970              	.L92:
 971 0080 00000000 		.word	.LC0
 972 0084 70010000 		.word	.LC12
 973 0088 58000000 		.word	.LC2
 974 008c 8C010000 		.word	.LC14
 975 0090 B4010000 		.word	.LC16
 977              		.section	.rodata
 978              		.align	2
 979              	.LC17:
 980 01c8 6D626F78 		.ascii	"mbox fetch failed\000"
 980      20666574 
 980      63682066 
 980      61696C65 
 980      6400
 981              		.section	.text.sys_arch_mbox_fetch,"ax",%progbits
 982              		.align	1
 983              		.global	sys_arch_mbox_fetch
 984              		.syntax unified
 985              		.thumb
 986              		.thumb_func
 988              	sys_arch_mbox_fetch:
 989              		@ args = 0, pretend = 0, frame = 32
 990              		@ frame_needed = 1, uses_anonymous_args = 0
 991 0000 80B5     		push	{r7, lr}
ARM GAS  C:\msys64\tmp\ccvCkYBE.s 			page 19


 992 0002 88B0     		sub	sp, sp, #32
 993 0004 00AF     		add	r7, sp, #0
 994 0006 F860     		str	r0, [r7, #12]
 995 0008 B960     		str	r1, [r7, #8]
 996 000a 7A60     		str	r2, [r7, #4]
 997 000c FB68     		ldr	r3, [r7, #12]
 998 000e 002B     		cmp	r3, #0
 999 0010 06D1     		bne	.L95
 1000 0012 284B     		ldr	r3, .L103
 1001 0014 40F28712 		movw	r2, #391
 1002 0018 2749     		ldr	r1, .L103+4
 1003 001a 2848     		ldr	r0, .L103+8
 1004 001c FFF7FEFF 		bl	printf
 1005              	.L95:
 1006 0020 FB68     		ldr	r3, [r7, #12]
 1007 0022 1B68     		ldr	r3, [r3]
 1008 0024 002B     		cmp	r3, #0
 1009 0026 06D1     		bne	.L96
 1010 0028 224B     		ldr	r3, .L103
 1011 002a 4FF4C472 		mov	r2, #392
 1012 002e 2449     		ldr	r1, .L103+12
 1013 0030 2248     		ldr	r0, .L103+8
 1014 0032 FFF7FEFF 		bl	printf
 1015              	.L96:
 1016 0036 BB68     		ldr	r3, [r7, #8]
 1017 0038 002B     		cmp	r3, #0
 1018 003a 02D1     		bne	.L97
 1019 003c 07F11403 		add	r3, r7, #20
 1020 0040 BB60     		str	r3, [r7, #8]
 1021              	.L97:
 1022 0042 7B68     		ldr	r3, [r7, #4]
 1023 0044 002B     		cmp	r3, #0
 1024 0046 13D1     		bne	.L98
 1025 0048 FB68     		ldr	r3, [r7, #12]
 1026 004a 1B68     		ldr	r3, [r3]
 1027 004c 4FF0FF32 		mov	r2, #-1
 1028 0050 B968     		ldr	r1, [r7, #8]
 1029 0052 1846     		mov	r0, r3
 1030 0054 FFF7FEFF 		bl	xQueueReceive
 1031 0058 B861     		str	r0, [r7, #24]
 1032 005a BB69     		ldr	r3, [r7, #24]
 1033 005c 012B     		cmp	r3, #1
 1034 005e 24D0     		beq	.L99
 1035 0060 144B     		ldr	r3, .L103
 1036 0062 40F29112 		movw	r2, #401
 1037 0066 1749     		ldr	r1, .L103+16
 1038 0068 1448     		ldr	r0, .L103+8
 1039 006a FFF7FEFF 		bl	printf
 1040 006e 1CE0     		b	.L99
 1041              	.L98:
 1042 0070 7B68     		ldr	r3, [r7, #4]
 1043 0072 FB61     		str	r3, [r7, #28]
 1044 0074 FB68     		ldr	r3, [r7, #12]
 1045 0076 1B68     		ldr	r3, [r3]
 1046 0078 FA69     		ldr	r2, [r7, #28]
 1047 007a B968     		ldr	r1, [r7, #8]
 1048 007c 1846     		mov	r0, r3
ARM GAS  C:\msys64\tmp\ccvCkYBE.s 			page 20


 1049 007e FFF7FEFF 		bl	xQueueReceive
 1050 0082 B861     		str	r0, [r7, #24]
 1051 0084 BB69     		ldr	r3, [r7, #24]
 1052 0086 002B     		cmp	r3, #0
 1053 0088 05D1     		bne	.L100
 1054 008a BB68     		ldr	r3, [r7, #8]
 1055 008c 0022     		movs	r2, #0
 1056 008e 1A60     		str	r2, [r3]
 1057 0090 4FF0FF33 		mov	r3, #-1
 1058 0094 0AE0     		b	.L102
 1059              	.L100:
 1060 0096 BB69     		ldr	r3, [r7, #24]
 1061 0098 012B     		cmp	r3, #1
 1062 009a 06D0     		beq	.L99
 1063 009c 054B     		ldr	r3, .L103
 1064 009e 4FF4CD72 		mov	r2, #410
 1065 00a2 0849     		ldr	r1, .L103+16
 1066 00a4 0548     		ldr	r0, .L103+8
 1067 00a6 FFF7FEFF 		bl	printf
 1068              	.L99:
 1069 00aa 0123     		movs	r3, #1
 1070              	.L102:
 1071 00ac 1846     		mov	r0, r3
 1072 00ae 2037     		adds	r7, r7, #32
 1073 00b0 BD46     		mov	sp, r7
 1074              		@ sp needed
 1075 00b2 80BD     		pop	{r7, pc}
 1076              	.L104:
 1077              		.align	2
 1078              	.L103:
 1079 00b4 00000000 		.word	.LC0
 1080 00b8 70010000 		.word	.LC12
 1081 00bc 58000000 		.word	.LC2
 1082 00c0 8C010000 		.word	.LC14
 1083 00c4 C8010000 		.word	.LC17
 1085              		.section	.text.sys_arch_mbox_tryfetch,"ax",%progbits
 1086              		.align	1
 1087              		.global	sys_arch_mbox_tryfetch
 1088              		.syntax unified
 1089              		.thumb
 1090              		.thumb_func
 1092              	sys_arch_mbox_tryfetch:
 1093              		@ args = 0, pretend = 0, frame = 16
 1094              		@ frame_needed = 1, uses_anonymous_args = 0
 1095 0000 80B5     		push	{r7, lr}
 1096 0002 84B0     		sub	sp, sp, #16
 1097 0004 00AF     		add	r7, sp, #0
 1098 0006 7860     		str	r0, [r7, #4]
 1099 0008 3960     		str	r1, [r7]
 1100 000a 7B68     		ldr	r3, [r7, #4]
 1101 000c 002B     		cmp	r3, #0
 1102 000e 06D1     		bne	.L106
 1103 0010 1B4B     		ldr	r3, .L113
 1104 0012 4FF4D472 		mov	r2, #424
 1105 0016 1B49     		ldr	r1, .L113+4
 1106 0018 1B48     		ldr	r0, .L113+8
 1107 001a FFF7FEFF 		bl	printf
ARM GAS  C:\msys64\tmp\ccvCkYBE.s 			page 21


 1108              	.L106:
 1109 001e 7B68     		ldr	r3, [r7, #4]
 1110 0020 1B68     		ldr	r3, [r3]
 1111 0022 002B     		cmp	r3, #0
 1112 0024 06D1     		bne	.L107
 1113 0026 164B     		ldr	r3, .L113
 1114 0028 40F2A912 		movw	r2, #425
 1115 002c 1749     		ldr	r1, .L113+12
 1116 002e 1648     		ldr	r0, .L113+8
 1117 0030 FFF7FEFF 		bl	printf
 1118              	.L107:
 1119 0034 3B68     		ldr	r3, [r7]
 1120 0036 002B     		cmp	r3, #0
 1121 0038 02D1     		bne	.L108
 1122 003a 07F10803 		add	r3, r7, #8
 1123 003e 3B60     		str	r3, [r7]
 1124              	.L108:
 1125 0040 7B68     		ldr	r3, [r7, #4]
 1126 0042 1B68     		ldr	r3, [r3]
 1127 0044 0022     		movs	r2, #0
 1128 0046 3968     		ldr	r1, [r7]
 1129 0048 1846     		mov	r0, r3
 1130 004a FFF7FEFF 		bl	xQueueReceive
 1131 004e F860     		str	r0, [r7, #12]
 1132 0050 FB68     		ldr	r3, [r7, #12]
 1133 0052 002B     		cmp	r3, #0
 1134 0054 05D1     		bne	.L109
 1135 0056 3B68     		ldr	r3, [r7]
 1136 0058 0022     		movs	r2, #0
 1137 005a 1A60     		str	r2, [r3]
 1138 005c 4FF0FF33 		mov	r3, #-1
 1139 0060 0AE0     		b	.L112
 1140              	.L109:
 1141 0062 FB68     		ldr	r3, [r7, #12]
 1142 0064 012B     		cmp	r3, #1
 1143 0066 06D0     		beq	.L111
 1144 0068 054B     		ldr	r3, .L113
 1145 006a 4FF4DA72 		mov	r2, #436
 1146 006e 0849     		ldr	r1, .L113+16
 1147 0070 0548     		ldr	r0, .L113+8
 1148 0072 FFF7FEFF 		bl	printf
 1149              	.L111:
 1150 0076 0023     		movs	r3, #0
 1151              	.L112:
 1152 0078 1846     		mov	r0, r3
 1153 007a 1037     		adds	r7, r7, #16
 1154 007c BD46     		mov	sp, r7
 1155              		@ sp needed
 1156 007e 80BD     		pop	{r7, pc}
 1157              	.L114:
 1158              		.align	2
 1159              	.L113:
 1160 0080 00000000 		.word	.LC0
 1161 0084 70010000 		.word	.LC12
 1162 0088 58000000 		.word	.LC2
 1163 008c 8C010000 		.word	.LC14
 1164 0090 C8010000 		.word	.LC17
ARM GAS  C:\msys64\tmp\ccvCkYBE.s 			page 22


 1166              		.section	.text.sys_mbox_free,"ax",%progbits
 1167              		.align	1
 1168              		.global	sys_mbox_free
 1169              		.syntax unified
 1170              		.thumb
 1171              		.thumb_func
 1173              	sys_mbox_free:
 1174              		@ args = 0, pretend = 0, frame = 8
 1175              		@ frame_needed = 1, uses_anonymous_args = 0
 1176 0000 80B5     		push	{r7, lr}
 1177 0002 82B0     		sub	sp, sp, #8
 1178 0004 00AF     		add	r7, sp, #0
 1179 0006 7860     		str	r0, [r7, #4]
 1180 0008 7B68     		ldr	r3, [r7, #4]
 1181 000a 002B     		cmp	r3, #0
 1182 000c 06D1     		bne	.L116
 1183 000e 0D4B     		ldr	r3, .L118
 1184 0010 4FF4DE72 		mov	r2, #444
 1185 0014 0C49     		ldr	r1, .L118+4
 1186 0016 0D48     		ldr	r0, .L118+8
 1187 0018 FFF7FEFF 		bl	printf
 1188              	.L116:
 1189 001c 7B68     		ldr	r3, [r7, #4]
 1190 001e 1B68     		ldr	r3, [r3]
 1191 0020 002B     		cmp	r3, #0
 1192 0022 06D1     		bne	.L117
 1193 0024 074B     		ldr	r3, .L118
 1194 0026 40F2BD12 		movw	r2, #445
 1195 002a 0949     		ldr	r1, .L118+12
 1196 002c 0748     		ldr	r0, .L118+8
 1197 002e FFF7FEFF 		bl	printf
 1198              	.L117:
 1199 0032 7B68     		ldr	r3, [r7, #4]
 1200 0034 1B68     		ldr	r3, [r3]
 1201 0036 1846     		mov	r0, r3
 1202 0038 FFF7FEFF 		bl	vQueueDelete
 1203 003c 00BF     		nop
 1204 003e 0837     		adds	r7, r7, #8
 1205 0040 BD46     		mov	sp, r7
 1206              		@ sp needed
 1207 0042 80BD     		pop	{r7, pc}
 1208              	.L119:
 1209              		.align	2
 1210              	.L118:
 1211 0044 00000000 		.word	.LC0
 1212 0048 70010000 		.word	.LC12
 1213 004c 58000000 		.word	.LC2
 1214 0050 8C010000 		.word	.LC14
 1216              		.section	.rodata
 1217 01da 0000     		.align	2
 1218              	.LC18:
 1219 01dc 696E7661 		.ascii	"invalid stacksize\000"
 1219      6C696420 
 1219      73746163 
 1219      6B73697A 
 1219      6500
 1220 01ee 0000     		.align	2
ARM GAS  C:\msys64\tmp\ccvCkYBE.s 			page 23


 1221              	.LC19:
 1222 01f0 7461736B 		.ascii	"task creation failed\000"
 1222      20637265 
 1222      6174696F 
 1222      6E206661 
 1222      696C6564 
 1223              		.section	.text.sys_thread_new,"ax",%progbits
 1224              		.align	1
 1225              		.global	sys_thread_new
 1226              		.syntax unified
 1227              		.thumb
 1228              		.thumb_func
 1230              	sys_thread_new:
 1231              		@ args = 4, pretend = 0, frame = 32
 1232              		@ frame_needed = 1, uses_anonymous_args = 0
 1233 0000 80B5     		push	{r7, lr}
 1234 0002 8AB0     		sub	sp, sp, #40
 1235 0004 02AF     		add	r7, sp, #8
 1236 0006 F860     		str	r0, [r7, #12]
 1237 0008 B960     		str	r1, [r7, #8]
 1238 000a 7A60     		str	r2, [r7, #4]
 1239 000c 3B60     		str	r3, [r7]
 1240 000e 3B68     		ldr	r3, [r7]
 1241 0010 002B     		cmp	r3, #0
 1242 0012 06DC     		bgt	.L121
 1243 0014 134B     		ldr	r3, .L124
 1244 0016 40F2D712 		movw	r2, #471
 1245 001a 1349     		ldr	r1, .L124+4
 1246 001c 1348     		ldr	r0, .L124+8
 1247 001e FFF7FEFF 		bl	printf
 1248              	.L121:
 1249 0022 3B68     		ldr	r3, [r7]
 1250 0024 9B08     		lsrs	r3, r3, #2
 1251 0026 FB61     		str	r3, [r7, #28]
 1252 0028 BB6A     		ldr	r3, [r7, #40]
 1253 002a 07F11402 		add	r2, r7, #20
 1254 002e 0192     		str	r2, [sp, #4]
 1255 0030 0093     		str	r3, [sp]
 1256 0032 7B68     		ldr	r3, [r7, #4]
 1257 0034 FA69     		ldr	r2, [r7, #28]
 1258 0036 F968     		ldr	r1, [r7, #12]
 1259 0038 B868     		ldr	r0, [r7, #8]
 1260 003a FFF7FEFF 		bl	xTaskCreate
 1261 003e B861     		str	r0, [r7, #24]
 1262 0040 BB69     		ldr	r3, [r7, #24]
 1263 0042 012B     		cmp	r3, #1
 1264 0044 06D0     		beq	.L122
 1265 0046 074B     		ldr	r3, .L124
 1266 0048 40F2E112 		movw	r2, #481
 1267 004c 0849     		ldr	r1, .L124+12
 1268 004e 0748     		ldr	r0, .L124+8
 1269 0050 FFF7FEFF 		bl	printf
 1270              	.L122:
 1271 0054 7B69     		ldr	r3, [r7, #20]
 1272 0056 3B61     		str	r3, [r7, #16]
 1273 0058 3B69     		ldr	r3, [r7, #16]
 1274 005a 1846     		mov	r0, r3
ARM GAS  C:\msys64\tmp\ccvCkYBE.s 			page 24


 1275 005c 2037     		adds	r7, r7, #32
 1276 005e BD46     		mov	sp, r7
 1277              		@ sp needed
 1278 0060 80BD     		pop	{r7, pc}
 1279              	.L125:
 1280 0062 00BF     		.align	2
 1281              	.L124:
 1282 0064 00000000 		.word	.LC0
 1283 0068 DC010000 		.word	.LC18
 1284 006c 58000000 		.word	.LC2
 1285 0070 F0010000 		.word	.LC19
 1287              		.ident	"GCC: (GNU) 13.3.0"
ARM GAS  C:\msys64\tmp\ccvCkYBE.s 			page 25

