ARM GAS  C:\msys64\tmp\ccaHBV5m.s 			page 1


   1              		.cpu cortex-m7
   2              		.arch armv7e-m
   3              		.fpu fpv5-sp-d16
   4              		.eabi_attribute 27, 1
   5              		.eabi_attribute 28, 1
   6              		.eabi_attribute 20, 1
   7              		.eabi_attribute 21, 1
   8              		.eabi_attribute 23, 3
   9              		.eabi_attribute 24, 1
  10              		.eabi_attribute 25, 1
  11              		.eabi_attribute 26, 1
  12              		.eabi_attribute 30, 6
  13              		.eabi_attribute 34, 1
  14              		.eabi_attribute 18, 4
  15              		.file	"port.c"
  16              		.text
  17              		.section	.data.uxCriticalNesting,"aw"
  18              		.align	2
  21              	uxCriticalNesting:
  22 0000 AAAAAAAA 		.word	-1431655766
  23              		.section	.bss.ucMaxSysCallPriority,"aw",%nobits
  26              	ucMaxSysCallPriority:
  27 0000 00       		.space	1
  28              		.section	.bss.ulMaxPRIGROUPValue,"aw",%nobits
  29              		.align	2
  32              	ulMaxPRIGROUPValue:
  33 0000 00000000 		.space	4
  34              		.section	.rodata.pcInterruptPriorityRegisters,"a"
  35              		.align	2
  38              	pcInterruptPriorityRegisters:
  39 0000 F0E300E0 		.word	-536812560
  40              		.section	.text.pxPortInitialiseStack,"ax",%progbits
  41              		.align	1
  42              		.global	pxPortInitialiseStack
  43              		.syntax unified
  44              		.thumb
  45              		.thumb_func
  47              	pxPortInitialiseStack:
  48              		@ args = 0, pretend = 0, frame = 16
  49              		@ frame_needed = 1, uses_anonymous_args = 0
  50              		@ link register save eliminated.
  51 0000 80B4     		push	{r7}
  52 0002 85B0     		sub	sp, sp, #20
  53 0004 00AF     		add	r7, sp, #0
  54 0006 F860     		str	r0, [r7, #12]
  55 0008 B960     		str	r1, [r7, #8]
  56 000a 7A60     		str	r2, [r7, #4]
  57 000c FB68     		ldr	r3, [r7, #12]
  58 000e 043B     		subs	r3, r3, #4
  59 0010 FB60     		str	r3, [r7, #12]
  60 0012 FB68     		ldr	r3, [r7, #12]
  61 0014 4FF08072 		mov	r2, #16777216
  62 0018 1A60     		str	r2, [r3]
  63 001a FB68     		ldr	r3, [r7, #12]
  64 001c 043B     		subs	r3, r3, #4
  65 001e FB60     		str	r3, [r7, #12]
  66 0020 BB68     		ldr	r3, [r7, #8]
ARM GAS  C:\msys64\tmp\ccaHBV5m.s 			page 2


  67 0022 23F00102 		bic	r2, r3, #1
  68 0026 FB68     		ldr	r3, [r7, #12]
  69 0028 1A60     		str	r2, [r3]
  70 002a FB68     		ldr	r3, [r7, #12]
  71 002c 043B     		subs	r3, r3, #4
  72 002e FB60     		str	r3, [r7, #12]
  73 0030 0C4A     		ldr	r2, .L3
  74 0032 FB68     		ldr	r3, [r7, #12]
  75 0034 1A60     		str	r2, [r3]
  76 0036 FB68     		ldr	r3, [r7, #12]
  77 0038 143B     		subs	r3, r3, #20
  78 003a FB60     		str	r3, [r7, #12]
  79 003c 7A68     		ldr	r2, [r7, #4]
  80 003e FB68     		ldr	r3, [r7, #12]
  81 0040 1A60     		str	r2, [r3]
  82 0042 FB68     		ldr	r3, [r7, #12]
  83 0044 043B     		subs	r3, r3, #4
  84 0046 FB60     		str	r3, [r7, #12]
  85 0048 FB68     		ldr	r3, [r7, #12]
  86 004a 6FF00202 		mvn	r2, #2
  87 004e 1A60     		str	r2, [r3]
  88 0050 FB68     		ldr	r3, [r7, #12]
  89 0052 203B     		subs	r3, r3, #32
  90 0054 FB60     		str	r3, [r7, #12]
  91 0056 FB68     		ldr	r3, [r7, #12]
  92 0058 1846     		mov	r0, r3
  93 005a 1437     		adds	r7, r7, #20
  94 005c BD46     		mov	sp, r7
  95              		@ sp needed
  96 005e 5DF8047B 		ldr	r7, [sp], #4
  97 0062 7047     		bx	lr
  98              	.L4:
  99              		.align	2
 100              	.L3:
 101 0064 00000000 		.word	prvTaskExitError
 103              		.section	.text.prvTaskExitError,"ax",%progbits
 104              		.align	1
 105              		.syntax unified
 106              		.thumb
 107              		.thumb_func
 109              	prvTaskExitError:
 110              		@ args = 0, pretend = 0, frame = 16
 111              		@ frame_needed = 1, uses_anonymous_args = 0
 112              		@ link register save eliminated.
 113 0000 80B4     		push	{r7}
 114 0002 85B0     		sub	sp, sp, #20
 115 0004 00AF     		add	r7, sp, #0
 116 0006 0023     		movs	r3, #0
 117 0008 7B60     		str	r3, [r7, #4]
 118 000a 154B     		ldr	r3, .L9
 119 000c 1B68     		ldr	r3, [r3]
 120 000e B3F1FF3F 		cmp	r3, #-1
 121 0012 0DD0     		beq	.L6
 122              		.syntax unified
 123              	@ 214 "Middlewares/stm32f746_lwip_withos_porting/FreeRTOS/portable/GCC/ARM_CM7/r0p1/portmacro.h" 1
 124 0014 4FF05003 		   mov r3, #80                                              
 125 0018 72B6     	   cpsid i                                                 
ARM GAS  C:\msys64\tmp\ccaHBV5m.s 			page 3


 126 001a 83F31188 	   msr basepri, r3                                         
 127 001e BFF36F8F 	   isb                                                     
 128 0022 BFF34F8F 	   dsb                                                     
 129 0026 62B6     	   cpsie i                                                 
 130              	
 131              	@ 0 "" 2
 132              		.thumb
 133              		.syntax unified
 134 0028 FB60     		str	r3, [r7, #12]
 135 002a 00BF     		nop
 136              	.L7:
 137 002c 00BF     		nop
 138 002e FDE7     		b	.L7
 139              	.L6:
 140              		.syntax unified
 141              	@ 214 "Middlewares/stm32f746_lwip_withos_porting/FreeRTOS/portable/GCC/ARM_CM7/r0p1/portmacro.h" 1
 142 0030 4FF05003 		   mov r3, #80                                              
 143 0034 72B6     	   cpsid i                                                 
 144 0036 83F31188 	   msr basepri, r3                                         
 145 003a BFF36F8F 	   isb                                                     
 146 003e BFF34F8F 	   dsb                                                     
 147 0042 62B6     	   cpsie i                                                 
 148              	
 149              	@ 0 "" 2
 150              		.thumb
 151              		.syntax unified
 152 0044 BB60     		str	r3, [r7, #8]
 153 0046 00BF     		nop
 154 0048 00BF     		nop
 155              	.L8:
 156 004a 7B68     		ldr	r3, [r7, #4]
 157 004c 002B     		cmp	r3, #0
 158 004e FCD0     		beq	.L8
 159 0050 00BF     		nop
 160 0052 00BF     		nop
 161 0054 1437     		adds	r7, r7, #20
 162 0056 BD46     		mov	sp, r7
 163              		@ sp needed
 164 0058 5DF8047B 		ldr	r7, [sp], #4
 165 005c 7047     		bx	lr
 166              	.L10:
 167 005e 00BF     		.align	2
 168              	.L9:
 169 0060 00000000 		.word	uxCriticalNesting
 171              		.section	.text.SVC_Handler,"ax",%progbits
 172              		.align	1
 173              		.global	SVC_Handler
 174              		.syntax unified
 175              		.thumb
 176              		.thumb_func
 178              	SVC_Handler:
 179              		@ Naked Function: prologue and epilogue provided by programmer.
 180              		@ args = 0, pretend = 0, frame = 0
 181              		@ frame_needed = 1, uses_anonymous_args = 0
 182              		.syntax unified
 183              	@ 256 "Middlewares/stm32f746_lwip_withos_porting/FreeRTOS/portable/GCC/ARM_CM7/r0p1/port.c" 1
 184 0000 064B     		   ldr r3, =pxCurrentTCB           
ARM GAS  C:\msys64\tmp\ccaHBV5m.s 			page 4


 185 0002 1968     	   ldr r1, [r3]                    
 186 0004 0868     	   ldr r0, [r1]                    
 187 0006 B0E8F04F 	   ldmia r0!, {r4-r11, r14}        
 188 000a 80F30988 	   msr psp, r0                     
 189 000e BFF36F8F 	   isb                             
 190 0012 4FF00000 	   mov r0, #0                      
 191 0016 80F31188 	   msr basepri, r0                 
 192 001a 7047     	   bx r14                          
 193              	                                   
 194 001c 00000000 	   .ltorg                          
 195              	
 196              	@ 0 "" 2
 197              		.thumb
 198              		.syntax unified
 199 0020 00BF     		nop
 201 0022 00BF     		.section	.text.prvPortStartFirstTask,"ax",%progbits
 202              		.align	1
 203              		.syntax unified
 204              		.thumb
 205              		.thumb_func
 207              	prvPortStartFirstTask:
 208              		@ Naked Function: prologue and epilogue provided by programmer.
 209              		@ args = 0, pretend = 0, frame = 0
 210              		@ frame_needed = 1, uses_anonymous_args = 0
 211              		.syntax unified
 212              	@ 278 "Middlewares/stm32f746_lwip_withos_porting/FreeRTOS/portable/GCC/ARM_CM7/r0p1/port.c" 1
 213 0000 0848     		 ldr r0, =0xE000ED08   
 214 0002 0068     	 ldr r0, [r0]          
 215 0004 0068     	 ldr r0, [r0]          
 216 0006 80F30888 	 msr msp, r0           
 217 000a 4FF00000 	 mov r0, #0            
 218 000e 80F31488 	 msr control, r0       
 219 0012 62B6     	 cpsie i               
 220 0014 61B6     	 cpsie f               
 221 0016 BFF34F8F 	 dsb                   
 222 001a BFF36F8F 	 isb                   
 223 001e 00DF     	 svc 0                 
 224 0020 00BF     	 nop                   
 225 0022 000008ED 	 .ltorg                
 225      00E0
 226              	
 227              	@ 0 "" 2
 228              		.thumb
 229              		.syntax unified
 230 0028 00BF     		nop
 232 002a 00BF     		.section	.text.xPortStartScheduler,"ax",%progbits
 233              		.align	1
 234              		.global	xPortStartScheduler
 235              		.syntax unified
 236              		.thumb
 237              		.thumb_func
 239              	xPortStartScheduler:
 240              		@ args = 0, pretend = 0, frame = 40
 241              		@ frame_needed = 1, uses_anonymous_args = 0
 242 0000 80B5     		push	{r7, lr}
 243 0002 8AB0     		sub	sp, sp, #40
 244 0004 00AF     		add	r7, sp, #0
ARM GAS  C:\msys64\tmp\ccaHBV5m.s 			page 5


 245 0006 5C4B     		ldr	r3, .L27
 246 0008 1B68     		ldr	r3, [r3]
 247 000a 7B62     		str	r3, [r7, #36]
 248 000c 7B6A     		ldr	r3, [r7, #36]
 249 000e 2C33     		adds	r3, r3, #44
 250 0010 1B68     		ldr	r3, [r3]
 251 0012 5A4A     		ldr	r2, .L27+4
 252 0014 9342     		cmp	r3, r2
 253 0016 0DD0     		beq	.L14
 254              		.syntax unified
 255              	@ 214 "Middlewares/stm32f746_lwip_withos_porting/FreeRTOS/portable/GCC/ARM_CM7/r0p1/portmacro.h" 1
 256 0018 4FF05003 		   mov r3, #80                                              
 257 001c 72B6     	   cpsid i                                                 
 258 001e 83F31188 	   msr basepri, r3                                         
 259 0022 BFF36F8F 	   isb                                                     
 260 0026 BFF34F8F 	   dsb                                                     
 261 002a 62B6     	   cpsie i                                                 
 262              	
 263              	@ 0 "" 2
 264              		.thumb
 265              		.syntax unified
 266 002c BB61     		str	r3, [r7, #24]
 267 002e 00BF     		nop
 268              	.L15:
 269 0030 00BF     		nop
 270 0032 FDE7     		b	.L15
 271              	.L14:
 272 0034 7B6A     		ldr	r3, [r7, #36]
 273 0036 3833     		adds	r3, r3, #56
 274 0038 1B68     		ldr	r3, [r3]
 275 003a 514A     		ldr	r2, .L27+8
 276 003c 9342     		cmp	r3, r2
 277 003e 0DD0     		beq	.L16
 278              		.syntax unified
 279              	@ 214 "Middlewares/stm32f746_lwip_withos_porting/FreeRTOS/portable/GCC/ARM_CM7/r0p1/portmacro.h" 1
 280 0040 4FF05003 		   mov r3, #80                                              
 281 0044 72B6     	   cpsid i                                                 
 282 0046 83F31188 	   msr basepri, r3                                         
 283 004a BFF36F8F 	   isb                                                     
 284 004e BFF34F8F 	   dsb                                                     
 285 0052 62B6     	   cpsie i                                                 
 286              	
 287              	@ 0 "" 2
 288              		.thumb
 289              		.syntax unified
 290 0054 FB61     		str	r3, [r7, #28]
 291 0056 00BF     		nop
 292              	.L17:
 293 0058 00BF     		nop
 294 005a FDE7     		b	.L17
 295              	.L16:
 296 005c 0023     		movs	r3, #0
 297 005e BB60     		str	r3, [r7, #8]
 298 0060 484B     		ldr	r3, .L27+12
 299 0062 3B62     		str	r3, [r7, #32]
 300 0064 3B6A     		ldr	r3, [r7, #32]
 301 0066 1B78     		ldrb	r3, [r3]
ARM GAS  C:\msys64\tmp\ccaHBV5m.s 			page 6


 302 0068 DBB2     		uxtb	r3, r3
 303 006a FB73     		strb	r3, [r7, #15]
 304 006c 3B6A     		ldr	r3, [r7, #32]
 305 006e FF22     		movs	r2, #255
 306 0070 1A70     		strb	r2, [r3]
 307 0072 3B6A     		ldr	r3, [r7, #32]
 308 0074 1B78     		ldrb	r3, [r3]
 309 0076 DBB2     		uxtb	r3, r3
 310 0078 FB71     		strb	r3, [r7, #7]
 311 007a FB79     		ldrb	r3, [r7, #7]
 312 007c DBB2     		uxtb	r3, r3
 313 007e 03F05003 		and	r3, r3, #80
 314 0082 DAB2     		uxtb	r2, r3
 315 0084 404B     		ldr	r3, .L27+16
 316 0086 1A70     		strb	r2, [r3]
 317 0088 3F4B     		ldr	r3, .L27+16
 318 008a 1B78     		ldrb	r3, [r3]	@ zero_extendqisi2
 319 008c 002B     		cmp	r3, #0
 320 008e 0DD1     		bne	.L18
 321              		.syntax unified
 322              	@ 214 "Middlewares/stm32f746_lwip_withos_porting/FreeRTOS/portable/GCC/ARM_CM7/r0p1/portmacro.h" 1
 323 0090 4FF05003 		   mov r3, #80                                              
 324 0094 72B6     	   cpsid i                                                 
 325 0096 83F31188 	   msr basepri, r3                                         
 326 009a BFF36F8F 	   isb                                                     
 327 009e BFF34F8F 	   dsb                                                     
 328 00a2 62B6     	   cpsie i                                                 
 329              	
 330              	@ 0 "" 2
 331              		.thumb
 332              		.syntax unified
 333 00a4 7B61     		str	r3, [r7, #20]
 334 00a6 00BF     		nop
 335              	.L19:
 336 00a8 00BF     		nop
 337 00aa FDE7     		b	.L19
 338              	.L18:
 339 00ac FB79     		ldrb	r3, [r7, #7]
 340 00ae DBB2     		uxtb	r3, r3
 341 00b0 DB43     		mvns	r3, r3
 342 00b2 03F05003 		and	r3, r3, #80
 343 00b6 002B     		cmp	r3, #0
 344 00b8 15D0     		beq	.L22
 345              		.syntax unified
 346              	@ 214 "Middlewares/stm32f746_lwip_withos_porting/FreeRTOS/portable/GCC/ARM_CM7/r0p1/portmacro.h" 1
 347 00ba 4FF05003 		   mov r3, #80                                              
 348 00be 72B6     	   cpsid i                                                 
 349 00c0 83F31188 	   msr basepri, r3                                         
 350 00c4 BFF36F8F 	   isb                                                     
 351 00c8 BFF34F8F 	   dsb                                                     
 352 00cc 62B6     	   cpsie i                                                 
 353              	
 354              	@ 0 "" 2
 355              		.thumb
 356              		.syntax unified
 357 00ce 3B61     		str	r3, [r7, #16]
 358 00d0 00BF     		nop
ARM GAS  C:\msys64\tmp\ccaHBV5m.s 			page 7


 359              	.L21:
 360 00d2 00BF     		nop
 361 00d4 FDE7     		b	.L21
 362              	.L23:
 363 00d6 BB68     		ldr	r3, [r7, #8]
 364 00d8 0133     		adds	r3, r3, #1
 365 00da BB60     		str	r3, [r7, #8]
 366 00dc FB79     		ldrb	r3, [r7, #7]
 367 00de DBB2     		uxtb	r3, r3
 368 00e0 5B00     		lsls	r3, r3, #1
 369 00e2 DBB2     		uxtb	r3, r3
 370 00e4 FB71     		strb	r3, [r7, #7]
 371              	.L22:
 372 00e6 FB79     		ldrb	r3, [r7, #7]
 373 00e8 DBB2     		uxtb	r3, r3
 374 00ea 03F08003 		and	r3, r3, #128
 375 00ee 802B     		cmp	r3, #128
 376 00f0 F1D0     		beq	.L23
 377 00f2 BB68     		ldr	r3, [r7, #8]
 378 00f4 082B     		cmp	r3, #8
 379 00f6 03D1     		bne	.L24
 380 00f8 244B     		ldr	r3, .L27+20
 381 00fa 0022     		movs	r2, #0
 382 00fc 1A60     		str	r2, [r3]
 383 00fe 04E0     		b	.L25
 384              	.L24:
 385 0100 BB68     		ldr	r3, [r7, #8]
 386 0102 C3F10703 		rsb	r3, r3, #7
 387 0106 214A     		ldr	r2, .L27+20
 388 0108 1360     		str	r3, [r2]
 389              	.L25:
 390 010a 204B     		ldr	r3, .L27+20
 391 010c 1B68     		ldr	r3, [r3]
 392 010e 1B02     		lsls	r3, r3, #8
 393 0110 1E4A     		ldr	r2, .L27+20
 394 0112 1360     		str	r3, [r2]
 395 0114 1D4B     		ldr	r3, .L27+20
 396 0116 1B68     		ldr	r3, [r3]
 397 0118 03F4E063 		and	r3, r3, #1792
 398 011c 1B4A     		ldr	r2, .L27+20
 399 011e 1360     		str	r3, [r2]
 400 0120 FB7B     		ldrb	r3, [r7, #15]
 401 0122 DAB2     		uxtb	r2, r3
 402 0124 3B6A     		ldr	r3, [r7, #32]
 403 0126 1A70     		strb	r2, [r3]
 404 0128 194B     		ldr	r3, .L27+24
 405 012a 1B68     		ldr	r3, [r3]
 406 012c 184A     		ldr	r2, .L27+24
 407 012e 43F47F03 		orr	r3, r3, #16711680
 408 0132 1360     		str	r3, [r2]
 409 0134 164B     		ldr	r3, .L27+24
 410 0136 1B68     		ldr	r3, [r3]
 411 0138 154A     		ldr	r2, .L27+24
 412 013a 43F07F43 		orr	r3, r3, #-16777216
 413 013e 1360     		str	r3, [r2]
 414 0140 144B     		ldr	r3, .L27+28
 415 0142 0022     		movs	r2, #0
ARM GAS  C:\msys64\tmp\ccaHBV5m.s 			page 8


 416 0144 1A60     		str	r2, [r3]
 417 0146 FFF7FEFF 		bl	vPortSetupTimerInterrupt
 418 014a 134B     		ldr	r3, .L27+32
 419 014c 0022     		movs	r2, #0
 420 014e 1A60     		str	r2, [r3]
 421 0150 FFF7FEFF 		bl	vPortEnableVFP
 422 0154 114B     		ldr	r3, .L27+36
 423 0156 1B68     		ldr	r3, [r3]
 424 0158 104A     		ldr	r2, .L27+36
 425 015a 43F04043 		orr	r3, r3, #-1073741824
 426 015e 1360     		str	r3, [r2]
 427 0160 FFF7FEFF 		bl	prvPortStartFirstTask
 428 0164 FFF7FEFF 		bl	vTaskSwitchContext
 429 0168 FFF7FEFF 		bl	prvTaskExitError
 430 016c 0023     		movs	r3, #0
 431 016e 1846     		mov	r0, r3
 432 0170 2837     		adds	r7, r7, #40
 433 0172 BD46     		mov	sp, r7
 434              		@ sp needed
 435 0174 80BD     		pop	{r7, pc}
 436              	.L28:
 437 0176 00BF     		.align	2
 438              	.L27:
 439 0178 08ED00E0 		.word	-536810232
 440 017c 00000000 		.word	SVC_Handler
 441 0180 00000000 		.word	PendSV_Handler
 442 0184 00E400E0 		.word	-536812544
 443 0188 00000000 		.word	ucMaxSysCallPriority
 444 018c 00000000 		.word	ulMaxPRIGROUPValue
 445 0190 20ED00E0 		.word	-536810208
 446 0194 1CED00E0 		.word	-536810212
 447 0198 00000000 		.word	uxCriticalNesting
 448 019c 34EF00E0 		.word	-536809676
 450              		.section	.text.vPortEndScheduler,"ax",%progbits
 451              		.align	1
 452              		.global	vPortEndScheduler
 453              		.syntax unified
 454              		.thumb
 455              		.thumb_func
 457              	vPortEndScheduler:
 458              		@ args = 0, pretend = 0, frame = 8
 459              		@ frame_needed = 1, uses_anonymous_args = 0
 460              		@ link register save eliminated.
 461 0000 80B4     		push	{r7}
 462 0002 83B0     		sub	sp, sp, #12
 463 0004 00AF     		add	r7, sp, #0
 464 0006 0C4B     		ldr	r3, .L33
 465 0008 1B68     		ldr	r3, [r3]
 466 000a B3F57A7F 		cmp	r3, #1000
 467 000e 0DD0     		beq	.L32
 468              		.syntax unified
 469              	@ 214 "Middlewares/stm32f746_lwip_withos_porting/FreeRTOS/portable/GCC/ARM_CM7/r0p1/portmacro.h" 1
 470 0010 4FF05003 		   mov r3, #80                                              
 471 0014 72B6     	   cpsid i                                                 
 472 0016 83F31188 	   msr basepri, r3                                         
 473 001a BFF36F8F 	   isb                                                     
 474 001e BFF34F8F 	   dsb                                                     
ARM GAS  C:\msys64\tmp\ccaHBV5m.s 			page 9


 475 0022 62B6     	   cpsie i                                                 
 476              	
 477              	@ 0 "" 2
 478              		.thumb
 479              		.syntax unified
 480 0024 7B60     		str	r3, [r7, #4]
 481 0026 00BF     		nop
 482              	.L31:
 483 0028 00BF     		nop
 484 002a FDE7     		b	.L31
 485              	.L32:
 486 002c 00BF     		nop
 487 002e 0C37     		adds	r7, r7, #12
 488 0030 BD46     		mov	sp, r7
 489              		@ sp needed
 490 0032 5DF8047B 		ldr	r7, [sp], #4
 491 0036 7047     		bx	lr
 492              	.L34:
 493              		.align	2
 494              	.L33:
 495 0038 00000000 		.word	uxCriticalNesting
 497              		.section	.text.vPortEnterCritical,"ax",%progbits
 498              		.align	1
 499              		.global	vPortEnterCritical
 500              		.syntax unified
 501              		.thumb
 502              		.thumb_func
 504              	vPortEnterCritical:
 505              		@ args = 0, pretend = 0, frame = 8
 506              		@ frame_needed = 1, uses_anonymous_args = 0
 507              		@ link register save eliminated.
 508 0000 80B4     		push	{r7}
 509 0002 83B0     		sub	sp, sp, #12
 510 0004 00AF     		add	r7, sp, #0
 511              		.syntax unified
 512              	@ 214 "Middlewares/stm32f746_lwip_withos_porting/FreeRTOS/portable/GCC/ARM_CM7/r0p1/portmacro.h" 1
 513 0006 4FF05003 		   mov r3, #80                                              
 514 000a 72B6     	   cpsid i                                                 
 515 000c 83F31188 	   msr basepri, r3                                         
 516 0010 BFF36F8F 	   isb                                                     
 517 0014 BFF34F8F 	   dsb                                                     
 518 0018 62B6     	   cpsie i                                                 
 519              	
 520              	@ 0 "" 2
 521              		.thumb
 522              		.syntax unified
 523 001a 7B60     		str	r3, [r7, #4]
 524 001c 00BF     		nop
 525 001e 114B     		ldr	r3, .L39
 526 0020 1B68     		ldr	r3, [r3]
 527 0022 0133     		adds	r3, r3, #1
 528 0024 0F4A     		ldr	r2, .L39
 529 0026 1360     		str	r3, [r2]
 530 0028 0E4B     		ldr	r3, .L39
 531 002a 1B68     		ldr	r3, [r3]
 532 002c 012B     		cmp	r3, #1
 533 002e 12D1     		bne	.L38
ARM GAS  C:\msys64\tmp\ccaHBV5m.s 			page 10


 534 0030 0D4B     		ldr	r3, .L39+4
 535 0032 1B68     		ldr	r3, [r3]
 536 0034 DBB2     		uxtb	r3, r3
 537 0036 002B     		cmp	r3, #0
 538 0038 0DD0     		beq	.L38
 539              		.syntax unified
 540              	@ 214 "Middlewares/stm32f746_lwip_withos_porting/FreeRTOS/portable/GCC/ARM_CM7/r0p1/portmacro.h" 1
 541 003a 4FF05003 		   mov r3, #80                                              
 542 003e 72B6     	   cpsid i                                                 
 543 0040 83F31188 	   msr basepri, r3                                         
 544 0044 BFF36F8F 	   isb                                                     
 545 0048 BFF34F8F 	   dsb                                                     
 546 004c 62B6     	   cpsie i                                                 
 547              	
 548              	@ 0 "" 2
 549              		.thumb
 550              		.syntax unified
 551 004e 3B60     		str	r3, [r7]
 552 0050 00BF     		nop
 553              	.L37:
 554 0052 00BF     		nop
 555 0054 FDE7     		b	.L37
 556              	.L38:
 557 0056 00BF     		nop
 558 0058 0C37     		adds	r7, r7, #12
 559 005a BD46     		mov	sp, r7
 560              		@ sp needed
 561 005c 5DF8047B 		ldr	r7, [sp], #4
 562 0060 7047     		bx	lr
 563              	.L40:
 564 0062 00BF     		.align	2
 565              	.L39:
 566 0064 00000000 		.word	uxCriticalNesting
 567 0068 04ED00E0 		.word	-536810236
 569              		.section	.text.vPortExitCritical,"ax",%progbits
 570              		.align	1
 571              		.global	vPortExitCritical
 572              		.syntax unified
 573              		.thumb
 574              		.thumb_func
 576              	vPortExitCritical:
 577              		@ args = 0, pretend = 0, frame = 8
 578              		@ frame_needed = 1, uses_anonymous_args = 0
 579              		@ link register save eliminated.
 580 0000 80B4     		push	{r7}
 581 0002 83B0     		sub	sp, sp, #12
 582 0004 00AF     		add	r7, sp, #0
 583 0006 134B     		ldr	r3, .L46
 584 0008 1B68     		ldr	r3, [r3]
 585 000a 002B     		cmp	r3, #0
 586 000c 0DD1     		bne	.L42
 587              		.syntax unified
 588              	@ 214 "Middlewares/stm32f746_lwip_withos_porting/FreeRTOS/portable/GCC/ARM_CM7/r0p1/portmacro.h" 1
 589 000e 4FF05003 		   mov r3, #80                                              
 590 0012 72B6     	   cpsid i                                                 
 591 0014 83F31188 	   msr basepri, r3                                         
 592 0018 BFF36F8F 	   isb                                                     
ARM GAS  C:\msys64\tmp\ccaHBV5m.s 			page 11


 593 001c BFF34F8F 	   dsb                                                     
 594 0020 62B6     	   cpsie i                                                 
 595              	
 596              	@ 0 "" 2
 597              		.thumb
 598              		.syntax unified
 599 0022 7B60     		str	r3, [r7, #4]
 600 0024 00BF     		nop
 601              	.L43:
 602 0026 00BF     		nop
 603 0028 FDE7     		b	.L43
 604              	.L42:
 605 002a 0A4B     		ldr	r3, .L46
 606 002c 1B68     		ldr	r3, [r3]
 607 002e 013B     		subs	r3, r3, #1
 608 0030 084A     		ldr	r2, .L46
 609 0032 1360     		str	r3, [r2]
 610 0034 074B     		ldr	r3, .L46
 611 0036 1B68     		ldr	r3, [r3]
 612 0038 002B     		cmp	r3, #0
 613 003a 05D1     		bne	.L45
 614 003c 0023     		movs	r3, #0
 615 003e 3B60     		str	r3, [r7]
 616 0040 3B68     		ldr	r3, [r7]
 617              		.syntax unified
 618              	@ 252 "Middlewares/stm32f746_lwip_withos_porting/FreeRTOS/portable/GCC/ARM_CM7/r0p1/portmacro.h" 1
 619 0042 83F31188 		   msr basepri, r3 
 620              	@ 0 "" 2
 621              		.thumb
 622              		.syntax unified
 623 0046 00BF     		nop
 624              	.L45:
 625 0048 00BF     		nop
 626 004a 0C37     		adds	r7, r7, #12
 627 004c BD46     		mov	sp, r7
 628              		@ sp needed
 629 004e 5DF8047B 		ldr	r7, [sp], #4
 630 0052 7047     		bx	lr
 631              	.L47:
 632              		.align	2
 633              	.L46:
 634 0054 00000000 		.word	uxCriticalNesting
 636              		.section	.text.PendSV_Handler,"ax",%progbits
 637              		.align	1
 638              		.global	PendSV_Handler
 639              		.syntax unified
 640              		.thumb
 641              		.thumb_func
 643              	PendSV_Handler:
 644              		@ Naked Function: prologue and epilogue provided by programmer.
 645              		@ args = 0, pretend = 0, frame = 0
 646              		@ frame_needed = 1, uses_anonymous_args = 0
 647              		.syntax unified
 648              	@ 496 "Middlewares/stm32f746_lwip_withos_porting/FreeRTOS/portable/GCC/ARM_CM7/r0p1/port.c" 1
 649 0000 EFF30980 		   mrs r0, psp                         
 650 0004 BFF36F8F 	   isb                                 
 651              	                                       
ARM GAS  C:\msys64\tmp\ccaHBV5m.s 			page 12


 652 0008 144B     	   ldr r3, =pxCurrentTCB               
 653 000a 1A68     	   ldr r2, [r3]                        
 654              	                                       
 655 000c 1EF0100F 	   tst r14, #0x10                      
 656 0010 08BF     	   it eq                               
 657 0012 20ED108A 	   vstmdbeq r0!, {s16-s31}             
 658              	                                       
 659 0016 20E9F04F 	   stmdb r0!, {r4-r11, r14}            
 660 001a 1060     	   str r0, [r2]                        
 661              	                                       
 662 001c 09B4     	   stmdb sp!, {r0, r3}                 
 663 001e 4FF05000 	   mov r0, #80                          
 664 0022 72B6     	   cpsid i                             
 665 0024 80F31188 	   msr basepri, r0                     
 666 0028 BFF34F8F 	   dsb                                 
 667 002c BFF36F8F 	   isb                                 
 668 0030 62B6     	   cpsie i                             
 669 0032 FFF7FEFF 	   bl vTaskSwitchContext               
 670 0036 4FF00000 	   mov r0, #0                          
 671 003a 80F31188 	   msr basepri, r0                     
 672 003e 09BC     	   ldmia sp!, {r0, r3}                 
 673              	                                       
 674 0040 1968     	   ldr r1, [r3]                        
 675 0042 0868     	   ldr r0, [r1]                        
 676              	                                       
 677 0044 B0E8F04F 	   ldmia r0!, {r4-r11, r14}            
 678              	                                       
 679 0048 1EF0100F 	   tst r14, #0x10                      
 680 004c 08BF     	   it eq                               
 681 004e B0EC108A 	   vldmiaeq r0!, {s16-s31}             
 682              	                                       
 683 0052 80F30988 	   msr psp, r0                         
 684 0056 BFF36F8F 	   isb                                 
 685              	                                       
 686              	                                       
 687 005a 7047     	   bx r14                              
 688              	                                       
 689 005c 00000000 	   .ltorg                              
 690              	
 691              	@ 0 "" 2
 692              		.thumb
 693              		.syntax unified
 694 0060 00BF     		nop
 696 0062 00BF     		.section	.text.SysTick_Handler,"ax",%progbits
 697              		.align	1
 698              		.global	SysTick_Handler
 699              		.syntax unified
 700              		.thumb
 701              		.thumb_func
 703              	SysTick_Handler:
 704              		@ args = 0, pretend = 0, frame = 8
 705              		@ frame_needed = 1, uses_anonymous_args = 0
 706 0000 80B5     		push	{r7, lr}
 707 0002 82B0     		sub	sp, sp, #8
 708 0004 00AF     		add	r7, sp, #0
 709              		.syntax unified
 710              	@ 214 "Middlewares/stm32f746_lwip_withos_porting/FreeRTOS/portable/GCC/ARM_CM7/r0p1/portmacro.h" 1
ARM GAS  C:\msys64\tmp\ccaHBV5m.s 			page 13


 711 0006 4FF05003 		   mov r3, #80                                              
 712 000a 72B6     	   cpsid i                                                 
 713 000c 83F31188 	   msr basepri, r3                                         
 714 0010 BFF36F8F 	   isb                                                     
 715 0014 BFF34F8F 	   dsb                                                     
 716 0018 62B6     	   cpsie i                                                 
 717              	
 718              	@ 0 "" 2
 719              		.thumb
 720              		.syntax unified
 721 001a 7B60     		str	r3, [r7, #4]
 722 001c 00BF     		nop
 723 001e FFF7FEFF 		bl	xTaskIncrementTick
 724 0022 0346     		mov	r3, r0
 725 0024 002B     		cmp	r3, #0
 726 0026 03D0     		beq	.L50
 727 0028 064B     		ldr	r3, .L51
 728 002a 4FF08052 		mov	r2, #268435456
 729 002e 1A60     		str	r2, [r3]
 730              	.L50:
 731 0030 0023     		movs	r3, #0
 732 0032 3B60     		str	r3, [r7]
 733 0034 3B68     		ldr	r3, [r7]
 734              		.syntax unified
 735              	@ 252 "Middlewares/stm32f746_lwip_withos_porting/FreeRTOS/portable/GCC/ARM_CM7/r0p1/portmacro.h" 1
 736 0036 83F31188 		   msr basepri, r3 
 737              	@ 0 "" 2
 738              		.thumb
 739              		.syntax unified
 740 003a 00BF     		nop
 741 003c 00BF     		nop
 742 003e 0837     		adds	r7, r7, #8
 743 0040 BD46     		mov	sp, r7
 744              		@ sp needed
 745 0042 80BD     		pop	{r7, pc}
 746              	.L52:
 747              		.align	2
 748              	.L51:
 749 0044 04ED00E0 		.word	-536810236
 751              		.section	.text.vPortSetupTimerInterrupt,"ax",%progbits
 752              		.align	1
 753              		.weak	vPortSetupTimerInterrupt
 754              		.syntax unified
 755              		.thumb
 756              		.thumb_func
 758              	vPortSetupTimerInterrupt:
 759              		@ args = 0, pretend = 0, frame = 0
 760              		@ frame_needed = 1, uses_anonymous_args = 0
 761              		@ link register save eliminated.
 762 0000 80B4     		push	{r7}
 763 0002 00AF     		add	r7, sp, #0
 764 0004 0B4B     		ldr	r3, .L54
 765 0006 0022     		movs	r2, #0
 766 0008 1A60     		str	r2, [r3]
 767 000a 0B4B     		ldr	r3, .L54+4
 768 000c 0022     		movs	r2, #0
 769 000e 1A60     		str	r2, [r3]
ARM GAS  C:\msys64\tmp\ccaHBV5m.s 			page 14


 770 0010 0A4B     		ldr	r3, .L54+8
 771 0012 1B68     		ldr	r3, [r3]
 772 0014 0A4A     		ldr	r2, .L54+12
 773 0016 A2FB0323 		umull	r2, r3, r2, r3
 774 001a 9B09     		lsrs	r3, r3, #6
 775 001c 094A     		ldr	r2, .L54+16
 776 001e 013B     		subs	r3, r3, #1
 777 0020 1360     		str	r3, [r2]
 778 0022 044B     		ldr	r3, .L54
 779 0024 0722     		movs	r2, #7
 780 0026 1A60     		str	r2, [r3]
 781 0028 00BF     		nop
 782 002a BD46     		mov	sp, r7
 783              		@ sp needed
 784 002c 5DF8047B 		ldr	r7, [sp], #4
 785 0030 7047     		bx	lr
 786              	.L55:
 787 0032 00BF     		.align	2
 788              	.L54:
 789 0034 10E000E0 		.word	-536813552
 790 0038 18E000E0 		.word	-536813544
 791 003c 00000000 		.word	SystemCoreClock
 792 0040 D34D6210 		.word	274877907
 793 0044 14E000E0 		.word	-536813548
 795              		.section	.text.vPortEnableVFP,"ax",%progbits
 796              		.align	1
 797              		.syntax unified
 798              		.thumb
 799              		.thumb_func
 801              	vPortEnableVFP:
 802              		@ Naked Function: prologue and epilogue provided by programmer.
 803              		@ args = 0, pretend = 0, frame = 0
 804              		@ frame_needed = 1, uses_anonymous_args = 0
 805              		.syntax unified
 806              	@ 826 "Middlewares/stm32f746_lwip_withos_porting/FreeRTOS/portable/GCC/ARM_CM7/r0p1/port.c" 1
 807 0000 DFF80C00 		   ldr.w r0, =0xE000ED88       
 808 0004 0168     	   ldr r1, [r0]                
 809              	                               
 810 0006 41F47001 	   orr r1, r1, #( 0xf << 20 )  
 811 000a 0160     	   str r1, [r0]                
 812 000c 7047     	   bx r14                      
 813 000e 000088ED 	   .ltorg                      
 813      00E0
 814              	
 815              	@ 0 "" 2
 816              		.thumb
 817              		.syntax unified
 818 0014 00BF     		nop
 820 0016 00BF     		.section	.text.vPortValidateInterruptPriority,"ax",%progbits
 821              		.align	1
 822              		.global	vPortValidateInterruptPriority
 823              		.syntax unified
 824              		.thumb
 825              		.thumb_func
 827              	vPortValidateInterruptPriority:
 828              		@ args = 0, pretend = 0, frame = 16
 829              		@ frame_needed = 1, uses_anonymous_args = 0
ARM GAS  C:\msys64\tmp\ccaHBV5m.s 			page 15


 830              		@ link register save eliminated.
 831 0000 80B4     		push	{r7}
 832 0002 85B0     		sub	sp, sp, #20
 833 0004 00AF     		add	r7, sp, #0
 834              		.syntax unified
 835              	@ 847 "Middlewares/stm32f746_lwip_withos_porting/FreeRTOS/portable/GCC/ARM_CM7/r0p1/port.c" 1
 836 0006 EFF30583 		mrs r3, ipsr
 837              	@ 0 "" 2
 838              		.thumb
 839              		.syntax unified
 840 000a FB60     		str	r3, [r7, #12]
 841 000c FB68     		ldr	r3, [r7, #12]
 842 000e 0F2B     		cmp	r3, #15
 843 0010 17D9     		bls	.L58
 844 0012 1A4A     		ldr	r2, .L63
 845 0014 FB68     		ldr	r3, [r7, #12]
 846 0016 1344     		add	r3, r3, r2
 847 0018 1B78     		ldrb	r3, [r3]
 848 001a FB72     		strb	r3, [r7, #11]
 849 001c 184B     		ldr	r3, .L63+4
 850 001e 1B78     		ldrb	r3, [r3]	@ zero_extendqisi2
 851 0020 FA7A     		ldrb	r2, [r7, #11]	@ zero_extendqisi2
 852 0022 9A42     		cmp	r2, r3
 853 0024 0DD2     		bcs	.L58
 854              		.syntax unified
 855              	@ 214 "Middlewares/stm32f746_lwip_withos_porting/FreeRTOS/portable/GCC/ARM_CM7/r0p1/portmacro.h" 1
 856 0026 4FF05003 		   mov r3, #80                                              
 857 002a 72B6     	   cpsid i                                                 
 858 002c 83F31188 	   msr basepri, r3                                         
 859 0030 BFF36F8F 	   isb                                                     
 860 0034 BFF34F8F 	   dsb                                                     
 861 0038 62B6     	   cpsie i                                                 
 862              	
 863              	@ 0 "" 2
 864              		.thumb
 865              		.syntax unified
 866 003a 7B60     		str	r3, [r7, #4]
 867 003c 00BF     		nop
 868              	.L59:
 869 003e 00BF     		nop
 870 0040 FDE7     		b	.L59
 871              	.L58:
 872 0042 104B     		ldr	r3, .L63+8
 873 0044 1B68     		ldr	r3, [r3]
 874 0046 03F4E062 		and	r2, r3, #1792
 875 004a 0F4B     		ldr	r3, .L63+12
 876 004c 1B68     		ldr	r3, [r3]
 877 004e 9A42     		cmp	r2, r3
 878 0050 0DD9     		bls	.L62
 879              		.syntax unified
 880              	@ 214 "Middlewares/stm32f746_lwip_withos_porting/FreeRTOS/portable/GCC/ARM_CM7/r0p1/portmacro.h" 1
 881 0052 4FF05003 		   mov r3, #80                                              
 882 0056 72B6     	   cpsid i                                                 
 883 0058 83F31188 	   msr basepri, r3                                         
 884 005c BFF36F8F 	   isb                                                     
 885 0060 BFF34F8F 	   dsb                                                     
 886 0064 62B6     	   cpsie i                                                 
ARM GAS  C:\msys64\tmp\ccaHBV5m.s 			page 16


 887              	
 888              	@ 0 "" 2
 889              		.thumb
 890              		.syntax unified
 891 0066 3B60     		str	r3, [r7]
 892 0068 00BF     		nop
 893              	.L61:
 894 006a 00BF     		nop
 895 006c FDE7     		b	.L61
 896              	.L62:
 897 006e 00BF     		nop
 898 0070 1437     		adds	r7, r7, #20
 899 0072 BD46     		mov	sp, r7
 900              		@ sp needed
 901 0074 5DF8047B 		ldr	r7, [sp], #4
 902 0078 7047     		bx	lr
 903              	.L64:
 904 007a 00BF     		.align	2
 905              	.L63:
 906 007c F0E300E0 		.word	-536812560
 907 0080 00000000 		.word	ucMaxSysCallPriority
 908 0084 0CED00E0 		.word	-536810228
 909 0088 00000000 		.word	ulMaxPRIGROUPValue
 911              		.ident	"GCC: (GNU) 13.3.0"
ARM GAS  C:\msys64\tmp\ccaHBV5m.s 			page 17

