ARM GAS  C:\msys64\tmp\ccGVskWb.s 			page 1


   1              		.cpu cortex-m7
   2              		.arch armv7e-m
   3              		.fpu fpv5-sp-d16
   4              		.eabi_attribute 27, 1
   5              		.eabi_attribute 28, 1
   6              		.eabi_attribute 20, 1
   7              		.eabi_attribute 21, 1
   8              		.eabi_attribute 23, 3
   9              		.eabi_attribute 24, 1
  10              		.eabi_attribute 25, 1
  11              		.eabi_attribute 26, 1
  12              		.eabi_attribute 30, 6
  13              		.eabi_attribute 34, 1
  14              		.eabi_attribute 18, 4
  15              		.file	"ip4_addr.c"
  16              		.text
  17              		.global	ip_addr_any
  18              		.section	.rodata.ip_addr_any,"a"
  19              		.align	2
  22              	ip_addr_any:
  23 0000 00000000 		.space	4
  24              		.global	ip_addr_broadcast
  25              		.section	.rodata.ip_addr_broadcast,"a"
  26              		.align	2
  29              	ip_addr_broadcast:
  30 0000 FFFFFFFF 		.word	-1
  31              		.section	.text.ip4_addr_isbroadcast_u32,"ax",%progbits
  32              		.align	1
  33              		.global	ip4_addr_isbroadcast_u32
  34              		.syntax unified
  35              		.thumb
  36              		.thumb_func
  38              	ip4_addr_isbroadcast_u32:
  39              		@ args = 0, pretend = 0, frame = 16
  40              		@ frame_needed = 1, uses_anonymous_args = 0
  41              		@ link register save eliminated.
  42 0000 80B4     		push	{r7}
  43 0002 85B0     		sub	sp, sp, #20
  44 0004 00AF     		add	r7, sp, #0
  45 0006 7860     		str	r0, [r7, #4]
  46 0008 3960     		str	r1, [r7]
  47 000a 7B68     		ldr	r3, [r7, #4]
  48 000c FB60     		str	r3, [r7, #12]
  49 000e 7B68     		ldr	r3, [r7, #4]
  50 0010 B3F1FF3F 		cmp	r3, #-1
  51 0014 02D0     		beq	.L2
  52 0016 7B68     		ldr	r3, [r7, #4]
  53 0018 002B     		cmp	r3, #0
  54 001a 01D1     		bne	.L3
  55              	.L2:
  56 001c 0123     		movs	r3, #1
  57 001e 2AE0     		b	.L8
  58              	.L3:
  59 0020 3B68     		ldr	r3, [r7]
  60 0022 93F82D30 		ldrb	r3, [r3, #45]	@ zero_extendqisi2
  61 0026 03F00203 		and	r3, r3, #2
  62 002a 002B     		cmp	r3, #0
ARM GAS  C:\msys64\tmp\ccGVskWb.s 			page 2


  63 002c 01D1     		bne	.L5
  64 002e 0023     		movs	r3, #0
  65 0030 21E0     		b	.L8
  66              	.L5:
  67 0032 3B68     		ldr	r3, [r7]
  68 0034 0433     		adds	r3, r3, #4
  69 0036 1B68     		ldr	r3, [r3]
  70 0038 7A68     		ldr	r2, [r7, #4]
  71 003a 9A42     		cmp	r2, r3
  72 003c 01D1     		bne	.L6
  73 003e 0023     		movs	r3, #0
  74 0040 19E0     		b	.L8
  75              	.L6:
  76 0042 FA68     		ldr	r2, [r7, #12]
  77 0044 3B68     		ldr	r3, [r7]
  78 0046 0433     		adds	r3, r3, #4
  79 0048 1B68     		ldr	r3, [r3]
  80 004a 5A40     		eors	r2, r2, r3
  81 004c 3B68     		ldr	r3, [r7]
  82 004e 0833     		adds	r3, r3, #8
  83 0050 1B68     		ldr	r3, [r3]
  84 0052 1340     		ands	r3, r3, r2
  85 0054 002B     		cmp	r3, #0
  86 0056 0DD1     		bne	.L7
  87 0058 3B68     		ldr	r3, [r7]
  88 005a 0833     		adds	r3, r3, #8
  89 005c 1B68     		ldr	r3, [r3]
  90 005e DA43     		mvns	r2, r3
  91 0060 7B68     		ldr	r3, [r7, #4]
  92 0062 1A40     		ands	r2, r2, r3
  93 0064 3B68     		ldr	r3, [r7]
  94 0066 0833     		adds	r3, r3, #8
  95 0068 1B68     		ldr	r3, [r3]
  96 006a DB43     		mvns	r3, r3
  97 006c 9A42     		cmp	r2, r3
  98 006e 01D1     		bne	.L7
  99 0070 0123     		movs	r3, #1
 100 0072 00E0     		b	.L8
 101              	.L7:
 102 0074 0023     		movs	r3, #0
 103              	.L8:
 104 0076 1846     		mov	r0, r3
 105 0078 1437     		adds	r7, r7, #20
 106 007a BD46     		mov	sp, r7
 107              		@ sp needed
 108 007c 5DF8047B 		ldr	r7, [sp], #4
 109 0080 7047     		bx	lr
 111              		.section	.text.ip4_addr_netmask_valid,"ax",%progbits
 112              		.align	1
 113              		.global	ip4_addr_netmask_valid
 114              		.syntax unified
 115              		.thumb
 116              		.thumb_func
 118              	ip4_addr_netmask_valid:
 119              		@ args = 0, pretend = 0, frame = 16
 120              		@ frame_needed = 1, uses_anonymous_args = 0
 121 0000 80B5     		push	{r7, lr}
ARM GAS  C:\msys64\tmp\ccGVskWb.s 			page 3


 122 0002 84B0     		sub	sp, sp, #16
 123 0004 00AF     		add	r7, sp, #0
 124 0006 7860     		str	r0, [r7, #4]
 125 0008 7868     		ldr	r0, [r7, #4]
 126 000a FFF7FEFF 		bl	lwip_htonl
 127 000e B860     		str	r0, [r7, #8]
 128 0010 4FF00043 		mov	r3, #-2147483648
 129 0014 FB60     		str	r3, [r7, #12]
 130 0016 07E0     		b	.L10
 131              	.L13:
 132 0018 BA68     		ldr	r2, [r7, #8]
 133 001a FB68     		ldr	r3, [r7, #12]
 134 001c 1340     		ands	r3, r3, r2
 135 001e 002B     		cmp	r3, #0
 136 0020 06D0     		beq	.L18
 137 0022 FB68     		ldr	r3, [r7, #12]
 138 0024 5B08     		lsrs	r3, r3, #1
 139 0026 FB60     		str	r3, [r7, #12]
 140              	.L10:
 141 0028 FB68     		ldr	r3, [r7, #12]
 142 002a 002B     		cmp	r3, #0
 143 002c F4D1     		bne	.L13
 144 002e 0BE0     		b	.L14
 145              	.L18:
 146 0030 00BF     		nop
 147 0032 09E0     		b	.L14
 148              	.L17:
 149 0034 BA68     		ldr	r2, [r7, #8]
 150 0036 FB68     		ldr	r3, [r7, #12]
 151 0038 1340     		ands	r3, r3, r2
 152 003a 002B     		cmp	r3, #0
 153 003c 01D0     		beq	.L15
 154 003e 0023     		movs	r3, #0
 155 0040 06E0     		b	.L16
 156              	.L15:
 157 0042 FB68     		ldr	r3, [r7, #12]
 158 0044 5B08     		lsrs	r3, r3, #1
 159 0046 FB60     		str	r3, [r7, #12]
 160              	.L14:
 161 0048 FB68     		ldr	r3, [r7, #12]
 162 004a 002B     		cmp	r3, #0
 163 004c F2D1     		bne	.L17
 164 004e 0123     		movs	r3, #1
 165              	.L16:
 166 0050 1846     		mov	r0, r3
 167 0052 1037     		adds	r7, r7, #16
 168 0054 BD46     		mov	sp, r7
 169              		@ sp needed
 170 0056 80BD     		pop	{r7, pc}
 172              		.section	.text.ipaddr_addr,"ax",%progbits
 173              		.align	1
 174              		.global	ipaddr_addr
 175              		.syntax unified
 176              		.thumb
 177              		.thumb_func
 179              	ipaddr_addr:
 180              		@ args = 0, pretend = 0, frame = 16
ARM GAS  C:\msys64\tmp\ccGVskWb.s 			page 4


 181              		@ frame_needed = 1, uses_anonymous_args = 0
 182 0000 80B5     		push	{r7, lr}
 183 0002 84B0     		sub	sp, sp, #16
 184 0004 00AF     		add	r7, sp, #0
 185 0006 7860     		str	r0, [r7, #4]
 186 0008 07F10C03 		add	r3, r7, #12
 187 000c 1946     		mov	r1, r3
 188 000e 7868     		ldr	r0, [r7, #4]
 189 0010 FFF7FEFF 		bl	ip4addr_aton
 190 0014 0346     		mov	r3, r0
 191 0016 002B     		cmp	r3, #0
 192 0018 01D0     		beq	.L20
 193 001a FB68     		ldr	r3, [r7, #12]
 194 001c 01E0     		b	.L22
 195              	.L20:
 196 001e 4FF0FF33 		mov	r3, #-1
 197              	.L22:
 198 0022 1846     		mov	r0, r3
 199 0024 1037     		adds	r7, r7, #16
 200 0026 BD46     		mov	sp, r7
 201              		@ sp needed
 202 0028 80BD     		pop	{r7, pc}
 204              		.section	.rodata
 205              		.align	2
 206              	.LC0:
 207 0000 4D696464 		.ascii	"Middlewares/stm32f746_lwip_withos_porting/LWIP/src/"
 207      6C657761 
 207      7265732F 
 207      73746D33 
 207      32663734 
 208 0033 636F7265 		.ascii	"core/ipv4/ip4_addr.c\000"
 208      2F697076 
 208      342F6970 
 208      345F6164 
 208      64722E63 
 209              		.align	2
 210              	.LC1:
 211 0048 756E6861 		.ascii	"unhandled\000"
 211      6E646C65 
 211      6400
 212 0052 0000     		.align	2
 213              	.LC2:
 214 0054 41737365 		.ascii	"Assertion \"%s\" failed at line %d in %s\012\000"
 214      7274696F 
 214      6E202225 
 214      73222066 
 214      61696C65 
 215              		.section	.text.ip4addr_aton,"ax",%progbits
 216              		.align	1
 217              		.global	ip4addr_aton
 218              		.syntax unified
 219              		.thumb
 220              		.thumb_func
 222              	ip4addr_aton:
 223              		@ args = 0, pretend = 0, frame = 40
 224              		@ frame_needed = 1, uses_anonymous_args = 0
 225 0000 80B5     		push	{r7, lr}
ARM GAS  C:\msys64\tmp\ccGVskWb.s 			page 5


 226 0002 8AB0     		sub	sp, sp, #40
 227 0004 00AF     		add	r7, sp, #0
 228 0006 7860     		str	r0, [r7, #4]
 229 0008 3960     		str	r1, [r7]
 230 000a 07F10C03 		add	r3, r7, #12
 231 000e FB61     		str	r3, [r7, #28]
 232 0010 7B68     		ldr	r3, [r7, #4]
 233 0012 1B78     		ldrb	r3, [r3]
 234 0014 87F82230 		strb	r3, [r7, #34]
 235              	.L39:
 236 0018 97F82230 		ldrb	r3, [r7, #34]	@ zero_extendqisi2
 237 001c 0133     		adds	r3, r3, #1
 238 001e 894A     		ldr	r2, .L62
 239 0020 1344     		add	r3, r3, r2
 240 0022 1B78     		ldrb	r3, [r3]	@ zero_extendqisi2
 241 0024 03F00403 		and	r3, r3, #4
 242 0028 002B     		cmp	r3, #0
 243 002a 01D1     		bne	.L24
 244 002c 0023     		movs	r3, #0
 245 002e 05E1     		b	.L58
 246              	.L24:
 247 0030 0023     		movs	r3, #0
 248 0032 7B62     		str	r3, [r7, #36]
 249 0034 0A23     		movs	r3, #10
 250 0036 87F82330 		strb	r3, [r7, #35]
 251 003a 97F82230 		ldrb	r3, [r7, #34]	@ zero_extendqisi2
 252 003e 302B     		cmp	r3, #48
 253 0040 1CD1     		bne	.L34
 254 0042 7B68     		ldr	r3, [r7, #4]
 255 0044 0133     		adds	r3, r3, #1
 256 0046 7B60     		str	r3, [r7, #4]
 257 0048 7B68     		ldr	r3, [r7, #4]
 258 004a 1B78     		ldrb	r3, [r3]
 259 004c 87F82230 		strb	r3, [r7, #34]
 260 0050 97F82230 		ldrb	r3, [r7, #34]	@ zero_extendqisi2
 261 0054 782B     		cmp	r3, #120
 262 0056 03D0     		beq	.L27
 263 0058 97F82230 		ldrb	r3, [r7, #34]	@ zero_extendqisi2
 264 005c 582B     		cmp	r3, #88
 265 005e 0AD1     		bne	.L28
 266              	.L27:
 267 0060 1023     		movs	r3, #16
 268 0062 87F82330 		strb	r3, [r7, #35]
 269 0066 7B68     		ldr	r3, [r7, #4]
 270 0068 0133     		adds	r3, r3, #1
 271 006a 7B60     		str	r3, [r7, #4]
 272 006c 7B68     		ldr	r3, [r7, #4]
 273 006e 1B78     		ldrb	r3, [r3]
 274 0070 87F82230 		strb	r3, [r7, #34]
 275 0074 02E0     		b	.L34
 276              	.L28:
 277 0076 0823     		movs	r3, #8
 278 0078 87F82330 		strb	r3, [r7, #35]
 279              	.L34:
 280 007c 97F82230 		ldrb	r3, [r7, #34]	@ zero_extendqisi2
 281 0080 0133     		adds	r3, r3, #1
 282 0082 704A     		ldr	r2, .L62
ARM GAS  C:\msys64\tmp\ccGVskWb.s 			page 6


 283 0084 1344     		add	r3, r3, r2
 284 0086 1B78     		ldrb	r3, [r3]	@ zero_extendqisi2
 285 0088 03F00403 		and	r3, r3, #4
 286 008c 002B     		cmp	r3, #0
 287 008e 11D0     		beq	.L29
 288 0090 97F82330 		ldrb	r3, [r7, #35]	@ zero_extendqisi2
 289 0094 7A6A     		ldr	r2, [r7, #36]
 290 0096 03FB02F2 		mul	r2, r3, r2
 291 009a 97F82230 		ldrb	r3, [r7, #34]	@ zero_extendqisi2
 292 009e 1344     		add	r3, r3, r2
 293 00a0 303B     		subs	r3, r3, #48
 294 00a2 7B62     		str	r3, [r7, #36]
 295 00a4 7B68     		ldr	r3, [r7, #4]
 296 00a6 0133     		adds	r3, r3, #1
 297 00a8 7B60     		str	r3, [r7, #4]
 298 00aa 7B68     		ldr	r3, [r7, #4]
 299 00ac 1B78     		ldrb	r3, [r3]
 300 00ae 87F82230 		strb	r3, [r7, #34]
 301 00b2 E3E7     		b	.L34
 302              	.L29:
 303 00b4 97F82330 		ldrb	r3, [r7, #35]	@ zero_extendqisi2
 304 00b8 102B     		cmp	r3, #16
 305 00ba 27D1     		bne	.L31
 306 00bc 97F82230 		ldrb	r3, [r7, #34]	@ zero_extendqisi2
 307 00c0 0133     		adds	r3, r3, #1
 308 00c2 604A     		ldr	r2, .L62
 309 00c4 1344     		add	r3, r3, r2
 310 00c6 1B78     		ldrb	r3, [r3]	@ zero_extendqisi2
 311 00c8 03F04403 		and	r3, r3, #68
 312 00cc 002B     		cmp	r3, #0
 313 00ce 1DD0     		beq	.L31
 314 00d0 7B6A     		ldr	r3, [r7, #36]
 315 00d2 1B01     		lsls	r3, r3, #4
 316 00d4 97F82220 		ldrb	r2, [r7, #34]	@ zero_extendqisi2
 317 00d8 02F10A01 		add	r1, r2, #10
 318 00dc 97F82220 		ldrb	r2, [r7, #34]	@ zero_extendqisi2
 319 00e0 0132     		adds	r2, r2, #1
 320 00e2 5848     		ldr	r0, .L62
 321 00e4 0244     		add	r2, r2, r0
 322 00e6 1278     		ldrb	r2, [r2]	@ zero_extendqisi2
 323 00e8 02F00302 		and	r2, r2, #3
 324 00ec 022A     		cmp	r2, #2
 325 00ee 01D1     		bne	.L32
 326 00f0 6122     		movs	r2, #97
 327 00f2 00E0     		b	.L33
 328              	.L32:
 329 00f4 4122     		movs	r2, #65
 330              	.L33:
 331 00f6 8A1A     		subs	r2, r1, r2
 332 00f8 1343     		orrs	r3, r3, r2
 333 00fa 7B62     		str	r3, [r7, #36]
 334 00fc 7B68     		ldr	r3, [r7, #4]
 335 00fe 0133     		adds	r3, r3, #1
 336 0100 7B60     		str	r3, [r7, #4]
 337 0102 7B68     		ldr	r3, [r7, #4]
 338 0104 1B78     		ldrb	r3, [r3]
 339 0106 87F82230 		strb	r3, [r7, #34]
ARM GAS  C:\msys64\tmp\ccGVskWb.s 			page 7


 340 010a B7E7     		b	.L34
 341              	.L31:
 342 010c 97F82230 		ldrb	r3, [r7, #34]	@ zero_extendqisi2
 343 0110 2E2B     		cmp	r3, #46
 344 0112 14D1     		bne	.L60
 345 0114 07F10C03 		add	r3, r7, #12
 346 0118 0C33     		adds	r3, r3, #12
 347 011a FA69     		ldr	r2, [r7, #28]
 348 011c 9A42     		cmp	r2, r3
 349 011e 01D3     		bcc	.L36
 350 0120 0023     		movs	r3, #0
 351 0122 8BE0     		b	.L58
 352              	.L36:
 353 0124 FB69     		ldr	r3, [r7, #28]
 354 0126 1A1D     		adds	r2, r3, #4
 355 0128 FA61     		str	r2, [r7, #28]
 356 012a 7A6A     		ldr	r2, [r7, #36]
 357 012c 1A60     		str	r2, [r3]
 358 012e 7B68     		ldr	r3, [r7, #4]
 359 0130 0133     		adds	r3, r3, #1
 360 0132 7B60     		str	r3, [r7, #4]
 361 0134 7B68     		ldr	r3, [r7, #4]
 362 0136 1B78     		ldrb	r3, [r3]
 363 0138 87F82230 		strb	r3, [r7, #34]
 364 013c 6CE7     		b	.L39
 365              	.L60:
 366 013e 00BF     		nop
 367 0140 97F82230 		ldrb	r3, [r7, #34]	@ zero_extendqisi2
 368 0144 002B     		cmp	r3, #0
 369 0146 0BD0     		beq	.L40
 370 0148 97F82230 		ldrb	r3, [r7, #34]	@ zero_extendqisi2
 371 014c 0133     		adds	r3, r3, #1
 372 014e 3D4A     		ldr	r2, .L62
 373 0150 1344     		add	r3, r3, r2
 374 0152 1B78     		ldrb	r3, [r3]	@ zero_extendqisi2
 375 0154 03F00803 		and	r3, r3, #8
 376 0158 002B     		cmp	r3, #0
 377 015a 01D1     		bne	.L40
 378 015c 0023     		movs	r3, #0
 379 015e 6DE0     		b	.L58
 380              	.L40:
 381 0160 07F10C03 		add	r3, r7, #12
 382 0164 FA69     		ldr	r2, [r7, #28]
 383 0166 D31A     		subs	r3, r2, r3
 384 0168 9B10     		asrs	r3, r3, #2
 385 016a 0133     		adds	r3, r3, #1
 386 016c 042B     		cmp	r3, #4
 387 016e 53D8     		bhi	.L59
 388 0170 01A2     		adr	r2, .L43
 389 0172 52F823F0 		ldr	pc, [r2, r3, lsl #2]
 390 0176 00BF     		.p2align 2
 391              	.L43:
 392 0178 8D010000 		.word	.L47+1
 393 017c 27020000 		.word	.L61+1
 394 0180 91010000 		.word	.L45+1
 395 0184 B3010000 		.word	.L44+1
 396 0188 E1010000 		.word	.L42+1
ARM GAS  C:\msys64\tmp\ccGVskWb.s 			page 8


 397              		.p2align 1
 398              	.L47:
 399 018c 0023     		movs	r3, #0
 400 018e 55E0     		b	.L58
 401              	.L45:
 402 0190 7B6A     		ldr	r3, [r7, #36]
 403 0192 B3F1807F 		cmp	r3, #16777216
 404 0196 01D3     		bcc	.L49
 405 0198 0023     		movs	r3, #0
 406 019a 4FE0     		b	.L58
 407              	.L49:
 408 019c FB68     		ldr	r3, [r7, #12]
 409 019e FF2B     		cmp	r3, #255
 410 01a0 01D9     		bls	.L50
 411 01a2 0023     		movs	r3, #0
 412 01a4 4AE0     		b	.L58
 413              	.L50:
 414 01a6 FB68     		ldr	r3, [r7, #12]
 415 01a8 1B06     		lsls	r3, r3, #24
 416 01aa 7A6A     		ldr	r2, [r7, #36]
 417 01ac 1343     		orrs	r3, r3, r2
 418 01ae 7B62     		str	r3, [r7, #36]
 419 01b0 3AE0     		b	.L48
 420              	.L44:
 421 01b2 7B6A     		ldr	r3, [r7, #36]
 422 01b4 B3F5803F 		cmp	r3, #65536
 423 01b8 01D3     		bcc	.L51
 424 01ba 0023     		movs	r3, #0
 425 01bc 3EE0     		b	.L58
 426              	.L51:
 427 01be FB68     		ldr	r3, [r7, #12]
 428 01c0 FF2B     		cmp	r3, #255
 429 01c2 02D8     		bhi	.L52
 430 01c4 3B69     		ldr	r3, [r7, #16]
 431 01c6 FF2B     		cmp	r3, #255
 432 01c8 01D9     		bls	.L53
 433              	.L52:
 434 01ca 0023     		movs	r3, #0
 435 01cc 36E0     		b	.L58
 436              	.L53:
 437 01ce FB68     		ldr	r3, [r7, #12]
 438 01d0 1A06     		lsls	r2, r3, #24
 439 01d2 3B69     		ldr	r3, [r7, #16]
 440 01d4 1B04     		lsls	r3, r3, #16
 441 01d6 1343     		orrs	r3, r3, r2
 442 01d8 7A6A     		ldr	r2, [r7, #36]
 443 01da 1343     		orrs	r3, r3, r2
 444 01dc 7B62     		str	r3, [r7, #36]
 445 01de 23E0     		b	.L48
 446              	.L42:
 447 01e0 7B6A     		ldr	r3, [r7, #36]
 448 01e2 FF2B     		cmp	r3, #255
 449 01e4 01D9     		bls	.L54
 450 01e6 0023     		movs	r3, #0
 451 01e8 28E0     		b	.L58
 452              	.L54:
 453 01ea FB68     		ldr	r3, [r7, #12]
ARM GAS  C:\msys64\tmp\ccGVskWb.s 			page 9


 454 01ec FF2B     		cmp	r3, #255
 455 01ee 05D8     		bhi	.L55
 456 01f0 3B69     		ldr	r3, [r7, #16]
 457 01f2 FF2B     		cmp	r3, #255
 458 01f4 02D8     		bhi	.L55
 459 01f6 7B69     		ldr	r3, [r7, #20]
 460 01f8 FF2B     		cmp	r3, #255
 461 01fa 01D9     		bls	.L56
 462              	.L55:
 463 01fc 0023     		movs	r3, #0
 464 01fe 1DE0     		b	.L58
 465              	.L56:
 466 0200 FB68     		ldr	r3, [r7, #12]
 467 0202 1A06     		lsls	r2, r3, #24
 468 0204 3B69     		ldr	r3, [r7, #16]
 469 0206 1B04     		lsls	r3, r3, #16
 470 0208 1A43     		orrs	r2, r2, r3
 471 020a 7B69     		ldr	r3, [r7, #20]
 472 020c 1B02     		lsls	r3, r3, #8
 473 020e 1343     		orrs	r3, r3, r2
 474 0210 7A6A     		ldr	r2, [r7, #36]
 475 0212 1343     		orrs	r3, r3, r2
 476 0214 7B62     		str	r3, [r7, #36]
 477 0216 07E0     		b	.L48
 478              	.L59:
 479 0218 0B4B     		ldr	r3, .L62+4
 480 021a F922     		movs	r2, #249
 481 021c 0B49     		ldr	r1, .L62+8
 482 021e 0C48     		ldr	r0, .L62+12
 483 0220 FFF7FEFF 		bl	printf
 484 0224 00E0     		b	.L48
 485              	.L61:
 486 0226 00BF     		nop
 487              	.L48:
 488 0228 3B68     		ldr	r3, [r7]
 489 022a 002B     		cmp	r3, #0
 490 022c 05D0     		beq	.L57
 491 022e 786A     		ldr	r0, [r7, #36]
 492 0230 FFF7FEFF 		bl	lwip_htonl
 493 0234 0246     		mov	r2, r0
 494 0236 3B68     		ldr	r3, [r7]
 495 0238 1A60     		str	r2, [r3]
 496              	.L57:
 497 023a 0123     		movs	r3, #1
 498              	.L58:
 499 023c 1846     		mov	r0, r3
 500 023e 2837     		adds	r7, r7, #40
 501 0240 BD46     		mov	sp, r7
 502              		@ sp needed
 503 0242 80BD     		pop	{r7, pc}
 504              	.L63:
 505              		.align	2
 506              	.L62:
 507 0244 00000000 		.word	_ctype_
 508 0248 00000000 		.word	.LC0
 509 024c 48000000 		.word	.LC1
 510 0250 54000000 		.word	.LC2
ARM GAS  C:\msys64\tmp\ccGVskWb.s 			page 10


 512              		.section	.text.ip4addr_ntoa,"ax",%progbits
 513              		.align	1
 514              		.global	ip4addr_ntoa
 515              		.syntax unified
 516              		.thumb
 517              		.thumb_func
 519              	ip4addr_ntoa:
 520              		@ args = 0, pretend = 0, frame = 8
 521              		@ frame_needed = 1, uses_anonymous_args = 0
 522 0000 80B5     		push	{r7, lr}
 523 0002 82B0     		sub	sp, sp, #8
 524 0004 00AF     		add	r7, sp, #0
 525 0006 7860     		str	r0, [r7, #4]
 526 0008 1022     		movs	r2, #16
 527 000a 0449     		ldr	r1, .L66
 528 000c 7868     		ldr	r0, [r7, #4]
 529 000e FFF7FEFF 		bl	ip4addr_ntoa_r
 530 0012 0346     		mov	r3, r0
 531 0014 1846     		mov	r0, r3
 532 0016 0837     		adds	r7, r7, #8
 533 0018 BD46     		mov	sp, r7
 534              		@ sp needed
 535 001a 80BD     		pop	{r7, pc}
 536              	.L67:
 537              		.align	2
 538              	.L66:
 539 001c 00000000 		.word	str.0
 541              		.section	.text.ip4addr_ntoa_r,"ax",%progbits
 542              		.align	1
 543              		.global	ip4addr_ntoa_r
 544              		.syntax unified
 545              		.thumb
 546              		.thumb_func
 548              	ip4addr_ntoa_r:
 549              		@ args = 0, pretend = 0, frame = 48
 550              		@ frame_needed = 1, uses_anonymous_args = 0
 551              		@ link register save eliminated.
 552 0000 80B4     		push	{r7}
 553 0002 8DB0     		sub	sp, sp, #52
 554 0004 00AF     		add	r7, sp, #0
 555 0006 F860     		str	r0, [r7, #12]
 556 0008 B960     		str	r1, [r7, #8]
 557 000a 7A60     		str	r2, [r7, #4]
 558 000c 0023     		movs	r3, #0
 559 000e 3B62     		str	r3, [r7, #32]
 560 0010 FB68     		ldr	r3, [r7, #12]
 561 0012 1B68     		ldr	r3, [r3]
 562 0014 BB61     		str	r3, [r7, #24]
 563 0016 BB68     		ldr	r3, [r7, #8]
 564 0018 FB62     		str	r3, [r7, #44]
 565 001a 07F11803 		add	r3, r7, #24
 566 001e BB62     		str	r3, [r7, #40]
 567 0020 0023     		movs	r3, #0
 568 0022 87F82730 		strb	r3, [r7, #39]
 569 0026 58E0     		b	.L69
 570              	.L76:
 571 0028 0023     		movs	r3, #0
ARM GAS  C:\msys64\tmp\ccGVskWb.s 			page 11


 572 002a 87F82630 		strb	r3, [r7, #38]
 573              	.L70:
 574 002e BB6A     		ldr	r3, [r7, #40]
 575 0030 1A78     		ldrb	r2, [r3]	@ zero_extendqisi2
 576 0032 324B     		ldr	r3, .L78
 577 0034 A3FB0213 		umull	r1, r3, r3, r2
 578 0038 D908     		lsrs	r1, r3, #3
 579 003a 0B46     		mov	r3, r1
 580 003c 9B00     		lsls	r3, r3, #2
 581 003e 0B44     		add	r3, r3, r1
 582 0040 5B00     		lsls	r3, r3, #1
 583 0042 D31A     		subs	r3, r2, r3
 584 0044 FB77     		strb	r3, [r7, #31]
 585 0046 BB6A     		ldr	r3, [r7, #40]
 586 0048 1B78     		ldrb	r3, [r3]	@ zero_extendqisi2
 587 004a 2C4A     		ldr	r2, .L78
 588 004c A2FB0323 		umull	r2, r3, r2, r3
 589 0050 DB08     		lsrs	r3, r3, #3
 590 0052 DAB2     		uxtb	r2, r3
 591 0054 BB6A     		ldr	r3, [r7, #40]
 592 0056 1A70     		strb	r2, [r3]
 593 0058 97F82630 		ldrb	r3, [r7, #38]	@ zero_extendqisi2
 594 005c 5A1C     		adds	r2, r3, #1
 595 005e 87F82620 		strb	r2, [r7, #38]
 596 0062 1946     		mov	r1, r3
 597 0064 FB7F     		ldrb	r3, [r7, #31]
 598 0066 3033     		adds	r3, r3, #48
 599 0068 DAB2     		uxtb	r2, r3
 600 006a 01F13003 		add	r3, r1, #48
 601 006e 3B44     		add	r3, r3, r7
 602 0070 03F81C2C 		strb	r2, [r3, #-28]
 603 0074 BB6A     		ldr	r3, [r7, #40]
 604 0076 1B78     		ldrb	r3, [r3]	@ zero_extendqisi2
 605 0078 002B     		cmp	r3, #0
 606 007a D8D1     		bne	.L70
 607 007c 11E0     		b	.L71
 608              	.L74:
 609 007e 3B6A     		ldr	r3, [r7, #32]
 610 0080 5A1C     		adds	r2, r3, #1
 611 0082 3A62     		str	r2, [r7, #32]
 612 0084 7A68     		ldr	r2, [r7, #4]
 613 0086 9A42     		cmp	r2, r3
 614 0088 01DC     		bgt	.L72
 615 008a 0023     		movs	r3, #0
 616 008c 30E0     		b	.L77
 617              	.L72:
 618 008e 97F82620 		ldrb	r2, [r7, #38]	@ zero_extendqisi2
 619 0092 FB6A     		ldr	r3, [r7, #44]
 620 0094 591C     		adds	r1, r3, #1
 621 0096 F962     		str	r1, [r7, #44]
 622 0098 3032     		adds	r2, r2, #48
 623 009a 3A44     		add	r2, r2, r7
 624 009c 12F81C2C 		ldrb	r2, [r2, #-28]	@ zero_extendqisi2
 625 00a0 1A70     		strb	r2, [r3]
 626              	.L71:
 627 00a2 97F82630 		ldrb	r3, [r7, #38]	@ zero_extendqisi2
 628 00a6 5A1E     		subs	r2, r3, #1
ARM GAS  C:\msys64\tmp\ccGVskWb.s 			page 12


 629 00a8 87F82620 		strb	r2, [r7, #38]
 630 00ac 002B     		cmp	r3, #0
 631 00ae E6D1     		bne	.L74
 632 00b0 3B6A     		ldr	r3, [r7, #32]
 633 00b2 5A1C     		adds	r2, r3, #1
 634 00b4 3A62     		str	r2, [r7, #32]
 635 00b6 7A68     		ldr	r2, [r7, #4]
 636 00b8 9A42     		cmp	r2, r3
 637 00ba 01DC     		bgt	.L75
 638 00bc 0023     		movs	r3, #0
 639 00be 17E0     		b	.L77
 640              	.L75:
 641 00c0 FB6A     		ldr	r3, [r7, #44]
 642 00c2 5A1C     		adds	r2, r3, #1
 643 00c4 FA62     		str	r2, [r7, #44]
 644 00c6 2E22     		movs	r2, #46
 645 00c8 1A70     		strb	r2, [r3]
 646 00ca BB6A     		ldr	r3, [r7, #40]
 647 00cc 0133     		adds	r3, r3, #1
 648 00ce BB62     		str	r3, [r7, #40]
 649 00d0 97F82730 		ldrb	r3, [r7, #39]	@ zero_extendqisi2
 650 00d4 0133     		adds	r3, r3, #1
 651 00d6 87F82730 		strb	r3, [r7, #39]
 652              	.L69:
 653 00da 97F82730 		ldrb	r3, [r7, #39]	@ zero_extendqisi2
 654 00de 032B     		cmp	r3, #3
 655 00e0 A2D9     		bls	.L76
 656 00e2 FB6A     		ldr	r3, [r7, #44]
 657 00e4 013B     		subs	r3, r3, #1
 658 00e6 FB62     		str	r3, [r7, #44]
 659 00e8 FB6A     		ldr	r3, [r7, #44]
 660 00ea 0022     		movs	r2, #0
 661 00ec 1A70     		strb	r2, [r3]
 662 00ee BB68     		ldr	r3, [r7, #8]
 663              	.L77:
 664 00f0 1846     		mov	r0, r3
 665 00f2 3437     		adds	r7, r7, #52
 666 00f4 BD46     		mov	sp, r7
 667              		@ sp needed
 668 00f6 5DF8047B 		ldr	r7, [sp], #4
 669 00fa 7047     		bx	lr
 670              	.L79:
 671              		.align	2
 672              	.L78:
 673 00fc CDCCCCCC 		.word	-858993459
 675              		.section	.bss.str.0,"aw",%nobits
 676              		.align	2
 679              	str.0:
 680 0000 00000000 		.space	16
 680      00000000 
 680      00000000 
 680      00000000 
 681              		.ident	"GCC: (GNU) 13.3.0"
ARM GAS  C:\msys64\tmp\ccGVskWb.s 			page 13

